Archive member included to satisfy reference by file (symbol)

D:\Project\21.IR_Touch\BE_FW\wmc-ctsi-0850-fe-be-app\lib/libbackend_irt650_nxp2.a(backend_main.o)
                              ./source/app.o (BG_init_backend)
D:\Project\21.IR_Touch\BE_FW\wmc-ctsi-0850-fe-be-app\lib/libbackend_irt650_nxp2.a(backend_multi.o)
                              D:\Project\21.IR_Touch\BE_FW\wmc-ctsi-0850-fe-be-app\lib/libbackend_irt650_nxp2.a(backend_main.o) (BS_initial_polygon)
D:\Project\21.IR_Touch\BE_FW\wmc-ctsi-0850-fe-be-app\lib/libbackend_irt650_nxp2.a(backend_utils.o)
                              D:\Project\21.IR_Touch\BE_FW\wmc-ctsi-0850-fe-be-app\lib/libbackend_irt650_nxp2.a(backend_main.o) (BS_malloc_init)
D:\Project\21.IR_Touch\BE_FW\wmc-ctsi-0850-fe-be-app\lib/libbackend_irt650_nxp2.a(IRTP_layout.o)
                              D:\Project\21.IR_Touch\BE_FW\wmc-ctsi-0850-fe-be-app\lib/libbackend_irt650_nxp2.a(backend_main.o) (BS_large_pitch_end_y)
D:\Project\21.IR_Touch\BE_FW\wmc-ctsi-0850-fe-be-app\lib/libbackend_irt650_nxp2.a(backend_debug.o)
                              D:\Project\21.IR_Touch\BE_FW\wmc-ctsi-0850-fe-be-app\lib/libbackend_irt650_nxp2.a(backend_main.o) (maxClipIdx)
D:\Project\21.IR_Touch\BE_FW\wmc-ctsi-0850-fe-be-app\lib/libbackend_irt650_nxp2.a(backend_fine.o)
                              D:\Project\21.IR_Touch\BE_FW\wmc-ctsi-0850-fe-be-app\lib/libbackend_irt650_nxp2.a(backend_main.o) (BS_initial_line_a_x)
c:/nxp/mcuxpressoide_11.7.0_9198/ide/plugins/com.nxp.mcuxpresso.tools.win32_11.7.0.202209140929/tools/bin/../lib/gcc/arm-none-eabi/10.3.1/../../../../arm-none-eabi/lib/thumb/v7e-m+fp/hard\libcr_nohost_nf.a(_cr__main.o)
                              ./startup/startup_mimxrt1064.o (__main)
c:/nxp/mcuxpressoide_11.7.0_9198/ide/plugins/com.nxp.mcuxpresso.tools.win32_11.7.0.202209140929/tools/bin/../lib/gcc/arm-none-eabi/10.3.1/../../../../arm-none-eabi/lib/thumb/v7e-m+fp/hard\libcr_c.a(memcpy.o)
                              ./utilities/fsl_str.o (memcpy)
c:/nxp/mcuxpressoide_11.7.0_9198/ide/plugins/com.nxp.mcuxpresso.tools.win32_11.7.0.202209140929/tools/bin/../lib/gcc/arm-none-eabi/10.3.1/../../../../arm-none-eabi/lib/thumb/v7e-m+fp/hard\libcr_c.a(memset.o)
                              ./utilities/fsl_debug_console.o (memset)
c:/nxp/mcuxpressoide_11.7.0_9198/ide/plugins/com.nxp.mcuxpresso.tools.win32_11.7.0.202209140929/tools/bin/../lib/gcc/arm-none-eabi/10.3.1/../../../../arm-none-eabi/lib/thumb/v7e-m+fp/hard\libcr_c.a(alloc.o)
                              ./drivers/fsl_common.o (malloc)
c:/nxp/mcuxpressoide_11.7.0_9198/ide/plugins/com.nxp.mcuxpresso.tools.win32_11.7.0.202209140929/tools/bin/../lib/gcc/arm-none-eabi/10.3.1/../../../../arm-none-eabi/lib/thumb/v7e-m+fp/hard\libcr_c.a(errno.o)
                              ./utilities/fsl_str.o (errno)
c:/nxp/mcuxpressoide_11.7.0_9198/ide/plugins/com.nxp.mcuxpresso.tools.win32_11.7.0.202209140929/tools/bin/../lib/gcc/arm-none-eabi/10.3.1/../../../../arm-none-eabi/lib/thumb/v7e-m+fp/hard\libcr_c.a(initio.o)
                              c:/nxp/mcuxpressoide_11.7.0_9198/ide/plugins/com.nxp.mcuxpresso.tools.win32_11.7.0.202209140929/tools/bin/../lib/gcc/arm-none-eabi/10.3.1/../../../../arm-none-eabi/lib/thumb/v7e-m+fp/hard\libcr_nohost_nf.a(_cr__main.o) (_initio)
c:/nxp/mcuxpressoide_11.7.0_9198/ide/plugins/com.nxp.mcuxpresso.tools.win32_11.7.0.202209140929/tools/bin/../lib/gcc/arm-none-eabi/10.3.1/../../../../arm-none-eabi/lib/thumb/v7e-m+fp/hard\libcr_c.a(printf.o)
                              ./source/Scan.o (_printf)
c:/nxp/mcuxpressoide_11.7.0_9198/ide/plugins/com.nxp.mcuxpresso.tools.win32_11.7.0.202209140929/tools/bin/../lib/gcc/arm-none-eabi/10.3.1/../../../../arm-none-eabi/lib/thumb/v7e-m+fp/hard\libcr_c.a(scanf.o)
                              ./source/dlt.o (strtol)
c:/nxp/mcuxpressoide_11.7.0_9198/ide/plugins/com.nxp.mcuxpresso.tools.win32_11.7.0.202209140929/tools/bin/../lib/gcc/arm-none-eabi/10.3.1/../../../../arm-none-eabi/lib/thumb/v7e-m+fp/hard\libcr_c.a(setvbuf.o)
                              c:/nxp/mcuxpressoide_11.7.0_9198/ide/plugins/com.nxp.mcuxpresso.tools.win32_11.7.0.202209140929/tools/bin/../lib/gcc/arm-none-eabi/10.3.1/../../../../arm-none-eabi/lib/thumb/v7e-m+fp/hard\libcr_c.a(initio.o) (setvbuf)
c:/nxp/mcuxpressoide_11.7.0_9198/ide/plugins/com.nxp.mcuxpresso.tools.win32_11.7.0.202209140929/tools/bin/../lib/gcc/arm-none-eabi/10.3.1/../../../../arm-none-eabi/lib/thumb/v7e-m+fp/hard\libcr_c.a(strchr.o)
                              ./source/dlt.o (strchr)
c:/nxp/mcuxpressoide_11.7.0_9198/ide/plugins/com.nxp.mcuxpresso.tools.win32_11.7.0.202209140929/tools/bin/../lib/gcc/arm-none-eabi/10.3.1/../../../../arm-none-eabi/lib/thumb/v7e-m+fp/hard\libcr_c.a(strlen.o)
                              ./utilities/fsl_str.o (strlen)
c:/nxp/mcuxpressoide_11.7.0_9198/ide/plugins/com.nxp.mcuxpresso.tools.win32_11.7.0.202209140929/tools/bin/../lib/gcc/arm-none-eabi/10.3.1/../../../../arm-none-eabi/lib/thumb/v7e-m+fp/hard\libcr_c.a(ungetc.o)
                              c:/nxp/mcuxpressoide_11.7.0_9198/ide/plugins/com.nxp.mcuxpresso.tools.win32_11.7.0.202209140929/tools/bin/../lib/gcc/arm-none-eabi/10.3.1/../../../../arm-none-eabi/lib/thumb/v7e-m+fp/hard\libcr_c.a(scanf.o) (ungetc)
c:/nxp/mcuxpressoide_11.7.0_9198/ide/plugins/com.nxp.mcuxpresso.tools.win32_11.7.0.202209140929/tools/bin/../lib/gcc/arm-none-eabi/10.3.1/../../../../arm-none-eabi/lib/thumb/v7e-m+fp/hard\libcr_c.a(__fillbuf.o)
                              c:/nxp/mcuxpressoide_11.7.0_9198/ide/plugins/com.nxp.mcuxpresso.tools.win32_11.7.0.202209140929/tools/bin/../lib/gcc/arm-none-eabi/10.3.1/../../../../arm-none-eabi/lib/thumb/v7e-m+fp/hard\libcr_c.a(scanf.o) (__filbuf)
c:/nxp/mcuxpressoide_11.7.0_9198/ide/plugins/com.nxp.mcuxpresso.tools.win32_11.7.0.202209140929/tools/bin/../lib/gcc/arm-none-eabi/10.3.1/../../../../arm-none-eabi/lib/thumb/v7e-m+fp/hard\libcr_c.a(__init_alloc.o)
                              c:/nxp/mcuxpressoide_11.7.0_9198/ide/plugins/com.nxp.mcuxpresso.tools.win32_11.7.0.202209140929/tools/bin/../lib/gcc/arm-none-eabi/10.3.1/../../../../arm-none-eabi/lib/thumb/v7e-m+fp/hard\libcr_c.a(alloc.o) (__heaps)
c:/nxp/mcuxpressoide_11.7.0_9198/ide/plugins/com.nxp.mcuxpresso.tools.win32_11.7.0.202209140929/tools/bin/../lib/gcc/arm-none-eabi/10.3.1/../../../../arm-none-eabi/lib/thumb/v7e-m+fp/hard\libcr_c.a(_cr_sbrk.o)
                              c:/nxp/mcuxpressoide_11.7.0_9198/ide/plugins/com.nxp.mcuxpresso.tools.win32_11.7.0.202209140929/tools/bin/../lib/gcc/arm-none-eabi/10.3.1/../../../../arm-none-eabi/lib/thumb/v7e-m+fp/hard\libcr_c.a(alloc.o) (_sbrk)
c:/nxp/mcuxpressoide_11.7.0_9198/ide/plugins/com.nxp.mcuxpresso.tools.win32_11.7.0.202209140929/tools/bin/../lib/gcc/arm-none-eabi/10.3.1/../../../../arm-none-eabi/lib/thumb/v7e-m+fp/hard\libcr_c.a(_deferredlazyseek.o)
                              c:/nxp/mcuxpressoide_11.7.0_9198/ide/plugins/com.nxp.mcuxpresso.tools.win32_11.7.0.202209140929/tools/bin/../lib/gcc/arm-none-eabi/10.3.1/../../../../arm-none-eabi/lib/thumb/v7e-m+fp/hard\libcr_c.a(__fillbuf.o) (_deferredlazyseek)
c:/nxp/mcuxpressoide_11.7.0_9198/ide/plugins/com.nxp.mcuxpresso.tools.win32_11.7.0.202209140929/tools/bin/../lib/gcc/arm-none-eabi/10.3.1/../../../../arm-none-eabi/lib/thumb/v7e-m+fp/hard\libcr_c.a(_fdopen.o)
                              c:/nxp/mcuxpressoide_11.7.0_9198/ide/plugins/com.nxp.mcuxpresso.tools.win32_11.7.0.202209140929/tools/bin/../lib/gcc/arm-none-eabi/10.3.1/../../../../arm-none-eabi/lib/thumb/v7e-m+fp/hard\libcr_c.a(initio.o) (_fdopen)
c:/nxp/mcuxpressoide_11.7.0_9198/ide/plugins/com.nxp.mcuxpresso.tools.win32_11.7.0.202209140929/tools/bin/../lib/gcc/arm-none-eabi/10.3.1/../../../../arm-none-eabi/lib/thumb/v7e-m+fp/hard\libcr_c.a(_fflush.o)
                              c:/nxp/mcuxpressoide_11.7.0_9198/ide/plugins/com.nxp.mcuxpresso.tools.win32_11.7.0.202209140929/tools/bin/../lib/gcc/arm-none-eabi/10.3.1/../../../../arm-none-eabi/lib/thumb/v7e-m+fp/hard\libcr_c.a(__fillbuf.o) (_fflush)
c:/nxp/mcuxpressoide_11.7.0_9198/ide/plugins/com.nxp.mcuxpresso.tools.win32_11.7.0.202209140929/tools/bin/../lib/gcc/arm-none-eabi/10.3.1/../../../../arm-none-eabi/lib/thumb/v7e-m+fp/hard\libcr_c.a(_frexpl.o)
                              c:/nxp/mcuxpressoide_11.7.0_9198/ide/plugins/com.nxp.mcuxpresso.tools.win32_11.7.0.202209140929/tools/bin/../lib/gcc/arm-none-eabi/10.3.1/../../../../arm-none-eabi/lib/thumb/v7e-m+fp/hard\libcr_c.a(scanf.o) (_frexpl)
c:/nxp/mcuxpressoide_11.7.0_9198/ide/plugins/com.nxp.mcuxpresso.tools.win32_11.7.0.202209140929/tools/bin/../lib/gcc/arm-none-eabi/10.3.1/../../../../arm-none-eabi/lib/thumb/v7e-m+fp/hard\libcr_c.a(_ldexpl.o)
                              c:/nxp/mcuxpressoide_11.7.0_9198/ide/plugins/com.nxp.mcuxpresso.tools.win32_11.7.0.202209140929/tools/bin/../lib/gcc/arm-none-eabi/10.3.1/../../../../arm-none-eabi/lib/thumb/v7e-m+fp/hard\libcr_c.a(scanf.o) (_ldexpl)
c:/nxp/mcuxpressoide_11.7.0_9198/ide/plugins/com.nxp.mcuxpresso.tools.win32_11.7.0.202209140929/tools/bin/../lib/gcc/arm-none-eabi/10.3.1/../../../../arm-none-eabi/lib/thumb/v7e-m+fp/hard\libcr_c.a(_writebuf.o)
                              c:/nxp/mcuxpressoide_11.7.0_9198/ide/plugins/com.nxp.mcuxpresso.tools.win32_11.7.0.202209140929/tools/bin/../lib/gcc/arm-none-eabi/10.3.1/../../../../arm-none-eabi/lib/thumb/v7e-m+fp/hard\libcr_c.a(_deferredlazyseek.o) (_Cwritebuf)
c:/nxp/mcuxpressoide_11.7.0_9198/ide/plugins/com.nxp.mcuxpresso.tools.win32_11.7.0.202209140929/tools/bin/../lib/gcc/arm-none-eabi/10.3.1/../../../../arm-none-eabi/lib/thumb/v7e-m+fp/hard\libcr_c.a(ctype.o)
                              c:/nxp/mcuxpressoide_11.7.0_9198/ide/plugins/com.nxp.mcuxpresso.tools.win32_11.7.0.202209140929/tools/bin/../lib/gcc/arm-none-eabi/10.3.1/../../../../arm-none-eabi/lib/thumb/v7e-m+fp/hard\libcr_c.a(scanf.o) (__ctype)
c:/nxp/mcuxpressoide_11.7.0_9198/ide/plugins/com.nxp.mcuxpresso.tools.win32_11.7.0.202209140929/tools/bin/../lib/gcc/arm-none-eabi/10.3.1/../../../../arm-none-eabi/lib/thumb/v7e-m+fp/hard\libcr_c.a(fclose.o)
                              c:/nxp/mcuxpressoide_11.7.0_9198/ide/plugins/com.nxp.mcuxpresso.tools.win32_11.7.0.202209140929/tools/bin/../lib/gcc/arm-none-eabi/10.3.1/../../../../arm-none-eabi/lib/thumb/v7e-m+fp/hard\libcr_c.a(initio.o) (fclose)
c:/nxp/mcuxpressoide_11.7.0_9198/ide/plugins/com.nxp.mcuxpresso.tools.win32_11.7.0.202209140929/tools/bin/../lib/gcc/arm-none-eabi/10.3.1/../../../../arm-none-eabi/lib/thumb/v7e-m+fp/hard\libcr_c.a(fflush.o)
                              c:/nxp/mcuxpressoide_11.7.0_9198/ide/plugins/com.nxp.mcuxpresso.tools.win32_11.7.0.202209140929/tools/bin/../lib/gcc/arm-none-eabi/10.3.1/../../../../arm-none-eabi/lib/thumb/v7e-m+fp/hard\libcr_c.a(fclose.o) (fflush)
c:/nxp/mcuxpressoide_11.7.0_9198/ide/plugins/com.nxp.mcuxpresso.tools.win32_11.7.0.202209140929/tools/bin/../lib/gcc/arm-none-eabi/10.3.1/../../../../arm-none-eabi/lib/thumb/v7e-m+fp/hard\libcr_c.a(fseek.o)
                              c:/nxp/mcuxpressoide_11.7.0_9198/ide/plugins/com.nxp.mcuxpresso.tools.win32_11.7.0.202209140929/tools/bin/../lib/gcc/arm-none-eabi/10.3.1/../../../../arm-none-eabi/lib/thumb/v7e-m+fp/hard\libcr_c.a(_deferredlazyseek.o) (fseek)
c:/nxp/mcuxpressoide_11.7.0_9198/ide/plugins/com.nxp.mcuxpresso.tools.win32_11.7.0.202209140929/tools/bin/../lib/gcc/arm-none-eabi/10.3.1/../../../../arm-none-eabi/lib/thumb/v7e-m+fp/hard\libcr_c.a(ftell.o)
                              c:/nxp/mcuxpressoide_11.7.0_9198/ide/plugins/com.nxp.mcuxpresso.tools.win32_11.7.0.202209140929/tools/bin/../lib/gcc/arm-none-eabi/10.3.1/../../../../arm-none-eabi/lib/thumb/v7e-m+fp/hard\libcr_c.a(fseek.o) (ftell)
c:/nxp/mcuxpressoide_11.7.0_9198/ide/plugins/com.nxp.mcuxpresso.tools.win32_11.7.0.202209140929/tools/bin/../lib/gcc/arm-none-eabi/10.3.1/../../../../arm-none-eabi/lib/thumb/v7e-m+fp/hard\libcr_c.a(remove.o)
                              c:/nxp/mcuxpressoide_11.7.0_9198/ide/plugins/com.nxp.mcuxpresso.tools.win32_11.7.0.202209140929/tools/bin/../lib/gcc/arm-none-eabi/10.3.1/../../../../arm-none-eabi/lib/thumb/v7e-m+fp/hard\libcr_c.a(fclose.o) (remove)
c:/nxp/mcuxpressoide_11.7.0_9198/ide/plugins/com.nxp.mcuxpresso.tools.win32_11.7.0.202209140929/tools/bin/../lib/gcc/arm-none-eabi/10.3.1/../../../../arm-none-eabi/lib/thumb/v7e-m+fp/hard\libcr_c.a(_cr_check_heap.o)
                              c:/nxp/mcuxpressoide_11.7.0_9198/ide/plugins/com.nxp.mcuxpresso.tools.win32_11.7.0.202209140929/tools/bin/../lib/gcc/arm-none-eabi/10.3.1/../../../../arm-none-eabi/lib/thumb/v7e-m+fp/hard\libcr_c.a(_cr_sbrk.o) (__check_heap_overflow)
c:/nxp/mcuxpressoide_11.7.0_9198/ide/plugins/com.nxp.mcuxpresso.tools.win32_11.7.0.202209140929/tools/bin/../lib/gcc/arm-none-eabi/10.3.1/../../../../arm-none-eabi/lib/thumb/v7e-m+fp/hard\libcr_c.a(_do_fflush.o)
                              c:/nxp/mcuxpressoide_11.7.0_9198/ide/plugins/com.nxp.mcuxpresso.tools.win32_11.7.0.202209140929/tools/bin/../lib/gcc/arm-none-eabi/10.3.1/../../../../arm-none-eabi/lib/thumb/v7e-m+fp/hard\libcr_c.a(fflush.o) (_do_fflush)
c:/nxp/mcuxpressoide_11.7.0_9198/ide/plugins/com.nxp.mcuxpresso.tools.win32_11.7.0.202209140929/tools/bin/../lib/gcc/arm-none-eabi/10.3.1/thumb/v7e-m+fp/hard\libcr_eabihelpers.a(division_64.o)
                              ./device/system_MIMXRT1064.o (__aeabi_ldivmod)
c:/nxp/mcuxpressoide_11.7.0_9198/ide/plugins/com.nxp.mcuxpresso.tools.win32_11.7.0.202209140929/tools/bin/../lib/gcc/arm-none-eabi/10.3.1/thumb/v7e-m+fp/hard\libcr_eabihelpers.a(division_idiv0.o)
                              c:/nxp/mcuxpressoide_11.7.0_9198/ide/plugins/com.nxp.mcuxpresso.tools.win32_11.7.0.202209140929/tools/bin/../lib/gcc/arm-none-eabi/10.3.1/thumb/v7e-m+fp/hard\libcr_eabihelpers.a(division_64.o) (__aeabi_idiv0)
c:/nxp/mcuxpressoide_11.7.0_9198/ide/plugins/com.nxp.mcuxpresso.tools.win32_11.7.0.202209140929/tools/bin/../lib/gcc/arm-none-eabi/10.3.1/thumb/v7e-m+fp/hard\libcr_eabihelpers.a(double.o)
                              ./source/backend_postp.o (__aeabi_dmul)
c:/nxp/mcuxpressoide_11.7.0_9198/ide/plugins/com.nxp.mcuxpresso.tools.win32_11.7.0.202209140929/tools/bin/../lib/gcc/arm-none-eabi/10.3.1/thumb/v7e-m+fp/hard\libcr_eabihelpers.a(memcpy.o)
                              c:/nxp/mcuxpressoide_11.7.0_9198/ide/plugins/com.nxp.mcuxpresso.tools.win32_11.7.0.202209140929/tools/bin/../lib/gcc/arm-none-eabi/10.3.1/../../../../arm-none-eabi/lib/thumb/v7e-m+fp/hard\libcr_c.a(memcpy.o) (__aeabi_memcpy)
c:/nxp/mcuxpressoide_11.7.0_9198/ide/plugins/com.nxp.mcuxpresso.tools.win32_11.7.0.202209140929/tools/bin/../lib/gcc/arm-none-eabi/10.3.1/../../../../arm-none-eabi/lib/thumb/v7e-m+fp/hard\libcr_nohost_nf.a(__ciob.o)
                              c:/nxp/mcuxpressoide_11.7.0_9198/ide/plugins/com.nxp.mcuxpresso.tools.win32_11.7.0.202209140929/tools/bin/../lib/gcc/arm-none-eabi/10.3.1/../../../../arm-none-eabi/lib/thumb/v7e-m+fp/hard\libcr_c.a(initio.o) (__Ciob)
c:/nxp/mcuxpressoide_11.7.0_9198/ide/plugins/com.nxp.mcuxpresso.tools.win32_11.7.0.202209140929/tools/bin/../lib/gcc/arm-none-eabi/10.3.1/../../../../arm-none-eabi/lib/thumb/v7e-m+fp/hard\libcr_nohost_nf.a(__sys_appexit.o)
                              c:/nxp/mcuxpressoide_11.7.0_9198/ide/plugins/com.nxp.mcuxpresso.tools.win32_11.7.0.202209140929/tools/bin/../lib/gcc/arm-none-eabi/10.3.1/../../../../arm-none-eabi/lib/thumb/v7e-m+fp/hard\libcr_c.a(alloc.o) (__sys_appexit)
c:/nxp/mcuxpressoide_11.7.0_9198/ide/plugins/com.nxp.mcuxpresso.tools.win32_11.7.0.202209140929/tools/bin/../lib/gcc/arm-none-eabi/10.3.1/../../../../arm-none-eabi/lib/thumb/v7e-m+fp/hard\libcr_nohost_nf.a(__sys_close.o)
                              c:/nxp/mcuxpressoide_11.7.0_9198/ide/plugins/com.nxp.mcuxpresso.tools.win32_11.7.0.202209140929/tools/bin/../lib/gcc/arm-none-eabi/10.3.1/../../../../arm-none-eabi/lib/thumb/v7e-m+fp/hard\libcr_c.a(fclose.o) (__sys_close)
c:/nxp/mcuxpressoide_11.7.0_9198/ide/plugins/com.nxp.mcuxpresso.tools.win32_11.7.0.202209140929/tools/bin/../lib/gcc/arm-none-eabi/10.3.1/../../../../arm-none-eabi/lib/thumb/v7e-m+fp/hard\libcr_nohost_nf.a(__sys_flen.o)
                              c:/nxp/mcuxpressoide_11.7.0_9198/ide/plugins/com.nxp.mcuxpresso.tools.win32_11.7.0.202209140929/tools/bin/../lib/gcc/arm-none-eabi/10.3.1/../../../../arm-none-eabi/lib/thumb/v7e-m+fp/hard\libcr_c.a(_writebuf.o) (__sys_flen)
c:/nxp/mcuxpressoide_11.7.0_9198/ide/plugins/com.nxp.mcuxpresso.tools.win32_11.7.0.202209140929/tools/bin/../lib/gcc/arm-none-eabi/10.3.1/../../../../arm-none-eabi/lib/thumb/v7e-m+fp/hard\libcr_nohost_nf.a(__sys_istty.o)
                              c:/nxp/mcuxpressoide_11.7.0_9198/ide/plugins/com.nxp.mcuxpresso.tools.win32_11.7.0.202209140929/tools/bin/../lib/gcc/arm-none-eabi/10.3.1/../../../../arm-none-eabi/lib/thumb/v7e-m+fp/hard\libcr_c.a(_deferredlazyseek.o) (__sys_istty)
c:/nxp/mcuxpressoide_11.7.0_9198/ide/plugins/com.nxp.mcuxpresso.tools.win32_11.7.0.202209140929/tools/bin/../lib/gcc/arm-none-eabi/10.3.1/../../../../arm-none-eabi/lib/thumb/v7e-m+fp/hard\libcr_nohost_nf.a(__sys_read.o)
                              c:/nxp/mcuxpressoide_11.7.0_9198/ide/plugins/com.nxp.mcuxpresso.tools.win32_11.7.0.202209140929/tools/bin/../lib/gcc/arm-none-eabi/10.3.1/../../../../arm-none-eabi/lib/thumb/v7e-m+fp/hard\libcr_c.a(__fillbuf.o) (__sys_read)
c:/nxp/mcuxpressoide_11.7.0_9198/ide/plugins/com.nxp.mcuxpresso.tools.win32_11.7.0.202209140929/tools/bin/../lib/gcc/arm-none-eabi/10.3.1/../../../../arm-none-eabi/lib/thumb/v7e-m+fp/hard\libcr_nohost_nf.a(__sys_readc.o)
                              c:/nxp/mcuxpressoide_11.7.0_9198/ide/plugins/com.nxp.mcuxpresso.tools.win32_11.7.0.202209140929/tools/bin/../lib/gcc/arm-none-eabi/10.3.1/../../../../arm-none-eabi/lib/thumb/v7e-m+fp/hard\libcr_c.a(__fillbuf.o) (__sys_readc)
c:/nxp/mcuxpressoide_11.7.0_9198/ide/plugins/com.nxp.mcuxpresso.tools.win32_11.7.0.202209140929/tools/bin/../lib/gcc/arm-none-eabi/10.3.1/../../../../arm-none-eabi/lib/thumb/v7e-m+fp/hard\libcr_nohost_nf.a(__sys_remove.o)
                              c:/nxp/mcuxpressoide_11.7.0_9198/ide/plugins/com.nxp.mcuxpresso.tools.win32_11.7.0.202209140929/tools/bin/../lib/gcc/arm-none-eabi/10.3.1/../../../../arm-none-eabi/lib/thumb/v7e-m+fp/hard\libcr_c.a(remove.o) (__sys_remove)
c:/nxp/mcuxpressoide_11.7.0_9198/ide/plugins/com.nxp.mcuxpresso.tools.win32_11.7.0.202209140929/tools/bin/../lib/gcc/arm-none-eabi/10.3.1/../../../../arm-none-eabi/lib/thumb/v7e-m+fp/hard\libcr_nohost_nf.a(__sys_rename.o)
                              c:/nxp/mcuxpressoide_11.7.0_9198/ide/plugins/com.nxp.mcuxpresso.tools.win32_11.7.0.202209140929/tools/bin/../lib/gcc/arm-none-eabi/10.3.1/../../../../arm-none-eabi/lib/thumb/v7e-m+fp/hard\libcr_c.a(remove.o) (__sys_rename)
c:/nxp/mcuxpressoide_11.7.0_9198/ide/plugins/com.nxp.mcuxpresso.tools.win32_11.7.0.202209140929/tools/bin/../lib/gcc/arm-none-eabi/10.3.1/../../../../arm-none-eabi/lib/thumb/v7e-m+fp/hard\libcr_nohost_nf.a(__sys_seek.o)
                              c:/nxp/mcuxpressoide_11.7.0_9198/ide/plugins/com.nxp.mcuxpresso.tools.win32_11.7.0.202209140929/tools/bin/../lib/gcc/arm-none-eabi/10.3.1/../../../../arm-none-eabi/lib/thumb/v7e-m+fp/hard\libcr_c.a(__fillbuf.o) (__sys_seek)
c:/nxp/mcuxpressoide_11.7.0_9198/ide/plugins/com.nxp.mcuxpresso.tools.win32_11.7.0.202209140929/tools/bin/../lib/gcc/arm-none-eabi/10.3.1/../../../../arm-none-eabi/lib/thumb/v7e-m+fp/hard\libcr_nohost_nf.a(__sys_tmpnam.o)
                              c:/nxp/mcuxpressoide_11.7.0_9198/ide/plugins/com.nxp.mcuxpresso.tools.win32_11.7.0.202209140929/tools/bin/../lib/gcc/arm-none-eabi/10.3.1/../../../../arm-none-eabi/lib/thumb/v7e-m+fp/hard\libcr_c.a(fclose.o) (__sys_tmpnam)
c:/nxp/mcuxpressoide_11.7.0_9198/ide/plugins/com.nxp.mcuxpresso.tools.win32_11.7.0.202209140929/tools/bin/../lib/gcc/arm-none-eabi/10.3.1/../../../../arm-none-eabi/lib/thumb/v7e-m+fp/hard\libcr_nohost_nf.a(__sys_write.o)
                              c:/nxp/mcuxpressoide_11.7.0_9198/ide/plugins/com.nxp.mcuxpresso.tools.win32_11.7.0.202209140929/tools/bin/../lib/gcc/arm-none-eabi/10.3.1/../../../../arm-none-eabi/lib/thumb/v7e-m+fp/hard\libcr_c.a(alloc.o) (__sys_write)

Discarded input sections

 .text          0x00000000        0x0 ./xip/evkmimxrt1064_flexspi_nor_config.o
 .data          0x00000000        0x0 ./xip/evkmimxrt1064_flexspi_nor_config.o
 .bss           0x00000000        0x0 ./xip/evkmimxrt1064_flexspi_nor_config.o
 .text          0x00000000        0x0 ./xip/fsl_flexspi_nor_boot.o
 .data          0x00000000        0x0 ./xip/fsl_flexspi_nor_boot.o
 .bss           0x00000000        0x0 ./xip/fsl_flexspi_nor_boot.o
 .text          0x00000000        0x0 ./utilities/fsl_assert.o
 .data          0x00000000        0x0 ./utilities/fsl_assert.o
 .bss           0x00000000        0x0 ./utilities/fsl_assert.o
 .debug_info    0x00000000       0x6b ./utilities/fsl_assert.o
 .debug_abbrev  0x00000000       0x26 ./utilities/fsl_assert.o
 .debug_aranges
                0x00000000       0x18 ./utilities/fsl_assert.o
 .debug_line    0x00000000       0x1d ./utilities/fsl_assert.o
 .debug_str     0x00000000      0x1b4 ./utilities/fsl_assert.o
 .comment       0x00000000       0x4a ./utilities/fsl_assert.o
 .ARM.attributes
                0x00000000       0x34 ./utilities/fsl_assert.o
 .text          0x00000000        0x0 ./utilities/fsl_debug_console.o
 .data          0x00000000        0x0 ./utilities/fsl_debug_console.o
 .bss           0x00000000        0x0 ./utilities/fsl_debug_console.o
 .text.DbgConsole_PrintCallback
                0x00000000       0x58 ./utilities/fsl_debug_console.o
 .text.DbgConsole_ReadOneCharacter
                0x00000000       0x20 ./utilities/fsl_debug_console.o
 .text.DbgConsole_SendData
                0x00000000       0x20 ./utilities/fsl_debug_console.o
 .text.DbgConsole_SendDataReliable
                0x00000000       0x34 ./utilities/fsl_debug_console.o
 .text.DbgConsole_ReadLine
                0x00000000       0x80 ./utilities/fsl_debug_console.o
 .text.DbgConsole_ReadCharacter
                0x00000000       0x30 ./utilities/fsl_debug_console.o
 .text.DbgConsole_EnterLowpower
                0x00000000       0x18 ./utilities/fsl_debug_console.o
 .text.DbgConsole_ExitLowpower
                0x00000000       0x18 ./utilities/fsl_debug_console.o
 .text.DbgConsole_Deinit
                0x00000000       0x40 ./utilities/fsl_debug_console.o
 .text.DbgConsole_Flush
                0x00000000        0x4 ./utilities/fsl_debug_console.o
 .text.DbgConsole_Printf
                0x00000000       0x64 ./utilities/fsl_debug_console.o
 .text.DbgConsole_Vprintf
                0x00000000       0x5c ./utilities/fsl_debug_console.o
 .text.DbgConsole_Putchar
                0x00000000       0x30 ./utilities/fsl_debug_console.o
 .text.DbgConsole_Scanf
                0x00000000       0x8c ./utilities/fsl_debug_console.o
 .text.DbgConsole_BlockingPrintf
                0x00000000       0x58 ./utilities/fsl_debug_console.o
 .text.DbgConsole_BlockingVprintf
                0x00000000       0x50 ./utilities/fsl_debug_console.o
 .text.DbgConsole_Getchar
                0x00000000       0x44 ./utilities/fsl_debug_console.o
 .text          0x00000000        0x0 ./utilities/fsl_str.o
 .data          0x00000000        0x0 ./utilities/fsl_str.o
 .bss           0x00000000        0x0 ./utilities/fsl_str.o
 .text.StrFormatPrintf
                0x00000000      0x308 ./utilities/fsl_str.o
 .text.StrFormatScanf
                0x00000000      0x340 ./utilities/fsl_str.o
 .debug_info    0x00000000     0x152b ./utilities/fsl_str.o
 .debug_abbrev  0x00000000      0x32f ./utilities/fsl_str.o
 .debug_loc     0x00000000     0x26bd ./utilities/fsl_str.o
 .debug_aranges
                0x00000000       0x28 ./utilities/fsl_str.o
 .debug_ranges  0x00000000      0x360 ./utilities/fsl_str.o
 .debug_line    0x00000000      0xdb4 ./utilities/fsl_str.o
 .debug_str     0x00000000      0x542 ./utilities/fsl_str.o
 .comment       0x00000000       0x4a ./utilities/fsl_str.o
 .debug_frame   0x00000000       0x78 ./utilities/fsl_str.o
 .ARM.attributes
                0x00000000       0x34 ./utilities/fsl_str.o
 .text          0x00000000        0x0 ./usb/phy/usb_phy.o
 .data          0x00000000        0x0 ./usb/phy/usb_phy.o
 .bss           0x00000000        0x0 ./usb/phy/usb_phy.o
 .text.USB_EhciPhyGetBase
                0x00000000       0x48 ./usb/phy/usb_phy.o
 .text.USB_EhciLowPowerPhyInit
                0x00000000       0xa4 ./usb/phy/usb_phy.o
 .text.USB_EhciPhyDeinit
                0x00000000       0x48 ./usb/phy/usb_phy.o
 .text.USB_EhcihostPhyDisconnectDetectCmd
                0x00000000       0x58 ./usb/phy/usb_phy.o
 .text          0x00000000        0x0 ./usb/device/source/ehci/usb_device_ehci.o
 .data          0x00000000        0x0 ./usb/device/source/ehci/usb_device_ehci.o
 .bss           0x00000000        0x0 ./usb/device/source/ehci/usb_device_ehci.o
 .text          0x00000000        0x0 ./usb/device/source/usb_device_ch9.o
 .data          0x00000000        0x0 ./usb/device/source/usb_device_ch9.o
 .bss           0x00000000        0x0 ./usb/device/source/usb_device_ch9.o
 .text          0x00000000        0x0 ./usb/device/source/usb_device_dci.o
 .data          0x00000000        0x0 ./usb/device/source/usb_device_dci.o
 .bss           0x00000000        0x0 ./usb/device/source/usb_device_dci.o
 .text.USB_DeviceStop
                0x00000000       0x18 ./usb/device/source/usb_device_dci.o
 .text.USB_DeviceCancel
                0x00000000       0x14 ./usb/device/source/usb_device_dci.o
 .text.USB_DeviceGetVersion
                0x00000000        0xc ./usb/device/source/usb_device_dci.o
 .text          0x00000000        0x0 ./usb/device/class/hid/usb_device_hid.o
 .data          0x00000000        0x0 ./usb/device/class/hid/usb_device_hid.o
 .bss           0x00000000        0x0 ./usb/device/class/hid/usb_device_hid.o
 .text.USB_DeviceHidDeinit
                0x00000000       0x50 ./usb/device/class/hid/usb_device_hid.o
 .text          0x00000000        0x0 ./usb/device/class/cdc/usb_device_cdc_acm.o
 .data          0x00000000        0x0 ./usb/device/class/cdc/usb_device_cdc_acm.o
 .bss           0x00000000        0x0 ./usb/device/class/cdc/usb_device_cdc_acm.o
 .debug_info    0x00000000       0x79 ./usb/device/class/cdc/usb_device_cdc_acm.o
 .debug_abbrev  0x00000000       0x26 ./usb/device/class/cdc/usb_device_cdc_acm.o
 .debug_aranges
                0x00000000       0x18 ./usb/device/class/cdc/usb_device_cdc_acm.o
 .debug_line    0x00000000       0x1d ./usb/device/class/cdc/usb_device_cdc_acm.o
 .debug_str     0x00000000      0x1df ./usb/device/class/cdc/usb_device_cdc_acm.o
 .comment       0x00000000       0x4a ./usb/device/class/cdc/usb_device_cdc_acm.o
 .ARM.attributes
                0x00000000       0x34 ./usb/device/class/cdc/usb_device_cdc_acm.o
 .text          0x00000000        0x0 ./usb/device/class/usb_device_class.o
 .data          0x00000000        0x0 ./usb/device/class/usb_device_class.o
 .bss           0x00000000        0x0 ./usb/device/class/usb_device_class.o
 .text.USB_DeviceClassDeinit
                0x00000000       0xb4 ./usb/device/class/usb_device_class.o
 .text          0x00000000        0x0 ./startup/startup_mimxrt1064.o
 .data          0x00000000        0x0 ./startup/startup_mimxrt1064.o
 .bss           0x00000000        0x0 ./startup/startup_mimxrt1064.o
 .after_vectors.init_data
                0x00000000       0x6c ./startup/startup_mimxrt1064.o
 .after_vectors.init_bss
                0x00000000       0xa0 ./startup/startup_mimxrt1064.o
 .text.WDOG1_IRQHandler
                0x00000000        0x8 ./startup/startup_mimxrt1064.o
 .text.USB_OTG2_IRQHandler
                0x00000000        0x8 ./startup/startup_mimxrt1064.o
 .text.USB_OTG1_IRQHandler
                0x00000000        0x8 ./startup/startup_mimxrt1064.o
 .text          0x00000000        0x0 ./source/CTSI_0650_NXP_scan_table.o
 .data          0x00000000        0x0 ./source/CTSI_0650_NXP_scan_table.o
 .bss           0x00000000        0x0 ./source/CTSI_0650_NXP_scan_table.o
 .debug_line    0x00000000        0x0 ./source/CTSI_0650_NXP_scan_table.o
 .debug_str     0x00000000      0x140 ./source/CTSI_0650_NXP_scan_table.o
 .comment       0x00000000       0x4a ./source/CTSI_0650_NXP_scan_table.o
 .ARM.attributes
                0x00000000       0x34 ./source/CTSI_0650_NXP_scan_table.o
 .text          0x00000000        0x0 ./source/Scan.o
 .data          0x00000000        0x0 ./source/Scan.o
 .bss           0x00000000        0x0 ./source/Scan.o
 .text.selectPDGroupExt
                0x00000000      0xf70 ./source/Scan.o
 .text.storeAnOutAdcResult
                0x00000000       0x7c ./source/Scan.o
 .text.averageNonBlockLevel
                0x00000000        0x8 ./source/Scan.o
 .text.isInSideArea
                0x00000000       0x30 ./source/Scan.o
 .text.software_reset
                0x00000000       0x24 ./source/Scan.o
 .text.setProcessExtLightTimerMsec
                0x00000000       0x24 ./source/Scan.o
 .text.clearProcessExtLightTimer
                0x00000000       0x14 ./source/Scan.o
 .text.isProcessExtLightTimerExpired
                0x00000000       0x24 ./source/Scan.o
 .text.setAgcControlTimerMsec
                0x00000000       0x24 ./source/Scan.o
 .text.clearAgcControlTimer
                0x00000000       0x14 ./source/Scan.o
 .text.isAgcControlTimerExpired
                0x00000000       0x24 ./source/Scan.o
 .text.setDelayScanTimer10Msec
                0x00000000       0x24 ./source/Scan.o
 .text.clearDelayScanTimer
                0x00000000       0x14 ./source/Scan.o
 .text.isDelayScanTimerExpired
                0x00000000       0x24 ./source/Scan.o
 .text.setPDDelayTimerUsec
                0x00000000       0x34 ./source/Scan.o
 .text.set_DelayTimerUsec
                0x00000000       0x34 ./source/Scan.o
 .text.clearPDDelayTimer
                0x00000000       0x14 ./source/Scan.o
 .text.isPDDelayTimerExpired
                0x00000000       0x24 ./source/Scan.o
 .text.isDelayTimerExpired
                0x00000000       0x24 ./source/Scan.o
 .text.Timer_Delay_us
                0x00000000       0x38 ./source/Scan.o
 .text.checkExtLightNoise
                0x00000000     0x1998 ./source/Scan.o
 .text.compensateExtLightNoise
                0x00000000       0x88 ./source/Scan.o
 .text.processExtLightNoise
                0x00000000      0xbe0 ./source/Scan.o
 .text.Led_CurrentTbl_Adj_DAC
                0x00000000       0x14 ./source/Scan.o
 .text.controlLEDLightIntensityWithTryCnt
                0x00000000      0x3f4 ./source/Scan.o
 .text.LED_Auto_Gain_ControlWithTryCnt
                0x00000000       0x18 ./source/Scan.o
 .text.setThresholdDataAxis
                0x00000000      0x3c4 ./source/Scan.o
 .text.Calibration_Process
                0x00000000       0x14 ./source/Scan.o
 .text.scanYAxisAuto
                0x00000000       0x38 ./source/Scan.o
 .text.scanXAxisAuto
                0x00000000       0x38 ./source/Scan.o
 .bss.anOutAdcResult
                0x00000000        0xc ./source/Scan.o
 .bss.coreTimer_diff
                0x00000000        0x4 ./source/Scan.o
 .bss.coreTimer_start_cnt
                0x00000000        0x4 ./source/Scan.o
 .bss.coreTimer_timeout
                0x00000000        0x4 ./source/Scan.o
 .bss.endDelayscanTimer
                0x00000000        0x4 ./source/Scan.o
 .bss.endPdDelayTimer
                0x00000000        0x4 ./source/Scan.o
 .bss.endProcessExtLightTimer
                0x00000000        0x4 ./source/Scan.o
 .bss.fixedCurrentEnable
                0x00000000        0x1 ./source/Scan.o
 .bss.receivedCmdCnt
                0x00000000        0x4 ./source/Scan.o
 .bss.startDelayscanTimer
                0x00000000        0x4 ./source/Scan.o
 .bss.startPdDelayTimer
                0x00000000        0x4 ./source/Scan.o
 .bss.startProcessExtLightTimer
                0x00000000        0x4 ./source/Scan.o
 .rodata.X_LedNumOfBd
                0x00000000        0x4 ./source/Scan.o
 .rodata.X_StartLedIndexOfBd
                0x00000000        0x4 ./source/Scan.o
 .rodata.Y_LedNumOfBd
                0x00000000        0x3 ./source/Scan.o
 .rodata.Y_StartLedIndexOfBd
                0x00000000        0x3 ./source/Scan.o
 .text          0x00000000        0x0 ./source/adc.o
 .data          0x00000000        0x0 ./source/adc.o
 .bss           0x00000000        0x0 ./source/adc.o
 .text.ADC_SamplesRead
                0x00000000       0x48 ./source/adc.o
 .text.ADC_Conversion_State_Flag
                0x00000000       0x1c ./source/adc.o
 .bss.adc_buff.0
                0x00000000        0x2 ./source/adc.o
 .text          0x00000000        0x0 ./source/aes.o
 .data          0x00000000        0x0 ./source/aes.o
 .bss           0x00000000        0x0 ./source/aes.o
 .text.KeyExpansion
                0x00000000       0xd4 ./source/aes.o
 .text.Cipher   0x00000000      0x6d0 ./source/aes.o
 .text.InvCipher
                0x00000000      0x624 ./source/aes.o
 .text.AES_init_ctx
                0x00000000        0x4 ./source/aes.o
 .text.AES_ECB_encrypt
                0x00000000       0x28 ./source/aes.o
 .text.AES_ECB_decrypt
                0x00000000       0x28 ./source/aes.o
 .text.encrypt_key_copy
                0x00000000       0x2c ./source/aes.o
 .text.encrypt_ecb
                0x00000000       0x5c ./source/aes.o
 .text.decrypt_ecb
                0x00000000       0x5c ./source/aes.o
 .bss.cipherAes128
                0x00000000       0xa0 ./source/aes.o
 .bss.ctx       0x00000000       0xb0 ./source/aes.o
 .bss.myKey     0x00000000       0xb0 ./source/aes.o
 .bss.plainAes128
                0x00000000       0xa0 ./source/aes.o
 .rodata.Rcon   0x00000000        0xb ./source/aes.o
 .rodata.rsbox  0x00000000      0x100 ./source/aes.o
 .rodata.sbox   0x00000000      0x100 ./source/aes.o
 .debug_info    0x00000000     0x1331 ./source/aes.o
 .debug_abbrev  0x00000000      0x34f ./source/aes.o
 .debug_loc     0x00000000     0x25eb ./source/aes.o
 .debug_aranges
                0x00000000       0x60 ./source/aes.o
 .debug_ranges  0x00000000      0x7a0 ./source/aes.o
 .debug_line    0x00000000     0x196c ./source/aes.o
 .debug_str     0x00000000      0xd12 ./source/aes.o
 .comment       0x00000000       0x4a ./source/aes.o
 .debug_frame   0x00000000      0x154 ./source/aes.o
 .ARM.attributes
                0x00000000       0x34 ./source/aes.o
 .text          0x00000000        0x0 ./source/app.o
 .data          0x00000000        0x0 ./source/app.o
 .bss           0x00000000        0x0 ./source/app.o
 .text.USB_CalculateCrc
                0x00000000       0x44 ./source/app.o
 .text.MY_WDOG_system_reset_reason
                0x00000000        0xc ./source/app.o
 .text.MY_WDOG_soft_reset
                0x00000000       0x14 ./source/app.o
 .text.MY_delay
                0x00000000       0x2c ./source/app.o
 .text.delay_test
                0x00000000       0x60 ./source/app.o
 .text.backend_process_ofst_data_debug_print
                0x00000000        0x4 ./source/app.o
 .text.s_get_time_diff
                0x00000000       0x24 ./source/app.o
 .text.s_wheel_get_time_diff
                0x00000000       0x24 ./source/app.o
 .text.s_Send_get_time_diff
                0x00000000       0x24 ./source/app.o
 .text.s_belib_time_diff
                0x00000000       0x24 ./source/app.o
 .text.s_set_fagc_time
                0x00000000       0x14 ./source/app.o
 .text.s_is_expired_fagc_time
                0x00000000       0x28 ./source/app.o
 .text.DoSoftReset
                0x00000000        0xc ./source/app.o
 .text.APP_Init
                0x00000000       0x34 ./source/app.o
 .text.DWT_Init
                0x00000000       0x28 ./source/app.o
 .text.test_mode_func
                0x00000000      0x264 ./source/app.o
 .bss.$RAM2     0x00000000       0x18 ./source/app.o
 .bss.Digitizer_Send_time
                0x00000000        0x4 ./source/app.o
 .bss.DltParam  0x00000000        0x8 ./source/app.o
 .bss.LineThresholdValue
                0x00000000        0x1 ./source/app.o
 .bss.diff      0x00000000        0x4 ./source/app.o
 .bss.diff_2    0x00000000        0x4 ./source/app.o
 .bss.gpt_config
                0x00000000       0x10 ./source/app.o
 .bss.s_prevTime3
                0x00000000        0x4 ./source/app.o
 .bss.verReadFlag
                0x00000000        0x1 ./source/app.o
 .bss.wheel_Send_time
                0x00000000        0x4 ./source/app.o
 .text          0x00000000        0x0 ./source/backend_postp.o
 .data          0x00000000        0x0 ./source/backend_postp.o
 .bss           0x00000000        0x0 ./source/backend_postp.o
 .text.tp_delay
                0x00000000       0x2c ./source/backend_postp.o
 .text.tracking_getDistanceSquare
                0x00000000       0x44 ./source/backend_postp.o
 .text.IsSide   0x00000000       0xf0 ./source/backend_postp.o
 .text.IsEdge   0x00000000       0xa0 ./source/backend_postp.o
 .text.GetSlope
                0x00000000       0x10 ./source/backend_postp.o
 .text.GetYIntercept
                0x00000000       0x18 ./source/backend_postp.o
 .text.GetTHD   0x00000000       0xc0 ./source/backend_postp.o
 .text.init_pos_info
                0x00000000       0x1c ./source/backend_postp.o
 .text.s_smooth_filter_brush
                0x00000000      0x138 ./source/backend_postp.o
 .text.s_smooth_filter_brush_2nd
                0x00000000       0x30 ./source/backend_postp.o
 .text.s_coordinates_conversion_brush
                0x00000000      0x70c ./source/backend_postp.o
 .bss.s_OutFilter_Brush_Size
                0x00000000        0x4 ./source/backend_postp.o
 .text          0x00000000        0x0 ./source/bezier.o
 .data          0x00000000        0x0 ./source/bezier.o
 .bss           0x00000000        0x0 ./source/bezier.o
 .text.beizerCurvedFilterAnalysis
                0x00000000       0x14 ./source/bezier.o
 .text          0x00000000        0x0 ./source/composite.o
 .data          0x00000000        0x0 ./source/composite.o
 .bss           0x00000000        0x0 ./source/composite.o
 .text.USB_DeviceIsrEnable
                0x00000000       0x14 ./source/composite.o
 .text.USB_DeviceIsrDisable
                0x00000000       0x18 ./source/composite.o
 .text.USB_delay
                0x00000000       0x28 ./source/composite.o
 .text          0x00000000        0x0 ./source/delay.o
 .data          0x00000000        0x0 ./source/delay.o
 .bss           0x00000000        0x0 ./source/delay.o
 .text.Ctrl_Delay
                0x00000000       0x20 ./source/delay.o
 .text.LED_On_Delay
                0x00000000       0x24 ./source/delay.o
 .debug_info    0x00000000      0x117 ./source/delay.o
 .debug_abbrev  0x00000000       0xac ./source/delay.o
 .debug_loc     0x00000000       0x47 ./source/delay.o
 .debug_aranges
                0x00000000       0x28 ./source/delay.o
 .debug_ranges  0x00000000       0x18 ./source/delay.o
 .debug_line    0x00000000      0x164 ./source/delay.o
 .debug_str     0x00000000      0x1fa ./source/delay.o
 .comment       0x00000000       0x4a ./source/delay.o
 .debug_frame   0x00000000       0x40 ./source/delay.o
 .ARM.attributes
                0x00000000       0x34 ./source/delay.o
 .text          0x00000000        0x0 ./source/dlt.o
 .data          0x00000000        0x0 ./source/dlt.o
 .bss           0x00000000        0x0 ./source/dlt.o
 .text.get_fw_version
                0x00000000       0x50 ./source/dlt.o
 .text.get_slope_size
                0x00000000       0x14 ./source/dlt.o
 .text.Send_ExbBit_Data_to_USBCPU_size
                0x00000000       0x18 ./source/dlt.o
 .text.getLedOnTime
                0x00000000       0x8c ./source/dlt.o
 .text.getLedCurrentIdx
                0x00000000       0x84 ./source/dlt.o
 .text.dltInit  0x00000000       0x1c ./source/dlt.o
 .text.dltRxProcess
                0x00000000       0xa0 ./source/dlt.o
 .bss.DLT_scan  0x00000000       0x10 ./source/dlt.o
 .bss.slope_byte_x
                0x00000000        0x4 ./source/dlt.o
 .bss.slope_byte_y
                0x00000000        0x4 ./source/dlt.o
 .text          0x00000000        0x0 ./source/gpio.o
 .data          0x00000000        0x0 ./source/gpio.o
 .bss           0x00000000        0x0 ./source/gpio.o
 .text.Scan_GPIO_PortSet
                0x00000000       0x14 ./source/gpio.o
 .debug_info    0x00000000      0x1b7 ./source/gpio.o
 .debug_abbrev  0x00000000       0xf7 ./source/gpio.o
 .debug_loc     0x00000000       0x4a ./source/gpio.o
 .debug_aranges
                0x00000000       0x20 ./source/gpio.o
 .debug_ranges  0x00000000       0x10 ./source/gpio.o
 .debug_line    0x00000000      0x12b ./source/gpio.o
 .debug_str     0x00000000      0x21f ./source/gpio.o
 .comment       0x00000000       0x4a ./source/gpio.o
 .debug_frame   0x00000000       0x2c ./source/gpio.o
 .ARM.attributes
                0x00000000       0x34 ./source/gpio.o
 .text          0x00000000        0x0 ./source/gpt.o
 .data          0x00000000        0x0 ./source/gpt.o
 .bss           0x00000000        0x0 ./source/gpt.o
 .text.GPT_2_GPT_IRQHANDLER
                0x00000000       0x18 ./source/gpt.o
 .text.GPT1_Time_Var_Init
                0x00000000       0x2c ./source/gpt.o
 .text.DEBUG_delay
                0x00000000       0x2c ./source/gpt.o
 .text.Scan_Start_Time
                0x00000000       0x14 ./source/gpt.o
 .text.Scan_Wait_Time
                0x00000000       0x4c ./source/gpt.o
 .bss.gptIsrFlag
                0x00000000        0x1 ./source/gpt.o
 .bss.rrrr      0x00000000        0x4 ./source/gpt.o
 .bss.s_prevTime
                0x00000000        0x4 ./source/gpt.o
 .bss.s_prevTime2
                0x00000000        0x4 ./source/gpt.o
 .bss.scan_ctrl_time
                0x00000000        0x4 ./source/gpt.o
 .bss.start_scan_ctrl_time
                0x00000000        0x4 ./source/gpt.o
 .bss.tttt      0x00000000        0x4 ./source/gpt.o
 .debug_info    0x00000000      0x6cf ./source/gpt.o
 .debug_abbrev  0x00000000      0x23a ./source/gpt.o
 .debug_loc     0x00000000       0xb1 ./source/gpt.o
 .debug_aranges
                0x00000000       0x40 ./source/gpt.o
 .debug_ranges  0x00000000       0x80 ./source/gpt.o
 .debug_line    0x00000000      0x380 ./source/gpt.o
 .debug_str     0x00000000      0xd71 ./source/gpt.o
 .comment       0x00000000       0x4a ./source/gpt.o
 .debug_frame   0x00000000       0x90 ./source/gpt.o
 .ARM.attributes
                0x00000000       0x34 ./source/gpt.o
 .text          0x00000000        0x0 ./source/hid_generic.o
 .data          0x00000000        0x0 ./source/hid_generic.o
 .bss           0x00000000        0x0 ./source/hid_generic.o
 .text          0x00000000        0x0 ./source/hid_mouse.o
 .data          0x00000000        0x0 ./source/hid_mouse.o
 .bss           0x00000000        0x0 ./source/hid_mouse.o
 .text          0x00000000        0x0 ./source/pitch_table.o
 .data          0x00000000        0x0 ./source/pitch_table.o
 .bss           0x00000000        0x0 ./source/pitch_table.o
 .text          0x00000000        0x0 ./source/scan_table.o
 .data          0x00000000        0x0 ./source/scan_table.o
 .bss           0x00000000        0x0 ./source/scan_table.o
 .text          0x00000000        0x0 ./source/semihost_hardfault.o
 .data          0x00000000        0x0 ./source/semihost_hardfault.o
 .bss           0x00000000        0x0 ./source/semihost_hardfault.o
 .text          0x00000000        0x0 ./source/speed_test_float.o
 .data          0x00000000        0x0 ./source/speed_test_float.o
 .bss           0x00000000        0x0 ./source/speed_test_float.o
 .debug_info    0x00000000       0x72 ./source/speed_test_float.o
 .debug_abbrev  0x00000000       0x26 ./source/speed_test_float.o
 .debug_aranges
                0x00000000       0x18 ./source/speed_test_float.o
 .debug_line    0x00000000       0x1d ./source/speed_test_float.o
 .debug_str     0x00000000      0x1bd ./source/speed_test_float.o
 .comment       0x00000000       0x4a ./source/speed_test_float.o
 .ARM.attributes
                0x00000000       0x34 ./source/speed_test_float.o
 .text          0x00000000        0x0 ./source/uartCommand.o
 .data          0x00000000        0x0 ./source/uartCommand.o
 .bss           0x00000000        0x0 ./source/uartCommand.o
 .debug_info    0x00000000       0x80 ./source/uartCommand.o
 .debug_abbrev  0x00000000       0x26 ./source/uartCommand.o
 .debug_aranges
                0x00000000       0x18 ./source/uartCommand.o
 .debug_line    0x00000000       0x1d ./source/uartCommand.o
 .debug_str     0x00000000      0x1cf ./source/uartCommand.o
 .comment       0x00000000       0x4a ./source/uartCommand.o
 .ARM.attributes
                0x00000000       0x34 ./source/uartCommand.o
 .text          0x00000000        0x0 ./source/usb_device_descriptor.o
 .data          0x00000000        0x0 ./source/usb_device_descriptor.o
 .bss           0x00000000        0x0 ./source/usb_device_descriptor.o
 .text          0x00000000        0x0 ./source/virtual_com.o
 .data          0x00000000        0x0 ./source/virtual_com.o
 .bss           0x00000000        0x0 ./source/virtual_com.o
 .debug_info    0x00000000       0x72 ./source/virtual_com.o
 .debug_abbrev  0x00000000       0x26 ./source/virtual_com.o
 .debug_aranges
                0x00000000       0x18 ./source/virtual_com.o
 .debug_line    0x00000000       0x1d ./source/virtual_com.o
 .debug_str     0x00000000      0x1b8 ./source/virtual_com.o
 .comment       0x00000000       0x4a ./source/virtual_com.o
 .ARM.attributes
                0x00000000       0x34 ./source/virtual_com.o
 .text          0x00000000        0x0 ./drivers/fsl_adc.o
 .data          0x00000000        0x0 ./drivers/fsl_adc.o
 .bss           0x00000000        0x0 ./drivers/fsl_adc.o
 .text.ADC_Deinit
                0x00000000       0x54 ./drivers/fsl_adc.o
 .text.ADC_GetDefaultConfig
                0x00000000       0x24 ./drivers/fsl_adc.o
 .text.ADC_SetOffsetConfig
                0x00000000       0x14 ./drivers/fsl_adc.o
 .text.ADC_SetHardwareCompareConfig
                0x00000000       0x4c ./drivers/fsl_adc.o
 .text.ADC_SetHardwareAverageConfig
                0x00000000       0x28 ./drivers/fsl_adc.o
 .text.ADC_ClearStatusFlags
                0x00000000       0x28 ./drivers/fsl_adc.o
 .text          0x00000000        0x0 ./drivers/fsl_clock.o
 .data          0x00000000        0x0 ./drivers/fsl_clock.o
 .bss           0x00000000        0x0 ./drivers/fsl_clock.o
 .text.CLOCK_GetPeriphClkFreq
                0x00000000      0x28c ./drivers/fsl_clock.o
 .text.CLOCK_DeinitExternalClk
                0x00000000       0x10 ./drivers/fsl_clock.o
 .text.CLOCK_DeinitRcOsc24M
                0x00000000       0x14 ./drivers/fsl_clock.o
 .text.CLOCK_GetAhbFreq
                0x00000000      0x290 ./drivers/fsl_clock.o
 .text.CLOCK_GetSemcFreq
                0x00000000       0xf0 ./drivers/fsl_clock.o
 .text.CLOCK_GetIpgFreq
                0x00000000      0x2a4 ./drivers/fsl_clock.o
 .text.CLOCK_GetPerClkFreq
                0x00000000       0x5c ./drivers/fsl_clock.o
 .text.CLOCK_EnableUsbhs1Clock
                0x00000000       0x58 ./drivers/fsl_clock.o
 .text.CLOCK_DisableUsbhs0PhyPllClock
                0x00000000       0x20 ./drivers/fsl_clock.o
 .text.CLOCK_DeinitArmPll
                0x00000000       0x10 ./drivers/fsl_clock.o
 .text.CLOCK_DeinitSysPll
                0x00000000       0x10 ./drivers/fsl_clock.o
 .text.CLOCK_InitUsb1Pll
                0x00000000       0x4c ./drivers/fsl_clock.o
 .text.CLOCK_DeinitUsb1Pll
                0x00000000        0xc ./drivers/fsl_clock.o
 .text.CLOCK_InitUsb2Pll
                0x00000000       0x4c ./drivers/fsl_clock.o
 .text.CLOCK_InitAudioPll
                0x00000000       0xb4 ./drivers/fsl_clock.o
 .text.CLOCK_InitVideoPll
                0x00000000       0xc0 ./drivers/fsl_clock.o
 .text.CLOCK_DeinitVideoPll
                0x00000000       0x10 ./drivers/fsl_clock.o
 .text.CLOCK_InitEnetPll
                0x00000000       0x74 ./drivers/fsl_clock.o
 .text.CLOCK_GetFreq
                0x00000000      0x7bc ./drivers/fsl_clock.o
 .text.CLOCK_GetClockRootFreq
                0x00000000       0x80 ./drivers/fsl_clock.o
 .text.CLOCK_DeinitSysPfd
                0x00000000       0x18 ./drivers/fsl_clock.o
 .text.CLOCK_IsSysPfdEnabled
                0x00000000       0x1c ./drivers/fsl_clock.o
 .text.CLOCK_InitUsb1Pfd
                0x00000000       0x34 ./drivers/fsl_clock.o
 .text.CLOCK_DeinitUsb1Pfd
                0x00000000       0x18 ./drivers/fsl_clock.o
 .text.CLOCK_IsUsb1PfdEnabled
                0x00000000       0x1c ./drivers/fsl_clock.o
 .text.CLOCK_GetSysPfdFreq
                0x00000000       0xd0 ./drivers/fsl_clock.o
 .text.CLOCK_GetUsb1PfdFreq
                0x00000000       0xb4 ./drivers/fsl_clock.o
 .text.CLOCK_EnableUsbhs1PhyPllClock
                0x00000000       0x5c ./drivers/fsl_clock.o
 .text.CLOCK_DisableUsbhs1PhyPllClock
                0x00000000       0x20 ./drivers/fsl_clock.o
 .text.CLOCK_SetClockOutput1
                0x00000000       0x34 ./drivers/fsl_clock.o
 .text.CLOCK_SetClockOutput2
                0x00000000       0x34 ./drivers/fsl_clock.o
 .text.CLOCK_GetClockOutCLKO1Freq
                0x00000000      0x1f8 ./drivers/fsl_clock.o
 .text.CLOCK_GetClockOutClkO2Freq
                0x00000000      0x138 ./drivers/fsl_clock.o
 .rodata.clockRootDivTupleArray.4
                0x00000000       0x88 ./drivers/fsl_clock.o
 .rodata.clockRootMuxTupleArray.5
                0x00000000       0x44 ./drivers/fsl_clock.o
 .rodata.clockRootSourceArray.3
                0x00000000       0x66 ./drivers/fsl_clock.o
 .text          0x00000000        0x0 ./drivers/fsl_common.o
 .data          0x00000000        0x0 ./drivers/fsl_common.o
 .bss           0x00000000        0x0 ./drivers/fsl_common.o
 .text.SDK_Malloc
                0x00000000       0x40 ./drivers/fsl_common.o
 .text.SDK_Free
                0x00000000       0x18 ./drivers/fsl_common.o
 .debug_info    0x00000000      0x242 ./drivers/fsl_common.o
 .debug_abbrev  0x00000000      0x148 ./drivers/fsl_common.o
 .debug_loc     0x00000000      0x192 ./drivers/fsl_common.o
 .debug_aranges
                0x00000000       0x28 ./drivers/fsl_common.o
 .debug_ranges  0x00000000       0x18 ./drivers/fsl_common.o
 .debug_line    0x00000000      0x210 ./drivers/fsl_common.o
 .debug_str     0x00000000      0x288 ./drivers/fsl_common.o
 .comment       0x00000000       0x4a ./drivers/fsl_common.o
 .debug_frame   0x00000000       0x3c ./drivers/fsl_common.o
 .ARM.attributes
                0x00000000       0x34 ./drivers/fsl_common.o
 .text          0x00000000        0x0 ./drivers/fsl_common_arm.o
 .data          0x00000000        0x0 ./drivers/fsl_common_arm.o
 .bss           0x00000000        0x0 ./drivers/fsl_common_arm.o
 .text.MSDK_EnableCpuCycleCounter
                0x00000000       0x30 ./drivers/fsl_common_arm.o
 .text.MSDK_GetCpuCycleCount
                0x00000000        0xc ./drivers/fsl_common_arm.o
 .text.SDK_DelayAtLeastUs
                0x00000000       0x24 ./drivers/fsl_common_arm.o
 .debug_info    0x00000000      0x357 ./drivers/fsl_common_arm.o
 .debug_abbrev  0x00000000      0x187 ./drivers/fsl_common_arm.o
 .debug_loc     0x00000000      0x13a ./drivers/fsl_common_arm.o
 .debug_aranges
                0x00000000       0x30 ./drivers/fsl_common_arm.o
 .debug_ranges  0x00000000       0x38 ./drivers/fsl_common_arm.o
 .debug_line    0x00000000      0x1ae ./drivers/fsl_common_arm.o
 .debug_str     0x00000000      0x32e ./drivers/fsl_common_arm.o
 .comment       0x00000000       0x4a ./drivers/fsl_common_arm.o
 .debug_frame   0x00000000       0x4c ./drivers/fsl_common_arm.o
 .ARM.attributes
                0x00000000       0x34 ./drivers/fsl_common_arm.o
 .text          0x00000000        0x0 ./drivers/fsl_gpio.o
 .data          0x00000000        0x0 ./drivers/fsl_gpio.o
 .bss           0x00000000        0x0 ./drivers/fsl_gpio.o
 .text.GPIO_PinWrite
                0x00000000       0x14 ./drivers/fsl_gpio.o
 .text          0x00000000        0x0 ./drivers/fsl_gpt.o
 .data          0x00000000        0x0 ./drivers/fsl_gpt.o
 .bss           0x00000000        0x0 ./drivers/fsl_gpt.o
 .text.GPT_Deinit
                0x00000000       0x40 ./drivers/fsl_gpt.o
 .text.GPT_GetDefaultConfig
                0x00000000       0x24 ./drivers/fsl_gpt.o
 .text          0x00000000        0x0 ./drivers/fsl_lpuart.o
 .data          0x00000000        0x0 ./drivers/fsl_lpuart.o
 .bss           0x00000000        0x0 ./drivers/fsl_lpuart.o
 .text.LPUART_TransferHandleIRQ
                0x00000000      0x450 ./drivers/fsl_lpuart.o
 .text.LPUART_GetInstance
                0x00000000       0x68 ./drivers/fsl_lpuart.o
 .text.LPUART_TransferGetRxRingBufferLength
                0x00000000       0x14 ./drivers/fsl_lpuart.o
 .text.LPUART_Deinit
                0x00000000       0xc0 ./drivers/fsl_lpuart.o
 .text.LPUART_SetBaudRate
                0x00000000       0xcc ./drivers/fsl_lpuart.o
 .text.LPUART_Enable9bitMode
                0x00000000       0x28 ./drivers/fsl_lpuart.o
 .text.LPUART_SendAddress
                0x00000000       0x14 ./drivers/fsl_lpuart.o
 .text.LPUART_EnableInterrupts
                0x00000000       0x30 ./drivers/fsl_lpuart.o
 .text.LPUART_DisableInterrupts
                0x00000000       0x38 ./drivers/fsl_lpuart.o
 .text.LPUART_GetEnabledInterrupts
                0x00000000       0x34 ./drivers/fsl_lpuart.o
 .text.LPUART_GetStatusFlags
                0x00000000       0x18 ./drivers/fsl_lpuart.o
 .text.LPUART_ClearStatusFlags
                0x00000000       0x48 ./drivers/fsl_lpuart.o
 .text.LPUART_WriteBlocking
                0x00000000       0x20 ./drivers/fsl_lpuart.o
 .text.LPUART_ReadBlocking
                0x00000000       0xfc ./drivers/fsl_lpuart.o
 .text.LPUART_TransferCreateHandle
                0x00000000       0xec ./drivers/fsl_lpuart.o
 .text.LPUART_TransferStartRingBuffer
                0x00000000       0x24 ./drivers/fsl_lpuart.o
 .text.LPUART_TransferStopRingBuffer
                0x00000000       0x28 ./drivers/fsl_lpuart.o
 .text.LPUART_TransferSendNonBlocking
                0x00000000       0x3c ./drivers/fsl_lpuart.o
 .text.LPUART_TransferAbortSend
                0x00000000       0x1c ./drivers/fsl_lpuart.o
 .text.LPUART_TransferGetSendCount
                0x00000000       0x24 ./drivers/fsl_lpuart.o
 .text.LPUART_TransferReceiveNonBlocking
                0x00000000      0x104 ./drivers/fsl_lpuart.o
 .text.LPUART_TransferAbortReceive
                0x00000000       0x24 ./drivers/fsl_lpuart.o
 .text.LPUART_TransferGetReceiveCount
                0x00000000       0x24 ./drivers/fsl_lpuart.o
 .text.LPUART_TransferHandleErrorIRQ
                0x00000000        0x4 ./drivers/fsl_lpuart.o
 .rodata.s_lpuartIRQ
                0x00000000       0x12 ./drivers/fsl_lpuart.o
 .text          0x00000000        0x0 ./drivers/fsl_qtmr.o
 .data          0x00000000        0x0 ./drivers/fsl_qtmr.o
 .bss           0x00000000        0x0 ./drivers/fsl_qtmr.o
 .text.QTMR_Deinit
                0x00000000       0x78 ./drivers/fsl_qtmr.o
 .text.QTMR_GetDefaultConfig
                0x00000000       0x1c ./drivers/fsl_qtmr.o
 .text.QTMR_SetupInputCapture
                0x00000000       0x64 ./drivers/fsl_qtmr.o
 .text.QTMR_EnableInterrupts
                0x00000000       0x5c ./drivers/fsl_qtmr.o
 .text.QTMR_DisableInterrupts
                0x00000000       0x50 ./drivers/fsl_qtmr.o
 .text.QTMR_GetEnabledInterrupts
                0x00000000       0x3c ./drivers/fsl_qtmr.o
 .text.QTMR_GetStatus
                0x00000000       0x3c ./drivers/fsl_qtmr.o
 .text.QTMR_ClearStatusFlags
                0x00000000       0x4c ./drivers/fsl_qtmr.o
 .text.QTMR_SetTimerPeriod
                0x00000000       0x38 ./drivers/fsl_qtmr.o
 .text.QTMR_SetCompareValue
                0x00000000       0x24 ./drivers/fsl_qtmr.o
 .text.QTMR_EnableDma
                0x00000000       0x44 ./drivers/fsl_qtmr.o
 .text.QTMR_DisableDma
                0x00000000       0x30 ./drivers/fsl_qtmr.o
 .text.QTMR_SetPwmOutputToIdle
                0x00000000       0x50 ./drivers/fsl_qtmr.o
 .text.QTMR_GetPwmChannelStatus
                0x00000000        0xc ./drivers/fsl_qtmr.o
 .text.QTMR_SetPwmClockMode
                0x00000000       0x20 ./drivers/fsl_qtmr.o
 .text          0x00000000        0x0 ./drivers/fsl_wdog.o
 .data          0x00000000        0x0 ./drivers/fsl_wdog.o
 .bss           0x00000000        0x0 ./drivers/fsl_wdog.o
 .text.WDOG_Deinit
                0x00000000       0x14 ./drivers/fsl_wdog.o
 .text          0x00000000        0x0 ./drivers/fsl_xbara.o
 .data          0x00000000        0x0 ./drivers/fsl_xbara.o
 .bss           0x00000000        0x0 ./drivers/fsl_xbara.o
 .text.XBARA_Init
                0x00000000       0x3c ./drivers/fsl_xbara.o
 .text.XBARA_Deinit
                0x00000000       0x40 ./drivers/fsl_xbara.o
 .text.XBARA_GetStatusFlags
                0x00000000       0x1c ./drivers/fsl_xbara.o
 .text.XBARA_ClearStatusFlags
                0x00000000       0x38 ./drivers/fsl_xbara.o
 .text.XBARA_SetOutputSignalConfig
                0x00000000       0x40 ./drivers/fsl_xbara.o
 .text          0x00000000        0x0 ./device/system_MIMXRT1064.o
 .data          0x00000000        0x0 ./device/system_MIMXRT1064.o
 .bss           0x00000000        0x0 ./device/system_MIMXRT1064.o
 .text.SystemCoreClockUpdate
                0x00000000      0x14c ./device/system_MIMXRT1064.o
 .text          0x00000000        0x0 ./component/uart/fsl_adapter_lpuart.o
 .data          0x00000000        0x0 ./component/uart/fsl_adapter_lpuart.o
 .bss           0x00000000        0x0 ./component/uart/fsl_adapter_lpuart.o
 .text.HAL_UartDeinit
                0x00000000       0x18 ./component/uart/fsl_adapter_lpuart.o
 .text.HAL_UartReceiveBlocking
                0x00000000       0x20 ./component/uart/fsl_adapter_lpuart.o
 .text.HAL_UartSendBlocking
                0x00000000       0x18 ./component/uart/fsl_adapter_lpuart.o
 .text.HAL_UartEnterLowpower
                0x00000000        0x4 ./component/uart/fsl_adapter_lpuart.o
 .text.HAL_UartExitLowpower
                0x00000000        0x4 ./component/uart/fsl_adapter_lpuart.o
 .text          0x00000000        0x0 ./component/serial_manager/fsl_component_serial_manager.o
 .data          0x00000000        0x0 ./component/serial_manager/fsl_component_serial_manager.o
 .bss           0x00000000        0x0 ./component/serial_manager/fsl_component_serial_manager.o
 .text.SerialManager_Deinit
                0x00000000       0x34 ./component/serial_manager/fsl_component_serial_manager.o
 .text.SerialManager_CloseWriteHandle
                0x00000000       0x24 ./component/serial_manager/fsl_component_serial_manager.o
 .text.SerialManager_CloseReadHandle
                0x00000000       0x20 ./component/serial_manager/fsl_component_serial_manager.o
 .text.SerialManager_WriteBlocking
                0x00000000       0x14 ./component/serial_manager/fsl_component_serial_manager.o
 .text.SerialManager_ReadBlocking
                0x00000000       0x14 ./component/serial_manager/fsl_component_serial_manager.o
 .text.SerialManager_EnterLowpower
                0x00000000       0x14 ./component/serial_manager/fsl_component_serial_manager.o
 .text.SerialManager_ExitLowpower
                0x00000000       0x14 ./component/serial_manager/fsl_component_serial_manager.o
 .text.SerialManager_SetLowpowerCriticalCb
                0x00000000        0x4 ./component/serial_manager/fsl_component_serial_manager.o
 .text          0x00000000        0x0 ./component/serial_manager/fsl_component_serial_port_uart.o
 .data          0x00000000        0x0 ./component/serial_manager/fsl_component_serial_port_uart.o
 .bss           0x00000000        0x0 ./component/serial_manager/fsl_component_serial_port_uart.o
 .text.Serial_UartDeinit
                0x00000000        0xc ./component/serial_manager/fsl_component_serial_port_uart.o
 .text.Serial_UartWrite
                0x00000000        0x4 ./component/serial_manager/fsl_component_serial_port_uart.o
 .text.Serial_UartRead
                0x00000000        0x4 ./component/serial_manager/fsl_component_serial_port_uart.o
 .text.Serial_UartEnterLowpower
                0x00000000        0xc ./component/serial_manager/fsl_component_serial_port_uart.o
 .text.Serial_UartExitLowpower
                0x00000000        0xc ./component/serial_manager/fsl_component_serial_port_uart.o
 .text          0x00000000        0x0 ./component/osa/fsl_os_abstraction_bm.o
 .data          0x00000000        0x0 ./component/osa/fsl_os_abstraction_bm.o
 .bss           0x00000000        0x0 ./component/osa/fsl_os_abstraction_bm.o
 .text.main_task
                0x00000000        0x4 ./component/osa/fsl_os_abstraction_bm.o
 .text.OSA_MemoryAllocate
                0x00000000       0x18 ./component/osa/fsl_os_abstraction_bm.o
 .text.OSA_MemoryFree
                0x00000000        0x4 ./component/osa/fsl_os_abstraction_bm.o
 .text.OSA_EnableIRQGlobal
                0x00000000       0x1c ./component/osa/fsl_os_abstraction_bm.o
 .text.OSA_DisableIRQGlobal
                0x00000000       0x1c ./component/osa/fsl_os_abstraction_bm.o
 .text.OSA_TimeInit
                0x00000000        0x4 ./component/osa/fsl_os_abstraction_bm.o
 .text.OSA_TimeDiff
                0x00000000        0x4 ./component/osa/fsl_os_abstraction_bm.o
 .text.OSA_TimeDelay
                0x00000000        0x4 ./component/osa/fsl_os_abstraction_bm.o
 .text.OSA_TimeGetMsec
                0x00000000        0x4 ./component/osa/fsl_os_abstraction_bm.o
 .text.OSA_SemaphorePrecreate
                0x00000000        0x4 ./component/osa/fsl_os_abstraction_bm.o
 .text.OSA_SemaphoreCreate
                0x00000000       0x10 ./component/osa/fsl_os_abstraction_bm.o
 .text.OSA_SemaphoreCreateBinary
                0x00000000       0x10 ./component/osa/fsl_os_abstraction_bm.o
 .text.OSA_SemaphoreDestroy
                0x00000000       0x10 ./component/osa/fsl_os_abstraction_bm.o
 .text.OSA_SemaphoreWait
                0x00000000       0x30 ./component/osa/fsl_os_abstraction_bm.o
 .text.OSA_SemaphorePost
                0x00000000       0x30 ./component/osa/fsl_os_abstraction_bm.o
 .text.OSA_MutexCreate
                0x00000000        0xc ./component/osa/fsl_os_abstraction_bm.o
 .text.OSA_MutexLock
                0x00000000       0x2c ./component/osa/fsl_os_abstraction_bm.o
 .text.OSA_MutexUnlock
                0x00000000       0x14 ./component/osa/fsl_os_abstraction_bm.o
 .text.OSA_MutexDestroy
                0x00000000       0x10 ./component/osa/fsl_os_abstraction_bm.o
 .text.OSA_EventPrecreate
                0x00000000        0x4 ./component/osa/fsl_os_abstraction_bm.o
 .text.OSA_EventCreate
                0x00000000       0x14 ./component/osa/fsl_os_abstraction_bm.o
 .text.OSA_EventSet
                0x00000000       0x14 ./component/osa/fsl_os_abstraction_bm.o
 .text.OSA_EventClear
                0x00000000       0x18 ./component/osa/fsl_os_abstraction_bm.o
 .text.OSA_EventGet
                0x00000000       0x1c ./component/osa/fsl_os_abstraction_bm.o
 .text.OSA_EventWait
                0x00000000       0x54 ./component/osa/fsl_os_abstraction_bm.o
 .text.OSA_EventDestroy
                0x00000000       0x10 ./component/osa/fsl_os_abstraction_bm.o
 .text.OSA_MsgQCreate
                0x00000000       0x1c ./component/osa/fsl_os_abstraction_bm.o
 .text.OSA_MsgQPut
                0x00000000       0x7c ./component/osa/fsl_os_abstraction_bm.o
 .text.OSA_MsgQGet
                0x00000000       0x84 ./component/osa/fsl_os_abstraction_bm.o
 .text.OSA_MsgQAvailableMsgs
                0x00000000        0x4 ./component/osa/fsl_os_abstraction_bm.o
 .text.OSA_MsgQDestroy
                0x00000000       0x10 ./component/osa/fsl_os_abstraction_bm.o
 .text.OSA_InterruptEnable
                0x00000000       0x1c ./component/osa/fsl_os_abstraction_bm.o
 .text.OSA_InterruptDisable
                0x00000000       0x1c ./component/osa/fsl_os_abstraction_bm.o
 .text.OSA_InstallIntHandler
                0x00000000        0x4 ./component/osa/fsl_os_abstraction_bm.o
 .bss.s_osaState
                0x00000000        0xc ./component/osa/fsl_os_abstraction_bm.o
 .rodata.gUseRtos_c
                0x00000000        0x1 ./component/osa/fsl_os_abstraction_bm.o
 .text          0x00000000        0x0 ./component/lists/fsl_component_generic_list.o
 .data          0x00000000        0x0 ./component/lists/fsl_component_generic_list.o
 .bss           0x00000000        0x0 ./component/lists/fsl_component_generic_list.o
 .text.LIST_Init
                0x00000000        0xc ./component/lists/fsl_component_generic_list.o
 .text.LIST_GetList
                0x00000000        0x4 ./component/lists/fsl_component_generic_list.o
 .text.LIST_AddTail
                0x00000000       0x38 ./component/lists/fsl_component_generic_list.o
 .text.LIST_AddHead
                0x00000000       0x38 ./component/lists/fsl_component_generic_list.o
 .text.LIST_RemoveHead
                0x00000000       0x38 ./component/lists/fsl_component_generic_list.o
 .text.LIST_GetHead
                0x00000000        0x4 ./component/lists/fsl_component_generic_list.o
 .text.LIST_GetNext
                0x00000000        0x4 ./component/lists/fsl_component_generic_list.o
 .text.LIST_GetPrev
                0x00000000        0x4 ./component/lists/fsl_component_generic_list.o
 .text.LIST_RemoveElement
                0x00000000       0x48 ./component/lists/fsl_component_generic_list.o
 .text.LIST_AddPrevElement
                0x00000000       0x6c ./component/lists/fsl_component_generic_list.o
 .text.LIST_GetSize
                0x00000000        0x4 ./component/lists/fsl_component_generic_list.o
 .text.LIST_GetAvailableSize
                0x00000000        0x8 ./component/lists/fsl_component_generic_list.o
 .debug_info    0x00000000      0x99a ./component/lists/fsl_component_generic_list.o
 .debug_abbrev  0x00000000      0x2c3 ./component/lists/fsl_component_generic_list.o
 .debug_loc     0x00000000      0x780 ./component/lists/fsl_component_generic_list.o
 .debug_aranges
                0x00000000       0x78 ./component/lists/fsl_component_generic_list.o
 .debug_ranges  0x00000000      0x308 ./component/lists/fsl_component_generic_list.o
 .debug_line    0x00000000      0x875 ./component/lists/fsl_component_generic_list.o
 .debug_str     0x00000000      0x401 ./component/lists/fsl_component_generic_list.o
 .comment       0x00000000       0x4a ./component/lists/fsl_component_generic_list.o
 .debug_frame   0x00000000       0xf8 ./component/lists/fsl_component_generic_list.o
 .ARM.attributes
                0x00000000       0x34 ./component/lists/fsl_component_generic_list.o
 .text          0x00000000        0x0 ./board/board.o
 .data          0x00000000        0x0 ./board/board.o
 .bss           0x00000000        0x0 ./board/board.o
 .text.BOARD_DebugConsoleSrcFreq
                0x00000000       0x60 ./board/board.o
 .text          0x00000000        0x0 ./board/clock_config.o
 .data          0x00000000        0x0 ./board/clock_config.o
 .bss           0x00000000        0x0 ./board/clock_config.o
 .text.BOARD_InitBootClocks
                0x00000000        0x4 ./board/clock_config.o
 .text.BOARD_BootClockRUN_528M
                0x00000000      0x8e4 ./board/clock_config.o
 .rodata.armPllConfig_BOARD_BootClockRUN_528M
                0x00000000        0x8 ./board/clock_config.o
 .rodata.sysPllConfig_BOARD_BootClockRUN_528M
                0x00000000       0x14 ./board/clock_config.o
 .rodata.usb1PllConfig_BOARD_BootClockRUN
                0x00000000        0x2 ./board/clock_config.o
 .rodata.usb1PllConfig_BOARD_BootClockRUN_528M
                0x00000000        0x2 ./board/clock_config.o
 .rodata.videoPllConfig_BOARD_BootClockRUN
                0x00000000       0x10 ./board/clock_config.o
 .rodata.videoPllConfig_BOARD_BootClockRUN_528M
                0x00000000       0x10 ./board/clock_config.o
 .text          0x00000000        0x0 ./board/dcd.o
 .data          0x00000000        0x0 ./board/dcd.o
 .bss           0x00000000        0x0 ./board/dcd.o
 .rodata.dcd_data
                0x00000000        0x1 ./board/dcd.o
 .debug_info    0x00000000       0x9d ./board/dcd.o
 .debug_abbrev  0x00000000       0x61 ./board/dcd.o
 .debug_aranges
                0x00000000       0x18 ./board/dcd.o
 .debug_line    0x00000000       0xb0 ./board/dcd.o
 .debug_str     0x00000000      0x1b4 ./board/dcd.o
 .comment       0x00000000       0x4a ./board/dcd.o
 .ARM.attributes
                0x00000000       0x34 ./board/dcd.o
 .text          0x00000000        0x0 ./board/peripherals.o
 .data          0x00000000        0x0 ./board/peripherals.o
 .bss           0x00000000        0x0 ./board/peripherals.o
 .text          0x00000000        0x0 ./board/pin_mux.o
 .data          0x00000000        0x0 ./board/pin_mux.o
 .bss           0x00000000        0x0 ./board/pin_mux.o
 .text.BOARD_InitBootPins
                0x00000000       0x44 ./board/pin_mux.o
 .text.BOARD_InitDEBUG_UART
                0x00000000       0x3c ./board/pin_mux.o
 .text.BOARD_InitSDRAM
                0x00000000        0x4 ./board/pin_mux.o
 .text.BOARD_InitCSI
                0x00000000        0x4 ./board/pin_mux.o
 .text.BOARD_InitLCD
                0x00000000        0x4 ./board/pin_mux.o
 .text.BOARD_InitCAN
                0x00000000        0x4 ./board/pin_mux.o
 .text.BOARD_InitENET
                0x00000000        0x4 ./board/pin_mux.o
 .text.BOARD_InitUSDHC
                0x00000000        0x4 ./board/pin_mux.o
 .text.BOARD_InitHyperFlash
                0x00000000        0x4 ./board/pin_mux.o
 .text          0x00000000        0x0 D:\Project\21.IR_Touch\BE_FW\wmc-ctsi-0850-fe-be-app\lib/libbackend_irt650_nxp2.a(backend_main.o)
 .data          0x00000000        0x0 D:\Project\21.IR_Touch\BE_FW\wmc-ctsi-0850-fe-be-app\lib/libbackend_irt650_nxp2.a(backend_main.o)
 .bss           0x00000000        0x0 D:\Project\21.IR_Touch\BE_FW\wmc-ctsi-0850-fe-be-app\lib/libbackend_irt650_nxp2.a(backend_main.o)
 .text.BS_epaInit_fine
                0x00000000       0x54 D:\Project\21.IR_Touch\BE_FW\wmc-ctsi-0850-fe-be-app\lib/libbackend_irt650_nxp2.a(backend_main.o)
 .text.BS_is_used_line_buffer
                0x00000000       0x54 D:\Project\21.IR_Touch\BE_FW\wmc-ctsi-0850-fe-be-app\lib/libbackend_irt650_nxp2.a(backend_main.o)
 .bss.BG_debug_misc
                0x00000000       0xa0 D:\Project\21.IR_Touch\BE_FW\wmc-ctsi-0850-fe-be-app\lib/libbackend_irt650_nxp2.a(backend_main.o)
 .text          0x00000000        0x0 D:\Project\21.IR_Touch\BE_FW\wmc-ctsi-0850-fe-be-app\lib/libbackend_irt650_nxp2.a(backend_multi.o)
 .data          0x00000000        0x0 D:\Project\21.IR_Touch\BE_FW\wmc-ctsi-0850-fe-be-app\lib/libbackend_irt650_nxp2.a(backend_multi.o)
 .bss           0x00000000        0x0 D:\Project\21.IR_Touch\BE_FW\wmc-ctsi-0850-fe-be-app\lib/libbackend_irt650_nxp2.a(backend_multi.o)
 .text.BS_epaInitMulti
                0x00000000       0x3c D:\Project\21.IR_Touch\BE_FW\wmc-ctsi-0850-fe-be-app\lib/libbackend_irt650_nxp2.a(backend_multi.o)
 .text          0x00000000        0x0 D:\Project\21.IR_Touch\BE_FW\wmc-ctsi-0850-fe-be-app\lib/libbackend_irt650_nxp2.a(backend_utils.o)
 .data          0x00000000        0x0 D:\Project\21.IR_Touch\BE_FW\wmc-ctsi-0850-fe-be-app\lib/libbackend_irt650_nxp2.a(backend_utils.o)
 .bss           0x00000000        0x0 D:\Project\21.IR_Touch\BE_FW\wmc-ctsi-0850-fe-be-app\lib/libbackend_irt650_nxp2.a(backend_utils.o)
 .text.BS_line_intersection_test
                0x00000000       0xdc D:\Project\21.IR_Touch\BE_FW\wmc-ctsi-0850-fe-be-app\lib/libbackend_irt650_nxp2.a(backend_utils.o)
 .text.line_sect
                0x00000000       0xc4 D:\Project\21.IR_Touch\BE_FW\wmc-ctsi-0850-fe-be-app\lib/libbackend_irt650_nxp2.a(backend_utils.o)
 .text.BS_3point_angle
                0x00000000       0x44 D:\Project\21.IR_Touch\BE_FW\wmc-ctsi-0850-fe-be-app\lib/libbackend_irt650_nxp2.a(backend_utils.o)
 .text.BS_getPosSen
                0x00000000       0xa4 D:\Project\21.IR_Touch\BE_FW\wmc-ctsi-0850-fe-be-app\lib/libbackend_irt650_nxp2.a(backend_utils.o)
 .text.BS_getSlopeInBuf
                0x00000000       0xa0 D:\Project\21.IR_Touch\BE_FW\wmc-ctsi-0850-fe-be-app\lib/libbackend_irt650_nxp2.a(backend_utils.o)
 .text.BS_get_slope_sign
                0x00000000       0x14 D:\Project\21.IR_Touch\BE_FW\wmc-ctsi-0850-fe-be-app\lib/libbackend_irt650_nxp2.a(backend_utils.o)
 .text.BS_init_max4_float
                0x00000000       0x24 D:\Project\21.IR_Touch\BE_FW\wmc-ctsi-0850-fe-be-app\lib/libbackend_irt650_nxp2.a(backend_utils.o)
 .text.BS_get_max4_float
                0x00000000       0xec D:\Project\21.IR_Touch\BE_FW\wmc-ctsi-0850-fe-be-app\lib/libbackend_irt650_nxp2.a(backend_utils.o)
 .text.BS_init_max4_int
                0x00000000       0x38 D:\Project\21.IR_Touch\BE_FW\wmc-ctsi-0850-fe-be-app\lib/libbackend_irt650_nxp2.a(backend_utils.o)
 .text.BS_get_max4_int
                0x00000000       0xb8 D:\Project\21.IR_Touch\BE_FW\wmc-ctsi-0850-fe-be-app\lib/libbackend_irt650_nxp2.a(backend_utils.o)
 .text.BS_get_pos_on_line
                0x00000000       0x8c D:\Project\21.IR_Touch\BE_FW\wmc-ctsi-0850-fe-be-app\lib/libbackend_irt650_nxp2.a(backend_utils.o)
 .text.BS_get_sensor_via_p2
                0x00000000       0x90 D:\Project\21.IR_Touch\BE_FW\wmc-ctsi-0850-fe-be-app\lib/libbackend_irt650_nxp2.a(backend_utils.o)
 .text          0x00000000        0x0 D:\Project\21.IR_Touch\BE_FW\wmc-ctsi-0850-fe-be-app\lib/libbackend_irt650_nxp2.a(IRTP_layout.o)
 .data          0x00000000        0x0 D:\Project\21.IR_Touch\BE_FW\wmc-ctsi-0850-fe-be-app\lib/libbackend_irt650_nxp2.a(IRTP_layout.o)
 .bss           0x00000000        0x0 D:\Project\21.IR_Touch\BE_FW\wmc-ctsi-0850-fe-be-app\lib/libbackend_irt650_nxp2.a(IRTP_layout.o)
 .text          0x00000000        0x0 D:\Project\21.IR_Touch\BE_FW\wmc-ctsi-0850-fe-be-app\lib/libbackend_irt650_nxp2.a(backend_debug.o)
 .data          0x00000000        0x0 D:\Project\21.IR_Touch\BE_FW\wmc-ctsi-0850-fe-be-app\lib/libbackend_irt650_nxp2.a(backend_debug.o)
 .bss           0x00000000        0x0 D:\Project\21.IR_Touch\BE_FW\wmc-ctsi-0850-fe-be-app\lib/libbackend_irt650_nxp2.a(backend_debug.o)
 .text          0x00000000        0x0 D:\Project\21.IR_Touch\BE_FW\wmc-ctsi-0850-fe-be-app\lib/libbackend_irt650_nxp2.a(backend_fine.o)
 .data          0x00000000        0x0 D:\Project\21.IR_Touch\BE_FW\wmc-ctsi-0850-fe-be-app\lib/libbackend_irt650_nxp2.a(backend_fine.o)
 .bss           0x00000000        0x0 D:\Project\21.IR_Touch\BE_FW\wmc-ctsi-0850-fe-be-app\lib/libbackend_irt650_nxp2.a(backend_fine.o)
 .text.BS_fine_get_crossed_lines
                0x00000000      0x430 D:\Project\21.IR_Touch\BE_FW\wmc-ctsi-0850-fe-be-app\lib/libbackend_irt650_nxp2.a(backend_fine.o)
 .text          0x00000000        0x0 c:/nxp/mcuxpressoide_11.7.0_9198/ide/plugins/com.nxp.mcuxpresso.tools.win32_11.7.0.202209140929/tools/bin/../lib/gcc/arm-none-eabi/10.3.1/../../../../arm-none-eabi/lib/thumb/v7e-m+fp/hard\libcr_nohost_nf.a(_cr__main.o)
 .data          0x00000000        0x0 c:/nxp/mcuxpressoide_11.7.0_9198/ide/plugins/com.nxp.mcuxpresso.tools.win32_11.7.0.202209140929/tools/bin/../lib/gcc/arm-none-eabi/10.3.1/../../../../arm-none-eabi/lib/thumb/v7e-m+fp/hard\libcr_nohost_nf.a(_cr__main.o)
 .bss           0x00000000        0x0 c:/nxp/mcuxpressoide_11.7.0_9198/ide/plugins/com.nxp.mcuxpresso.tools.win32_11.7.0.202209140929/tools/bin/../lib/gcc/arm-none-eabi/10.3.1/../../../../arm-none-eabi/lib/thumb/v7e-m+fp/hard\libcr_nohost_nf.a(_cr__main.o)
 .text          0x00000000        0x0 c:/nxp/mcuxpressoide_11.7.0_9198/ide/plugins/com.nxp.mcuxpresso.tools.win32_11.7.0.202209140929/tools/bin/../lib/gcc/arm-none-eabi/10.3.1/../../../../arm-none-eabi/lib/thumb/v7e-m+fp/hard\libcr_c.a(memcpy.o)
 .data          0x00000000        0x0 c:/nxp/mcuxpressoide_11.7.0_9198/ide/plugins/com.nxp.mcuxpresso.tools.win32_11.7.0.202209140929/tools/bin/../lib/gcc/arm-none-eabi/10.3.1/../../../../arm-none-eabi/lib/thumb/v7e-m+fp/hard\libcr_c.a(memcpy.o)
 .bss           0x00000000        0x0 c:/nxp/mcuxpressoide_11.7.0_9198/ide/plugins/com.nxp.mcuxpresso.tools.win32_11.7.0.202209140929/tools/bin/../lib/gcc/arm-none-eabi/10.3.1/../../../../arm-none-eabi/lib/thumb/v7e-m+fp/hard\libcr_c.a(memcpy.o)
 .text          0x00000000        0x0 c:/nxp/mcuxpressoide_11.7.0_9198/ide/plugins/com.nxp.mcuxpresso.tools.win32_11.7.0.202209140929/tools/bin/../lib/gcc/arm-none-eabi/10.3.1/../../../../arm-none-eabi/lib/thumb/v7e-m+fp/hard\libcr_c.a(memset.o)
 .data          0x00000000        0x0 c:/nxp/mcuxpressoide_11.7.0_9198/ide/plugins/com.nxp.mcuxpresso.tools.win32_11.7.0.202209140929/tools/bin/../lib/gcc/arm-none-eabi/10.3.1/../../../../arm-none-eabi/lib/thumb/v7e-m+fp/hard\libcr_c.a(memset.o)
 .bss           0x00000000        0x0 c:/nxp/mcuxpressoide_11.7.0_9198/ide/plugins/com.nxp.mcuxpresso.tools.win32_11.7.0.202209140929/tools/bin/../lib/gcc/arm-none-eabi/10.3.1/../../../../arm-none-eabi/lib/thumb/v7e-m+fp/hard\libcr_c.a(memset.o)
 .text          0x00000000        0x0 c:/nxp/mcuxpressoide_11.7.0_9198/ide/plugins/com.nxp.mcuxpresso.tools.win32_11.7.0.202209140929/tools/bin/../lib/gcc/arm-none-eabi/10.3.1/../../../../arm-none-eabi/lib/thumb/v7e-m+fp/hard\libcr_c.a(alloc.o)
 .data          0x00000000        0x0 c:/nxp/mcuxpressoide_11.7.0_9198/ide/plugins/com.nxp.mcuxpresso.tools.win32_11.7.0.202209140929/tools/bin/../lib/gcc/arm-none-eabi/10.3.1/../../../../arm-none-eabi/lib/thumb/v7e-m+fp/hard\libcr_c.a(alloc.o)
 .bss           0x00000000        0x0 c:/nxp/mcuxpressoide_11.7.0_9198/ide/plugins/com.nxp.mcuxpresso.tools.win32_11.7.0.202209140929/tools/bin/../lib/gcc/arm-none-eabi/10.3.1/../../../../arm-none-eabi/lib/thumb/v7e-m+fp/hard\libcr_c.a(alloc.o)
 .text.calloc   0x00000000       0x54 c:/nxp/mcuxpressoide_11.7.0_9198/ide/plugins/com.nxp.mcuxpresso.tools.win32_11.7.0.202209140929/tools/bin/../lib/gcc/arm-none-eabi/10.3.1/../../../../arm-none-eabi/lib/thumb/v7e-m+fp/hard\libcr_c.a(alloc.o)
 .text.realloc  0x00000000       0x26 c:/nxp/mcuxpressoide_11.7.0_9198/ide/plugins/com.nxp.mcuxpresso.tools.win32_11.7.0.202209140929/tools/bin/../lib/gcc/arm-none-eabi/10.3.1/../../../../arm-none-eabi/lib/thumb/v7e-m+fp/hard\libcr_c.a(alloc.o)
 .text          0x00000000        0x0 c:/nxp/mcuxpressoide_11.7.0_9198/ide/plugins/com.nxp.mcuxpresso.tools.win32_11.7.0.202209140929/tools/bin/../lib/gcc/arm-none-eabi/10.3.1/../../../../arm-none-eabi/lib/thumb/v7e-m+fp/hard\libcr_c.a(errno.o)
 .data          0x00000000        0x0 c:/nxp/mcuxpressoide_11.7.0_9198/ide/plugins/com.nxp.mcuxpresso.tools.win32_11.7.0.202209140929/tools/bin/../lib/gcc/arm-none-eabi/10.3.1/../../../../arm-none-eabi/lib/thumb/v7e-m+fp/hard\libcr_c.a(errno.o)
 .bss           0x00000000        0x0 c:/nxp/mcuxpressoide_11.7.0_9198/ide/plugins/com.nxp.mcuxpresso.tools.win32_11.7.0.202209140929/tools/bin/../lib/gcc/arm-none-eabi/10.3.1/../../../../arm-none-eabi/lib/thumb/v7e-m+fp/hard\libcr_c.a(errno.o)
 .text          0x00000000        0x0 c:/nxp/mcuxpressoide_11.7.0_9198/ide/plugins/com.nxp.mcuxpresso.tools.win32_11.7.0.202209140929/tools/bin/../lib/gcc/arm-none-eabi/10.3.1/../../../../arm-none-eabi/lib/thumb/v7e-m+fp/hard\libcr_c.a(initio.o)
 .data          0x00000000        0x0 c:/nxp/mcuxpressoide_11.7.0_9198/ide/plugins/com.nxp.mcuxpresso.tools.win32_11.7.0.202209140929/tools/bin/../lib/gcc/arm-none-eabi/10.3.1/../../../../arm-none-eabi/lib/thumb/v7e-m+fp/hard\libcr_c.a(initio.o)
 .bss           0x00000000        0x0 c:/nxp/mcuxpressoide_11.7.0_9198/ide/plugins/com.nxp.mcuxpresso.tools.win32_11.7.0.202209140929/tools/bin/../lib/gcc/arm-none-eabi/10.3.1/../../../../arm-none-eabi/lib/thumb/v7e-m+fp/hard\libcr_c.a(initio.o)
 .text._terminateio
                0x00000000       0x50 c:/nxp/mcuxpressoide_11.7.0_9198/ide/plugins/com.nxp.mcuxpresso.tools.win32_11.7.0.202209140929/tools/bin/../lib/gcc/arm-none-eabi/10.3.1/../../../../arm-none-eabi/lib/thumb/v7e-m+fp/hard\libcr_c.a(initio.o)
 .text          0x00000000        0x0 c:/nxp/mcuxpressoide_11.7.0_9198/ide/plugins/com.nxp.mcuxpresso.tools.win32_11.7.0.202209140929/tools/bin/../lib/gcc/arm-none-eabi/10.3.1/../../../../arm-none-eabi/lib/thumb/v7e-m+fp/hard\libcr_c.a(printf.o)
 .data          0x00000000        0x0 c:/nxp/mcuxpressoide_11.7.0_9198/ide/plugins/com.nxp.mcuxpresso.tools.win32_11.7.0.202209140929/tools/bin/../lib/gcc/arm-none-eabi/10.3.1/../../../../arm-none-eabi/lib/thumb/v7e-m+fp/hard\libcr_c.a(printf.o)
 .bss           0x00000000        0x0 c:/nxp/mcuxpressoide_11.7.0_9198/ide/plugins/com.nxp.mcuxpresso.tools.win32_11.7.0.202209140929/tools/bin/../lib/gcc/arm-none-eabi/10.3.1/../../../../arm-none-eabi/lib/thumb/v7e-m+fp/hard\libcr_c.a(printf.o)
 .text._fprintf
                0x00000000       0x30 c:/nxp/mcuxpressoide_11.7.0_9198/ide/plugins/com.nxp.mcuxpresso.tools.win32_11.7.0.202209140929/tools/bin/../lib/gcc/arm-none-eabi/10.3.1/../../../../arm-none-eabi/lib/thumb/v7e-m+fp/hard\libcr_c.a(printf.o)
 .text._printf_char
                0x00000000       0x34 c:/nxp/mcuxpressoide_11.7.0_9198/ide/plugins/com.nxp.mcuxpresso.tools.win32_11.7.0.202209140929/tools/bin/../lib/gcc/arm-none-eabi/10.3.1/../../../../arm-none-eabi/lib/thumb/v7e-m+fp/hard\libcr_c.a(printf.o)
 .text._sprintf
                0x00000000       0x6c c:/nxp/mcuxpressoide_11.7.0_9198/ide/plugins/com.nxp.mcuxpresso.tools.win32_11.7.0.202209140929/tools/bin/../lib/gcc/arm-none-eabi/10.3.1/../../../../arm-none-eabi/lib/thumb/v7e-m+fp/hard\libcr_c.a(printf.o)
 .text._snprintf
                0x00000000       0x78 c:/nxp/mcuxpressoide_11.7.0_9198/ide/plugins/com.nxp.mcuxpresso.tools.win32_11.7.0.202209140929/tools/bin/../lib/gcc/arm-none-eabi/10.3.1/../../../../arm-none-eabi/lib/thumb/v7e-m+fp/hard\libcr_c.a(printf.o)
 .text._vfprintf
                0x00000000       0x20 c:/nxp/mcuxpressoide_11.7.0_9198/ide/plugins/com.nxp.mcuxpresso.tools.win32_11.7.0.202209140929/tools/bin/../lib/gcc/arm-none-eabi/10.3.1/../../../../arm-none-eabi/lib/thumb/v7e-m+fp/hard\libcr_c.a(printf.o)
 .text._vprintf
                0x00000000       0x28 c:/nxp/mcuxpressoide_11.7.0_9198/ide/plugins/com.nxp.mcuxpresso.tools.win32_11.7.0.202209140929/tools/bin/../lib/gcc/arm-none-eabi/10.3.1/../../../../arm-none-eabi/lib/thumb/v7e-m+fp/hard\libcr_c.a(printf.o)
 .text._vsprintf
                0x00000000       0x5c c:/nxp/mcuxpressoide_11.7.0_9198/ide/plugins/com.nxp.mcuxpresso.tools.win32_11.7.0.202209140929/tools/bin/../lib/gcc/arm-none-eabi/10.3.1/../../../../arm-none-eabi/lib/thumb/v7e-m+fp/hard\libcr_c.a(printf.o)
 .text          0x00000000        0x0 c:/nxp/mcuxpressoide_11.7.0_9198/ide/plugins/com.nxp.mcuxpresso.tools.win32_11.7.0.202209140929/tools/bin/../lib/gcc/arm-none-eabi/10.3.1/../../../../arm-none-eabi/lib/thumb/v7e-m+fp/hard\libcr_c.a(scanf.o)
 .data          0x00000000        0x0 c:/nxp/mcuxpressoide_11.7.0_9198/ide/plugins/com.nxp.mcuxpresso.tools.win32_11.7.0.202209140929/tools/bin/../lib/gcc/arm-none-eabi/10.3.1/../../../../arm-none-eabi/lib/thumb/v7e-m+fp/hard\libcr_c.a(scanf.o)
 .bss           0x00000000        0x0 c:/nxp/mcuxpressoide_11.7.0_9198/ide/plugins/com.nxp.mcuxpresso.tools.win32_11.7.0.202209140929/tools/bin/../lib/gcc/arm-none-eabi/10.3.1/../../../../arm-none-eabi/lib/thumb/v7e-m+fp/hard\libcr_c.a(scanf.o)
 .text._strtoull
                0x00000000       0xf4 c:/nxp/mcuxpressoide_11.7.0_9198/ide/plugins/com.nxp.mcuxpresso.tools.win32_11.7.0.202209140929/tools/bin/../lib/gcc/arm-none-eabi/10.3.1/../../../../arm-none-eabi/lib/thumb/v7e-m+fp/hard\libcr_c.a(scanf.o)
 .text.cr_rd_int
                0x00000000      0x1a8 c:/nxp/mcuxpressoide_11.7.0_9198/ide/plugins/com.nxp.mcuxpresso.tools.win32_11.7.0.202209140929/tools/bin/../lib/gcc/arm-none-eabi/10.3.1/../../../../arm-none-eabi/lib/thumb/v7e-m+fp/hard\libcr_c.a(scanf.o)
 .text.vfscanf  0x00000000      0x990 c:/nxp/mcuxpressoide_11.7.0_9198/ide/plugins/com.nxp.mcuxpresso.tools.win32_11.7.0.202209140929/tools/bin/../lib/gcc/arm-none-eabi/10.3.1/../../../../arm-none-eabi/lib/thumb/v7e-m+fp/hard\libcr_c.a(scanf.o)
 .text._ncc_vfscanf
                0x00000000        0x4 c:/nxp/mcuxpressoide_11.7.0_9198/ide/plugins/com.nxp.mcuxpresso.tools.win32_11.7.0.202209140929/tools/bin/../lib/gcc/arm-none-eabi/10.3.1/../../../../arm-none-eabi/lib/thumb/v7e-m+fp/hard\libcr_c.a(scanf.o)
 .text.fscanf   0x00000000       0x1a c:/nxp/mcuxpressoide_11.7.0_9198/ide/plugins/com.nxp.mcuxpresso.tools.win32_11.7.0.202209140929/tools/bin/../lib/gcc/arm-none-eabi/10.3.1/../../../../arm-none-eabi/lib/thumb/v7e-m+fp/hard\libcr_c.a(scanf.o)
 .text.scanf    0x00000000       0x20 c:/nxp/mcuxpressoide_11.7.0_9198/ide/plugins/com.nxp.mcuxpresso.tools.win32_11.7.0.202209140929/tools/bin/../lib/gcc/arm-none-eabi/10.3.1/../../../../arm-none-eabi/lib/thumb/v7e-m+fp/hard\libcr_c.a(scanf.o)
 .text.sscanf   0x00000000       0x3e c:/nxp/mcuxpressoide_11.7.0_9198/ide/plugins/com.nxp.mcuxpresso.tools.win32_11.7.0.202209140929/tools/bin/../lib/gcc/arm-none-eabi/10.3.1/../../../../arm-none-eabi/lib/thumb/v7e-m+fp/hard\libcr_c.a(scanf.o)
 .rodata.strtod.str1.1
                0x00000000        0x6 c:/nxp/mcuxpressoide_11.7.0_9198/ide/plugins/com.nxp.mcuxpresso.tools.win32_11.7.0.202209140929/tools/bin/../lib/gcc/arm-none-eabi/10.3.1/../../../../arm-none-eabi/lib/thumb/v7e-m+fp/hard\libcr_c.a(scanf.o)
 .text.strtod   0x00000000       0x3c c:/nxp/mcuxpressoide_11.7.0_9198/ide/plugins/com.nxp.mcuxpresso.tools.win32_11.7.0.202209140929/tools/bin/../lib/gcc/arm-none-eabi/10.3.1/../../../../arm-none-eabi/lib/thumb/v7e-m+fp/hard\libcr_c.a(scanf.o)
 .text.strtof   0x00000000       0x14 c:/nxp/mcuxpressoide_11.7.0_9198/ide/plugins/com.nxp.mcuxpresso.tools.win32_11.7.0.202209140929/tools/bin/../lib/gcc/arm-none-eabi/10.3.1/../../../../arm-none-eabi/lib/thumb/v7e-m+fp/hard\libcr_c.a(scanf.o)
 .text.strtoul  0x00000000       0x88 c:/nxp/mcuxpressoide_11.7.0_9198/ide/plugins/com.nxp.mcuxpresso.tools.win32_11.7.0.202209140929/tools/bin/../lib/gcc/arm-none-eabi/10.3.1/../../../../arm-none-eabi/lib/thumb/v7e-m+fp/hard\libcr_c.a(scanf.o)
 .text.strtoll  0x00000000       0x84 c:/nxp/mcuxpressoide_11.7.0_9198/ide/plugins/com.nxp.mcuxpresso.tools.win32_11.7.0.202209140929/tools/bin/../lib/gcc/arm-none-eabi/10.3.1/../../../../arm-none-eabi/lib/thumb/v7e-m+fp/hard\libcr_c.a(scanf.o)
 .text.strtoull
                0x00000000       0x90 c:/nxp/mcuxpressoide_11.7.0_9198/ide/plugins/com.nxp.mcuxpresso.tools.win32_11.7.0.202209140929/tools/bin/../lib/gcc/arm-none-eabi/10.3.1/../../../../arm-none-eabi/lib/thumb/v7e-m+fp/hard\libcr_c.a(scanf.o)
 .text.atof     0x00000000       0x14 c:/nxp/mcuxpressoide_11.7.0_9198/ide/plugins/com.nxp.mcuxpresso.tools.win32_11.7.0.202209140929/tools/bin/../lib/gcc/arm-none-eabi/10.3.1/../../../../arm-none-eabi/lib/thumb/v7e-m+fp/hard\libcr_c.a(scanf.o)
 .text.atoi     0x00000000       0x18 c:/nxp/mcuxpressoide_11.7.0_9198/ide/plugins/com.nxp.mcuxpresso.tools.win32_11.7.0.202209140929/tools/bin/../lib/gcc/arm-none-eabi/10.3.1/../../../../arm-none-eabi/lib/thumb/v7e-m+fp/hard\libcr_c.a(scanf.o)
 .text.atol     0x00000000        0x4 c:/nxp/mcuxpressoide_11.7.0_9198/ide/plugins/com.nxp.mcuxpresso.tools.win32_11.7.0.202209140929/tools/bin/../lib/gcc/arm-none-eabi/10.3.1/../../../../arm-none-eabi/lib/thumb/v7e-m+fp/hard\libcr_c.a(scanf.o)
 .text.atoll    0x00000000       0x18 c:/nxp/mcuxpressoide_11.7.0_9198/ide/plugins/com.nxp.mcuxpresso.tools.win32_11.7.0.202209140929/tools/bin/../lib/gcc/arm-none-eabi/10.3.1/../../../../arm-none-eabi/lib/thumb/v7e-m+fp/hard\libcr_c.a(scanf.o)
 .data.neginf.0
                0x00000000        0x4 c:/nxp/mcuxpressoide_11.7.0_9198/ide/plugins/com.nxp.mcuxpresso.tools.win32_11.7.0.202209140929/tools/bin/../lib/gcc/arm-none-eabi/10.3.1/../../../../arm-none-eabi/lib/thumb/v7e-m+fp/hard\libcr_c.a(scanf.o)
 .data.posinf.1
                0x00000000        0x4 c:/nxp/mcuxpressoide_11.7.0_9198/ide/plugins/com.nxp.mcuxpresso.tools.win32_11.7.0.202209140929/tools/bin/../lib/gcc/arm-none-eabi/10.3.1/../../../../arm-none-eabi/lib/thumb/v7e-m+fp/hard\libcr_c.a(scanf.o)
 .text          0x00000000        0x0 c:/nxp/mcuxpressoide_11.7.0_9198/ide/plugins/com.nxp.mcuxpresso.tools.win32_11.7.0.202209140929/tools/bin/../lib/gcc/arm-none-eabi/10.3.1/../../../../arm-none-eabi/lib/thumb/v7e-m+fp/hard\libcr_c.a(setvbuf.o)
 .data          0x00000000        0x0 c:/nxp/mcuxpressoide_11.7.0_9198/ide/plugins/com.nxp.mcuxpresso.tools.win32_11.7.0.202209140929/tools/bin/../lib/gcc/arm-none-eabi/10.3.1/../../../../arm-none-eabi/lib/thumb/v7e-m+fp/hard\libcr_c.a(setvbuf.o)
 .bss           0x00000000        0x0 c:/nxp/mcuxpressoide_11.7.0_9198/ide/plugins/com.nxp.mcuxpresso.tools.win32_11.7.0.202209140929/tools/bin/../lib/gcc/arm-none-eabi/10.3.1/../../../../arm-none-eabi/lib/thumb/v7e-m+fp/hard\libcr_c.a(setvbuf.o)
 .text          0x00000000        0x0 c:/nxp/mcuxpressoide_11.7.0_9198/ide/plugins/com.nxp.mcuxpresso.tools.win32_11.7.0.202209140929/tools/bin/../lib/gcc/arm-none-eabi/10.3.1/../../../../arm-none-eabi/lib/thumb/v7e-m+fp/hard\libcr_c.a(strchr.o)
 .data          0x00000000        0x0 c:/nxp/mcuxpressoide_11.7.0_9198/ide/plugins/com.nxp.mcuxpresso.tools.win32_11.7.0.202209140929/tools/bin/../lib/gcc/arm-none-eabi/10.3.1/../../../../arm-none-eabi/lib/thumb/v7e-m+fp/hard\libcr_c.a(strchr.o)
 .bss           0x00000000        0x0 c:/nxp/mcuxpressoide_11.7.0_9198/ide/plugins/com.nxp.mcuxpresso.tools.win32_11.7.0.202209140929/tools/bin/../lib/gcc/arm-none-eabi/10.3.1/../../../../arm-none-eabi/lib/thumb/v7e-m+fp/hard\libcr_c.a(strchr.o)
 .text          0x00000000        0x0 c:/nxp/mcuxpressoide_11.7.0_9198/ide/plugins/com.nxp.mcuxpresso.tools.win32_11.7.0.202209140929/tools/bin/../lib/gcc/arm-none-eabi/10.3.1/../../../../arm-none-eabi/lib/thumb/v7e-m+fp/hard\libcr_c.a(strlen.o)
 .data          0x00000000        0x0 c:/nxp/mcuxpressoide_11.7.0_9198/ide/plugins/com.nxp.mcuxpresso.tools.win32_11.7.0.202209140929/tools/bin/../lib/gcc/arm-none-eabi/10.3.1/../../../../arm-none-eabi/lib/thumb/v7e-m+fp/hard\libcr_c.a(strlen.o)
 .bss           0x00000000        0x0 c:/nxp/mcuxpressoide_11.7.0_9198/ide/plugins/com.nxp.mcuxpresso.tools.win32_11.7.0.202209140929/tools/bin/../lib/gcc/arm-none-eabi/10.3.1/../../../../arm-none-eabi/lib/thumb/v7e-m+fp/hard\libcr_c.a(strlen.o)
 .text          0x00000000        0x0 c:/nxp/mcuxpressoide_11.7.0_9198/ide/plugins/com.nxp.mcuxpresso.tools.win32_11.7.0.202209140929/tools/bin/../lib/gcc/arm-none-eabi/10.3.1/../../../../arm-none-eabi/lib/thumb/v7e-m+fp/hard\libcr_c.a(ungetc.o)
 .data          0x00000000        0x0 c:/nxp/mcuxpressoide_11.7.0_9198/ide/plugins/com.nxp.mcuxpresso.tools.win32_11.7.0.202209140929/tools/bin/../lib/gcc/arm-none-eabi/10.3.1/../../../../arm-none-eabi/lib/thumb/v7e-m+fp/hard\libcr_c.a(ungetc.o)
 .bss           0x00000000        0x0 c:/nxp/mcuxpressoide_11.7.0_9198/ide/plugins/com.nxp.mcuxpresso.tools.win32_11.7.0.202209140929/tools/bin/../lib/gcc/arm-none-eabi/10.3.1/../../../../arm-none-eabi/lib/thumb/v7e-m+fp/hard\libcr_c.a(ungetc.o)
 .text.ungetc   0x00000000       0x32 c:/nxp/mcuxpressoide_11.7.0_9198/ide/plugins/com.nxp.mcuxpresso.tools.win32_11.7.0.202209140929/tools/bin/../lib/gcc/arm-none-eabi/10.3.1/../../../../arm-none-eabi/lib/thumb/v7e-m+fp/hard\libcr_c.a(ungetc.o)
 .comment       0x00000000       0x4a c:/nxp/mcuxpressoide_11.7.0_9198/ide/plugins/com.nxp.mcuxpresso.tools.win32_11.7.0.202209140929/tools/bin/../lib/gcc/arm-none-eabi/10.3.1/../../../../arm-none-eabi/lib/thumb/v7e-m+fp/hard\libcr_c.a(ungetc.o)
 .ARM.attributes
                0x00000000       0x34 c:/nxp/mcuxpressoide_11.7.0_9198/ide/plugins/com.nxp.mcuxpresso.tools.win32_11.7.0.202209140929/tools/bin/../lib/gcc/arm-none-eabi/10.3.1/../../../../arm-none-eabi/lib/thumb/v7e-m+fp/hard\libcr_c.a(ungetc.o)
 .text          0x00000000        0x0 c:/nxp/mcuxpressoide_11.7.0_9198/ide/plugins/com.nxp.mcuxpresso.tools.win32_11.7.0.202209140929/tools/bin/../lib/gcc/arm-none-eabi/10.3.1/../../../../arm-none-eabi/lib/thumb/v7e-m+fp/hard\libcr_c.a(__fillbuf.o)
 .data          0x00000000        0x0 c:/nxp/mcuxpressoide_11.7.0_9198/ide/plugins/com.nxp.mcuxpresso.tools.win32_11.7.0.202209140929/tools/bin/../lib/gcc/arm-none-eabi/10.3.1/../../../../arm-none-eabi/lib/thumb/v7e-m+fp/hard\libcr_c.a(__fillbuf.o)
 .bss           0x00000000        0x0 c:/nxp/mcuxpressoide_11.7.0_9198/ide/plugins/com.nxp.mcuxpresso.tools.win32_11.7.0.202209140929/tools/bin/../lib/gcc/arm-none-eabi/10.3.1/../../../../arm-none-eabi/lib/thumb/v7e-m+fp/hard\libcr_c.a(__fillbuf.o)
 .text._Csys_read_
                0x00000000       0x22 c:/nxp/mcuxpressoide_11.7.0_9198/ide/plugins/com.nxp.mcuxpresso.tools.win32_11.7.0.202209140929/tools/bin/../lib/gcc/arm-none-eabi/10.3.1/../../../../arm-none-eabi/lib/thumb/v7e-m+fp/hard\libcr_c.a(__fillbuf.o)
 .text.__filbuf
                0x00000000      0x178 c:/nxp/mcuxpressoide_11.7.0_9198/ide/plugins/com.nxp.mcuxpresso.tools.win32_11.7.0.202209140929/tools/bin/../lib/gcc/arm-none-eabi/10.3.1/../../../../arm-none-eabi/lib/thumb/v7e-m+fp/hard\libcr_c.a(__fillbuf.o)
 .text._fillb2  0x00000000       0x1c c:/nxp/mcuxpressoide_11.7.0_9198/ide/plugins/com.nxp.mcuxpresso.tools.win32_11.7.0.202209140929/tools/bin/../lib/gcc/arm-none-eabi/10.3.1/../../../../arm-none-eabi/lib/thumb/v7e-m+fp/hard\libcr_c.a(__fillbuf.o)
 .comment       0x00000000       0x4a c:/nxp/mcuxpressoide_11.7.0_9198/ide/plugins/com.nxp.mcuxpresso.tools.win32_11.7.0.202209140929/tools/bin/../lib/gcc/arm-none-eabi/10.3.1/../../../../arm-none-eabi/lib/thumb/v7e-m+fp/hard\libcr_c.a(__fillbuf.o)
 .ARM.attributes
                0x00000000       0x34 c:/nxp/mcuxpressoide_11.7.0_9198/ide/plugins/com.nxp.mcuxpresso.tools.win32_11.7.0.202209140929/tools/bin/../lib/gcc/arm-none-eabi/10.3.1/../../../../arm-none-eabi/lib/thumb/v7e-m+fp/hard\libcr_c.a(__fillbuf.o)
 .text          0x00000000        0x0 c:/nxp/mcuxpressoide_11.7.0_9198/ide/plugins/com.nxp.mcuxpresso.tools.win32_11.7.0.202209140929/tools/bin/../lib/gcc/arm-none-eabi/10.3.1/../../../../arm-none-eabi/lib/thumb/v7e-m+fp/hard\libcr_c.a(__init_alloc.o)
 .data          0x00000000        0x0 c:/nxp/mcuxpressoide_11.7.0_9198/ide/plugins/com.nxp.mcuxpresso.tools.win32_11.7.0.202209140929/tools/bin/../lib/gcc/arm-none-eabi/10.3.1/../../../../arm-none-eabi/lib/thumb/v7e-m+fp/hard\libcr_c.a(__init_alloc.o)
 .bss           0x00000000        0x0 c:/nxp/mcuxpressoide_11.7.0_9198/ide/plugins/com.nxp.mcuxpresso.tools.win32_11.7.0.202209140929/tools/bin/../lib/gcc/arm-none-eabi/10.3.1/../../../../arm-none-eabi/lib/thumb/v7e-m+fp/hard\libcr_c.a(__init_alloc.o)
 .text._init_alloc
                0x00000000       0x14 c:/nxp/mcuxpressoide_11.7.0_9198/ide/plugins/com.nxp.mcuxpresso.tools.win32_11.7.0.202209140929/tools/bin/../lib/gcc/arm-none-eabi/10.3.1/../../../../arm-none-eabi/lib/thumb/v7e-m+fp/hard\libcr_c.a(__init_alloc.o)
 .text          0x00000000        0x0 c:/nxp/mcuxpressoide_11.7.0_9198/ide/plugins/com.nxp.mcuxpresso.tools.win32_11.7.0.202209140929/tools/bin/../lib/gcc/arm-none-eabi/10.3.1/../../../../arm-none-eabi/lib/thumb/v7e-m+fp/hard\libcr_c.a(_cr_sbrk.o)
 .data          0x00000000        0x0 c:/nxp/mcuxpressoide_11.7.0_9198/ide/plugins/com.nxp.mcuxpresso.tools.win32_11.7.0.202209140929/tools/bin/../lib/gcc/arm-none-eabi/10.3.1/../../../../arm-none-eabi/lib/thumb/v7e-m+fp/hard\libcr_c.a(_cr_sbrk.o)
 .bss           0x00000000        0x0 c:/nxp/mcuxpressoide_11.7.0_9198/ide/plugins/com.nxp.mcuxpresso.tools.win32_11.7.0.202209140929/tools/bin/../lib/gcc/arm-none-eabi/10.3.1/../../../../arm-none-eabi/lib/thumb/v7e-m+fp/hard\libcr_c.a(_cr_sbrk.o)
 .text          0x00000000        0x0 c:/nxp/mcuxpressoide_11.7.0_9198/ide/plugins/com.nxp.mcuxpresso.tools.win32_11.7.0.202209140929/tools/bin/../lib/gcc/arm-none-eabi/10.3.1/../../../../arm-none-eabi/lib/thumb/v7e-m+fp/hard\libcr_c.a(_deferredlazyseek.o)
 .data          0x00000000        0x0 c:/nxp/mcuxpressoide_11.7.0_9198/ide/plugins/com.nxp.mcuxpresso.tools.win32_11.7.0.202209140929/tools/bin/../lib/gcc/arm-none-eabi/10.3.1/../../../../arm-none-eabi/lib/thumb/v7e-m+fp/hard\libcr_c.a(_deferredlazyseek.o)
 .bss           0x00000000        0x0 c:/nxp/mcuxpressoide_11.7.0_9198/ide/plugins/com.nxp.mcuxpresso.tools.win32_11.7.0.202209140929/tools/bin/../lib/gcc/arm-none-eabi/10.3.1/../../../../arm-none-eabi/lib/thumb/v7e-m+fp/hard\libcr_c.a(_deferredlazyseek.o)
 .text          0x00000000        0x0 c:/nxp/mcuxpressoide_11.7.0_9198/ide/plugins/com.nxp.mcuxpresso.tools.win32_11.7.0.202209140929/tools/bin/../lib/gcc/arm-none-eabi/10.3.1/../../../../arm-none-eabi/lib/thumb/v7e-m+fp/hard\libcr_c.a(_fdopen.o)
 .data          0x00000000        0x0 c:/nxp/mcuxpressoide_11.7.0_9198/ide/plugins/com.nxp.mcuxpresso.tools.win32_11.7.0.202209140929/tools/bin/../lib/gcc/arm-none-eabi/10.3.1/../../../../arm-none-eabi/lib/thumb/v7e-m+fp/hard\libcr_c.a(_fdopen.o)
 .bss           0x00000000        0x0 c:/nxp/mcuxpressoide_11.7.0_9198/ide/plugins/com.nxp.mcuxpresso.tools.win32_11.7.0.202209140929/tools/bin/../lib/gcc/arm-none-eabi/10.3.1/../../../../arm-none-eabi/lib/thumb/v7e-m+fp/hard\libcr_c.a(_fdopen.o)
 .text          0x00000000        0x0 c:/nxp/mcuxpressoide_11.7.0_9198/ide/plugins/com.nxp.mcuxpresso.tools.win32_11.7.0.202209140929/tools/bin/../lib/gcc/arm-none-eabi/10.3.1/../../../../arm-none-eabi/lib/thumb/v7e-m+fp/hard\libcr_c.a(_fflush.o)
 .data          0x00000000        0x0 c:/nxp/mcuxpressoide_11.7.0_9198/ide/plugins/com.nxp.mcuxpresso.tools.win32_11.7.0.202209140929/tools/bin/../lib/gcc/arm-none-eabi/10.3.1/../../../../arm-none-eabi/lib/thumb/v7e-m+fp/hard\libcr_c.a(_fflush.o)
 .bss           0x00000000        0x0 c:/nxp/mcuxpressoide_11.7.0_9198/ide/plugins/com.nxp.mcuxpresso.tools.win32_11.7.0.202209140929/tools/bin/../lib/gcc/arm-none-eabi/10.3.1/../../../../arm-none-eabi/lib/thumb/v7e-m+fp/hard\libcr_c.a(_fflush.o)
 .text          0x00000000        0x0 c:/nxp/mcuxpressoide_11.7.0_9198/ide/plugins/com.nxp.mcuxpresso.tools.win32_11.7.0.202209140929/tools/bin/../lib/gcc/arm-none-eabi/10.3.1/../../../../arm-none-eabi/lib/thumb/v7e-m+fp/hard\libcr_c.a(_frexpl.o)
 .data          0x00000000        0x0 c:/nxp/mcuxpressoide_11.7.0_9198/ide/plugins/com.nxp.mcuxpresso.tools.win32_11.7.0.202209140929/tools/bin/../lib/gcc/arm-none-eabi/10.3.1/../../../../arm-none-eabi/lib/thumb/v7e-m+fp/hard\libcr_c.a(_frexpl.o)
 .bss           0x00000000        0x0 c:/nxp/mcuxpressoide_11.7.0_9198/ide/plugins/com.nxp.mcuxpresso.tools.win32_11.7.0.202209140929/tools/bin/../lib/gcc/arm-none-eabi/10.3.1/../../../../arm-none-eabi/lib/thumb/v7e-m+fp/hard\libcr_c.a(_frexpl.o)
 .text._frexpl  0x00000000       0x68 c:/nxp/mcuxpressoide_11.7.0_9198/ide/plugins/com.nxp.mcuxpresso.tools.win32_11.7.0.202209140929/tools/bin/../lib/gcc/arm-none-eabi/10.3.1/../../../../arm-none-eabi/lib/thumb/v7e-m+fp/hard\libcr_c.a(_frexpl.o)
 .comment       0x00000000       0x4a c:/nxp/mcuxpressoide_11.7.0_9198/ide/plugins/com.nxp.mcuxpresso.tools.win32_11.7.0.202209140929/tools/bin/../lib/gcc/arm-none-eabi/10.3.1/../../../../arm-none-eabi/lib/thumb/v7e-m+fp/hard\libcr_c.a(_frexpl.o)
 .ARM.attributes
                0x00000000       0x34 c:/nxp/mcuxpressoide_11.7.0_9198/ide/plugins/com.nxp.mcuxpresso.tools.win32_11.7.0.202209140929/tools/bin/../lib/gcc/arm-none-eabi/10.3.1/../../../../arm-none-eabi/lib/thumb/v7e-m+fp/hard\libcr_c.a(_frexpl.o)
 .text          0x00000000        0x0 c:/nxp/mcuxpressoide_11.7.0_9198/ide/plugins/com.nxp.mcuxpresso.tools.win32_11.7.0.202209140929/tools/bin/../lib/gcc/arm-none-eabi/10.3.1/../../../../arm-none-eabi/lib/thumb/v7e-m+fp/hard\libcr_c.a(_ldexpl.o)
 .data          0x00000000        0x0 c:/nxp/mcuxpressoide_11.7.0_9198/ide/plugins/com.nxp.mcuxpresso.tools.win32_11.7.0.202209140929/tools/bin/../lib/gcc/arm-none-eabi/10.3.1/../../../../arm-none-eabi/lib/thumb/v7e-m+fp/hard\libcr_c.a(_ldexpl.o)
 .bss           0x00000000        0x0 c:/nxp/mcuxpressoide_11.7.0_9198/ide/plugins/com.nxp.mcuxpresso.tools.win32_11.7.0.202209140929/tools/bin/../lib/gcc/arm-none-eabi/10.3.1/../../../../arm-none-eabi/lib/thumb/v7e-m+fp/hard\libcr_c.a(_ldexpl.o)
 .text._ldexpl  0x00000000       0x5c c:/nxp/mcuxpressoide_11.7.0_9198/ide/plugins/com.nxp.mcuxpresso.tools.win32_11.7.0.202209140929/tools/bin/../lib/gcc/arm-none-eabi/10.3.1/../../../../arm-none-eabi/lib/thumb/v7e-m+fp/hard\libcr_c.a(_ldexpl.o)
 .comment       0x00000000       0x4a c:/nxp/mcuxpressoide_11.7.0_9198/ide/plugins/com.nxp.mcuxpresso.tools.win32_11.7.0.202209140929/tools/bin/../lib/gcc/arm-none-eabi/10.3.1/../../../../arm-none-eabi/lib/thumb/v7e-m+fp/hard\libcr_c.a(_ldexpl.o)
 .ARM.attributes
                0x00000000       0x34 c:/nxp/mcuxpressoide_11.7.0_9198/ide/plugins/com.nxp.mcuxpresso.tools.win32_11.7.0.202209140929/tools/bin/../lib/gcc/arm-none-eabi/10.3.1/../../../../arm-none-eabi/lib/thumb/v7e-m+fp/hard\libcr_c.a(_ldexpl.o)
 .text          0x00000000        0x0 c:/nxp/mcuxpressoide_11.7.0_9198/ide/plugins/com.nxp.mcuxpresso.tools.win32_11.7.0.202209140929/tools/bin/../lib/gcc/arm-none-eabi/10.3.1/../../../../arm-none-eabi/lib/thumb/v7e-m+fp/hard\libcr_c.a(_writebuf.o)
 .data          0x00000000        0x0 c:/nxp/mcuxpressoide_11.7.0_9198/ide/plugins/com.nxp.mcuxpresso.tools.win32_11.7.0.202209140929/tools/bin/../lib/gcc/arm-none-eabi/10.3.1/../../../../arm-none-eabi/lib/thumb/v7e-m+fp/hard\libcr_c.a(_writebuf.o)
 .bss           0x00000000        0x0 c:/nxp/mcuxpressoide_11.7.0_9198/ide/plugins/com.nxp.mcuxpresso.tools.win32_11.7.0.202209140929/tools/bin/../lib/gcc/arm-none-eabi/10.3.1/../../../../arm-none-eabi/lib/thumb/v7e-m+fp/hard\libcr_c.a(_writebuf.o)
 .text          0x00000000        0x0 c:/nxp/mcuxpressoide_11.7.0_9198/ide/plugins/com.nxp.mcuxpresso.tools.win32_11.7.0.202209140929/tools/bin/../lib/gcc/arm-none-eabi/10.3.1/../../../../arm-none-eabi/lib/thumb/v7e-m+fp/hard\libcr_c.a(ctype.o)
 .data          0x00000000        0x0 c:/nxp/mcuxpressoide_11.7.0_9198/ide/plugins/com.nxp.mcuxpresso.tools.win32_11.7.0.202209140929/tools/bin/../lib/gcc/arm-none-eabi/10.3.1/../../../../arm-none-eabi/lib/thumb/v7e-m+fp/hard\libcr_c.a(ctype.o)
 .bss           0x00000000        0x0 c:/nxp/mcuxpressoide_11.7.0_9198/ide/plugins/com.nxp.mcuxpresso.tools.win32_11.7.0.202209140929/tools/bin/../lib/gcc/arm-none-eabi/10.3.1/../../../../arm-none-eabi/lib/thumb/v7e-m+fp/hard\libcr_c.a(ctype.o)
 .text.isalnum  0x00000000       0x14 c:/nxp/mcuxpressoide_11.7.0_9198/ide/plugins/com.nxp.mcuxpresso.tools.win32_11.7.0.202209140929/tools/bin/../lib/gcc/arm-none-eabi/10.3.1/../../../../arm-none-eabi/lib/thumb/v7e-m+fp/hard\libcr_c.a(ctype.o)
 .text.isalpha  0x00000000       0x14 c:/nxp/mcuxpressoide_11.7.0_9198/ide/plugins/com.nxp.mcuxpresso.tools.win32_11.7.0.202209140929/tools/bin/../lib/gcc/arm-none-eabi/10.3.1/../../../../arm-none-eabi/lib/thumb/v7e-m+fp/hard\libcr_c.a(ctype.o)
 .text.iscntrl  0x00000000       0x14 c:/nxp/mcuxpressoide_11.7.0_9198/ide/plugins/com.nxp.mcuxpresso.tools.win32_11.7.0.202209140929/tools/bin/../lib/gcc/arm-none-eabi/10.3.1/../../../../arm-none-eabi/lib/thumb/v7e-m+fp/hard\libcr_c.a(ctype.o)
 .text.isdigit  0x00000000       0x14 c:/nxp/mcuxpressoide_11.7.0_9198/ide/plugins/com.nxp.mcuxpresso.tools.win32_11.7.0.202209140929/tools/bin/../lib/gcc/arm-none-eabi/10.3.1/../../../../arm-none-eabi/lib/thumb/v7e-m+fp/hard\libcr_c.a(ctype.o)
 .text.isgraph  0x00000000       0x14 c:/nxp/mcuxpressoide_11.7.0_9198/ide/plugins/com.nxp.mcuxpresso.tools.win32_11.7.0.202209140929/tools/bin/../lib/gcc/arm-none-eabi/10.3.1/../../../../arm-none-eabi/lib/thumb/v7e-m+fp/hard\libcr_c.a(ctype.o)
 .text.islower  0x00000000       0x14 c:/nxp/mcuxpressoide_11.7.0_9198/ide/plugins/com.nxp.mcuxpresso.tools.win32_11.7.0.202209140929/tools/bin/../lib/gcc/arm-none-eabi/10.3.1/../../../../arm-none-eabi/lib/thumb/v7e-m+fp/hard\libcr_c.a(ctype.o)
 .text.isprint  0x00000000       0x14 c:/nxp/mcuxpressoide_11.7.0_9198/ide/plugins/com.nxp.mcuxpresso.tools.win32_11.7.0.202209140929/tools/bin/../lib/gcc/arm-none-eabi/10.3.1/../../../../arm-none-eabi/lib/thumb/v7e-m+fp/hard\libcr_c.a(ctype.o)
 .text.ispunct  0x00000000       0x14 c:/nxp/mcuxpressoide_11.7.0_9198/ide/plugins/com.nxp.mcuxpresso.tools.win32_11.7.0.202209140929/tools/bin/../lib/gcc/arm-none-eabi/10.3.1/../../../../arm-none-eabi/lib/thumb/v7e-m+fp/hard\libcr_c.a(ctype.o)
 .text.isspace  0x00000000       0x14 c:/nxp/mcuxpressoide_11.7.0_9198/ide/plugins/com.nxp.mcuxpresso.tools.win32_11.7.0.202209140929/tools/bin/../lib/gcc/arm-none-eabi/10.3.1/../../../../arm-none-eabi/lib/thumb/v7e-m+fp/hard\libcr_c.a(ctype.o)
 .text.isupper  0x00000000       0x14 c:/nxp/mcuxpressoide_11.7.0_9198/ide/plugins/com.nxp.mcuxpresso.tools.win32_11.7.0.202209140929/tools/bin/../lib/gcc/arm-none-eabi/10.3.1/../../../../arm-none-eabi/lib/thumb/v7e-m+fp/hard\libcr_c.a(ctype.o)
 .text.isxdigit
                0x00000000       0x14 c:/nxp/mcuxpressoide_11.7.0_9198/ide/plugins/com.nxp.mcuxpresso.tools.win32_11.7.0.202209140929/tools/bin/../lib/gcc/arm-none-eabi/10.3.1/../../../../arm-none-eabi/lib/thumb/v7e-m+fp/hard\libcr_c.a(ctype.o)
 .text.tolower  0x00000000       0x14 c:/nxp/mcuxpressoide_11.7.0_9198/ide/plugins/com.nxp.mcuxpresso.tools.win32_11.7.0.202209140929/tools/bin/../lib/gcc/arm-none-eabi/10.3.1/../../../../arm-none-eabi/lib/thumb/v7e-m+fp/hard\libcr_c.a(ctype.o)
 .text.toupper  0x00000000       0x14 c:/nxp/mcuxpressoide_11.7.0_9198/ide/plugins/com.nxp.mcuxpresso.tools.win32_11.7.0.202209140929/tools/bin/../lib/gcc/arm-none-eabi/10.3.1/../../../../arm-none-eabi/lib/thumb/v7e-m+fp/hard\libcr_c.a(ctype.o)
 .text          0x00000000        0x0 c:/nxp/mcuxpressoide_11.7.0_9198/ide/plugins/com.nxp.mcuxpresso.tools.win32_11.7.0.202209140929/tools/bin/../lib/gcc/arm-none-eabi/10.3.1/../../../../arm-none-eabi/lib/thumb/v7e-m+fp/hard\libcr_c.a(fclose.o)
 .data          0x00000000        0x0 c:/nxp/mcuxpressoide_11.7.0_9198/ide/plugins/com.nxp.mcuxpresso.tools.win32_11.7.0.202209140929/tools/bin/../lib/gcc/arm-none-eabi/10.3.1/../../../../arm-none-eabi/lib/thumb/v7e-m+fp/hard\libcr_c.a(fclose.o)
 .bss           0x00000000        0x0 c:/nxp/mcuxpressoide_11.7.0_9198/ide/plugins/com.nxp.mcuxpresso.tools.win32_11.7.0.202209140929/tools/bin/../lib/gcc/arm-none-eabi/10.3.1/../../../../arm-none-eabi/lib/thumb/v7e-m+fp/hard\libcr_c.a(fclose.o)
 .text          0x00000000        0x0 c:/nxp/mcuxpressoide_11.7.0_9198/ide/plugins/com.nxp.mcuxpresso.tools.win32_11.7.0.202209140929/tools/bin/../lib/gcc/arm-none-eabi/10.3.1/../../../../arm-none-eabi/lib/thumb/v7e-m+fp/hard\libcr_c.a(fflush.o)
 .data          0x00000000        0x0 c:/nxp/mcuxpressoide_11.7.0_9198/ide/plugins/com.nxp.mcuxpresso.tools.win32_11.7.0.202209140929/tools/bin/../lib/gcc/arm-none-eabi/10.3.1/../../../../arm-none-eabi/lib/thumb/v7e-m+fp/hard\libcr_c.a(fflush.o)
 .bss           0x00000000        0x0 c:/nxp/mcuxpressoide_11.7.0_9198/ide/plugins/com.nxp.mcuxpresso.tools.win32_11.7.0.202209140929/tools/bin/../lib/gcc/arm-none-eabi/10.3.1/../../../../arm-none-eabi/lib/thumb/v7e-m+fp/hard\libcr_c.a(fflush.o)
 .text          0x00000000        0x0 c:/nxp/mcuxpressoide_11.7.0_9198/ide/plugins/com.nxp.mcuxpresso.tools.win32_11.7.0.202209140929/tools/bin/../lib/gcc/arm-none-eabi/10.3.1/../../../../arm-none-eabi/lib/thumb/v7e-m+fp/hard\libcr_c.a(fseek.o)
 .data          0x00000000        0x0 c:/nxp/mcuxpressoide_11.7.0_9198/ide/plugins/com.nxp.mcuxpresso.tools.win32_11.7.0.202209140929/tools/bin/../lib/gcc/arm-none-eabi/10.3.1/../../../../arm-none-eabi/lib/thumb/v7e-m+fp/hard\libcr_c.a(fseek.o)
 .bss           0x00000000        0x0 c:/nxp/mcuxpressoide_11.7.0_9198/ide/plugins/com.nxp.mcuxpresso.tools.win32_11.7.0.202209140929/tools/bin/../lib/gcc/arm-none-eabi/10.3.1/../../../../arm-none-eabi/lib/thumb/v7e-m+fp/hard\libcr_c.a(fseek.o)
 .text          0x00000000        0x0 c:/nxp/mcuxpressoide_11.7.0_9198/ide/plugins/com.nxp.mcuxpresso.tools.win32_11.7.0.202209140929/tools/bin/../lib/gcc/arm-none-eabi/10.3.1/../../../../arm-none-eabi/lib/thumb/v7e-m+fp/hard\libcr_c.a(ftell.o)
 .data          0x00000000        0x0 c:/nxp/mcuxpressoide_11.7.0_9198/ide/plugins/com.nxp.mcuxpresso.tools.win32_11.7.0.202209140929/tools/bin/../lib/gcc/arm-none-eabi/10.3.1/../../../../arm-none-eabi/lib/thumb/v7e-m+fp/hard\libcr_c.a(ftell.o)
 .bss           0x00000000        0x0 c:/nxp/mcuxpressoide_11.7.0_9198/ide/plugins/com.nxp.mcuxpresso.tools.win32_11.7.0.202209140929/tools/bin/../lib/gcc/arm-none-eabi/10.3.1/../../../../arm-none-eabi/lib/thumb/v7e-m+fp/hard\libcr_c.a(ftell.o)
 .text          0x00000000        0x0 c:/nxp/mcuxpressoide_11.7.0_9198/ide/plugins/com.nxp.mcuxpresso.tools.win32_11.7.0.202209140929/tools/bin/../lib/gcc/arm-none-eabi/10.3.1/../../../../arm-none-eabi/lib/thumb/v7e-m+fp/hard\libcr_c.a(remove.o)
 .data          0x00000000        0x0 c:/nxp/mcuxpressoide_11.7.0_9198/ide/plugins/com.nxp.mcuxpresso.tools.win32_11.7.0.202209140929/tools/bin/../lib/gcc/arm-none-eabi/10.3.1/../../../../arm-none-eabi/lib/thumb/v7e-m+fp/hard\libcr_c.a(remove.o)
 .bss           0x00000000        0x0 c:/nxp/mcuxpressoide_11.7.0_9198/ide/plugins/com.nxp.mcuxpresso.tools.win32_11.7.0.202209140929/tools/bin/../lib/gcc/arm-none-eabi/10.3.1/../../../../arm-none-eabi/lib/thumb/v7e-m+fp/hard\libcr_c.a(remove.o)
 .text.rename   0x00000000       0x2a c:/nxp/mcuxpressoide_11.7.0_9198/ide/plugins/com.nxp.mcuxpresso.tools.win32_11.7.0.202209140929/tools/bin/../lib/gcc/arm-none-eabi/10.3.1/../../../../arm-none-eabi/lib/thumb/v7e-m+fp/hard\libcr_c.a(remove.o)
 .text          0x00000000        0x0 c:/nxp/mcuxpressoide_11.7.0_9198/ide/plugins/com.nxp.mcuxpresso.tools.win32_11.7.0.202209140929/tools/bin/../lib/gcc/arm-none-eabi/10.3.1/../../../../arm-none-eabi/lib/thumb/v7e-m+fp/hard\libcr_c.a(_cr_check_heap.o)
 .data          0x00000000        0x0 c:/nxp/mcuxpressoide_11.7.0_9198/ide/plugins/com.nxp.mcuxpresso.tools.win32_11.7.0.202209140929/tools/bin/../lib/gcc/arm-none-eabi/10.3.1/../../../../arm-none-eabi/lib/thumb/v7e-m+fp/hard\libcr_c.a(_cr_check_heap.o)
 .bss           0x00000000        0x0 c:/nxp/mcuxpressoide_11.7.0_9198/ide/plugins/com.nxp.mcuxpresso.tools.win32_11.7.0.202209140929/tools/bin/../lib/gcc/arm-none-eabi/10.3.1/../../../../arm-none-eabi/lib/thumb/v7e-m+fp/hard\libcr_c.a(_cr_check_heap.o)
 .text          0x00000000        0x0 c:/nxp/mcuxpressoide_11.7.0_9198/ide/plugins/com.nxp.mcuxpresso.tools.win32_11.7.0.202209140929/tools/bin/../lib/gcc/arm-none-eabi/10.3.1/../../../../arm-none-eabi/lib/thumb/v7e-m+fp/hard\libcr_c.a(_do_fflush.o)
 .data          0x00000000        0x0 c:/nxp/mcuxpressoide_11.7.0_9198/ide/plugins/com.nxp.mcuxpresso.tools.win32_11.7.0.202209140929/tools/bin/../lib/gcc/arm-none-eabi/10.3.1/../../../../arm-none-eabi/lib/thumb/v7e-m+fp/hard\libcr_c.a(_do_fflush.o)
 .bss           0x00000000        0x0 c:/nxp/mcuxpressoide_11.7.0_9198/ide/plugins/com.nxp.mcuxpresso.tools.win32_11.7.0.202209140929/tools/bin/../lib/gcc/arm-none-eabi/10.3.1/../../../../arm-none-eabi/lib/thumb/v7e-m+fp/hard\libcr_c.a(_do_fflush.o)
 .text          0x00000000        0x0 c:/nxp/mcuxpressoide_11.7.0_9198/ide/plugins/com.nxp.mcuxpresso.tools.win32_11.7.0.202209140929/tools/bin/../lib/gcc/arm-none-eabi/10.3.1/thumb/v7e-m+fp/hard\libcr_eabihelpers.a(division_64.o)
 .data          0x00000000        0x0 c:/nxp/mcuxpressoide_11.7.0_9198/ide/plugins/com.nxp.mcuxpresso.tools.win32_11.7.0.202209140929/tools/bin/../lib/gcc/arm-none-eabi/10.3.1/thumb/v7e-m+fp/hard\libcr_eabihelpers.a(division_64.o)
 .bss           0x00000000        0x0 c:/nxp/mcuxpressoide_11.7.0_9198/ide/plugins/com.nxp.mcuxpresso.tools.win32_11.7.0.202209140929/tools/bin/../lib/gcc/arm-none-eabi/10.3.1/thumb/v7e-m+fp/hard\libcr_eabihelpers.a(division_64.o)
 .text.__aeabi_division_ldivmod
                0x00000000       0x26 c:/nxp/mcuxpressoide_11.7.0_9198/ide/plugins/com.nxp.mcuxpresso.tools.win32_11.7.0.202209140929/tools/bin/../lib/gcc/arm-none-eabi/10.3.1/thumb/v7e-m+fp/hard\libcr_eabihelpers.a(division_64.o)
 .text          0x00000000        0x0 c:/nxp/mcuxpressoide_11.7.0_9198/ide/plugins/com.nxp.mcuxpresso.tools.win32_11.7.0.202209140929/tools/bin/../lib/gcc/arm-none-eabi/10.3.1/thumb/v7e-m+fp/hard\libcr_eabihelpers.a(division_idiv0.o)
 .data          0x00000000        0x0 c:/nxp/mcuxpressoide_11.7.0_9198/ide/plugins/com.nxp.mcuxpresso.tools.win32_11.7.0.202209140929/tools/bin/../lib/gcc/arm-none-eabi/10.3.1/thumb/v7e-m+fp/hard\libcr_eabihelpers.a(division_idiv0.o)
 .bss           0x00000000        0x0 c:/nxp/mcuxpressoide_11.7.0_9198/ide/plugins/com.nxp.mcuxpresso.tools.win32_11.7.0.202209140929/tools/bin/../lib/gcc/arm-none-eabi/10.3.1/thumb/v7e-m+fp/hard\libcr_eabihelpers.a(division_idiv0.o)
 .text          0x00000000        0x0 c:/nxp/mcuxpressoide_11.7.0_9198/ide/plugins/com.nxp.mcuxpresso.tools.win32_11.7.0.202209140929/tools/bin/../lib/gcc/arm-none-eabi/10.3.1/thumb/v7e-m+fp/hard\libcr_eabihelpers.a(double.o)
 .data          0x00000000        0x0 c:/nxp/mcuxpressoide_11.7.0_9198/ide/plugins/com.nxp.mcuxpresso.tools.win32_11.7.0.202209140929/tools/bin/../lib/gcc/arm-none-eabi/10.3.1/thumb/v7e-m+fp/hard\libcr_eabihelpers.a(double.o)
 .bss           0x00000000        0x0 c:/nxp/mcuxpressoide_11.7.0_9198/ide/plugins/com.nxp.mcuxpresso.tools.win32_11.7.0.202209140929/tools/bin/../lib/gcc/arm-none-eabi/10.3.1/thumb/v7e-m+fp/hard\libcr_eabihelpers.a(double.o)
 .text.__aeabi_ddiv
                0x00000000      0x138 c:/nxp/mcuxpressoide_11.7.0_9198/ide/plugins/com.nxp.mcuxpresso.tools.win32_11.7.0.202209140929/tools/bin/../lib/gcc/arm-none-eabi/10.3.1/thumb/v7e-m+fp/hard\libcr_eabihelpers.a(double.o)
 .text.__aeabi_dsub
                0x00000000      0x1ac c:/nxp/mcuxpressoide_11.7.0_9198/ide/plugins/com.nxp.mcuxpresso.tools.win32_11.7.0.202209140929/tools/bin/../lib/gcc/arm-none-eabi/10.3.1/thumb/v7e-m+fp/hard\libcr_eabihelpers.a(double.o)
 .text.__aeabi_dadd
                0x00000000      0x114 c:/nxp/mcuxpressoide_11.7.0_9198/ide/plugins/com.nxp.mcuxpresso.tools.win32_11.7.0.202209140929/tools/bin/../lib/gcc/arm-none-eabi/10.3.1/thumb/v7e-m+fp/hard\libcr_eabihelpers.a(double.o)
 .text.__aeabi_drsub
                0x00000000       0x18 c:/nxp/mcuxpressoide_11.7.0_9198/ide/plugins/com.nxp.mcuxpresso.tools.win32_11.7.0.202209140929/tools/bin/../lib/gcc/arm-none-eabi/10.3.1/thumb/v7e-m+fp/hard\libcr_eabihelpers.a(double.o)
 .text.__aeabi_dneg
                0x00000000        0xa c:/nxp/mcuxpressoide_11.7.0_9198/ide/plugins/com.nxp.mcuxpresso.tools.win32_11.7.0.202209140929/tools/bin/../lib/gcc/arm-none-eabi/10.3.1/thumb/v7e-m+fp/hard\libcr_eabihelpers.a(double.o)
 .text.__aeabi_d2iz
                0x00000000       0x40 c:/nxp/mcuxpressoide_11.7.0_9198/ide/plugins/com.nxp.mcuxpresso.tools.win32_11.7.0.202209140929/tools/bin/../lib/gcc/arm-none-eabi/10.3.1/thumb/v7e-m+fp/hard\libcr_eabihelpers.a(double.o)
 .text.__aeabi_d2uiz
                0x00000000       0x30 c:/nxp/mcuxpressoide_11.7.0_9198/ide/plugins/com.nxp.mcuxpresso.tools.win32_11.7.0.202209140929/tools/bin/../lib/gcc/arm-none-eabi/10.3.1/thumb/v7e-m+fp/hard\libcr_eabihelpers.a(double.o)
 .text.__aeabi_d2lz
                0x00000000       0x74 c:/nxp/mcuxpressoide_11.7.0_9198/ide/plugins/com.nxp.mcuxpresso.tools.win32_11.7.0.202209140929/tools/bin/../lib/gcc/arm-none-eabi/10.3.1/thumb/v7e-m+fp/hard\libcr_eabihelpers.a(double.o)
 .text.__aeabi_d2ulz
                0x00000000       0x58 c:/nxp/mcuxpressoide_11.7.0_9198/ide/plugins/com.nxp.mcuxpresso.tools.win32_11.7.0.202209140929/tools/bin/../lib/gcc/arm-none-eabi/10.3.1/thumb/v7e-m+fp/hard\libcr_eabihelpers.a(double.o)
 .text.__bhs_ul2d
                0x00000000       0x8a c:/nxp/mcuxpressoide_11.7.0_9198/ide/plugins/com.nxp.mcuxpresso.tools.win32_11.7.0.202209140929/tools/bin/../lib/gcc/arm-none-eabi/10.3.1/thumb/v7e-m+fp/hard\libcr_eabihelpers.a(double.o)
 .text.__aeabi_ui2d
                0x00000000        0x8 c:/nxp/mcuxpressoide_11.7.0_9198/ide/plugins/com.nxp.mcuxpresso.tools.win32_11.7.0.202209140929/tools/bin/../lib/gcc/arm-none-eabi/10.3.1/thumb/v7e-m+fp/hard\libcr_eabihelpers.a(double.o)
 .text.__aeabi_l2d
                0x00000000       0x1c c:/nxp/mcuxpressoide_11.7.0_9198/ide/plugins/com.nxp.mcuxpresso.tools.win32_11.7.0.202209140929/tools/bin/../lib/gcc/arm-none-eabi/10.3.1/thumb/v7e-m+fp/hard\libcr_eabihelpers.a(double.o)
 .text.__aeabi_ul2d
                0x00000000        0x8 c:/nxp/mcuxpressoide_11.7.0_9198/ide/plugins/com.nxp.mcuxpresso.tools.win32_11.7.0.202209140929/tools/bin/../lib/gcc/arm-none-eabi/10.3.1/thumb/v7e-m+fp/hard\libcr_eabihelpers.a(double.o)
 .text.__aeabi_dcmpeq
                0x00000000       0x30 c:/nxp/mcuxpressoide_11.7.0_9198/ide/plugins/com.nxp.mcuxpresso.tools.win32_11.7.0.202209140929/tools/bin/../lib/gcc/arm-none-eabi/10.3.1/thumb/v7e-m+fp/hard\libcr_eabihelpers.a(double.o)
 .text.__aeabi_dcmplt
                0x00000000       0x56 c:/nxp/mcuxpressoide_11.7.0_9198/ide/plugins/com.nxp.mcuxpresso.tools.win32_11.7.0.202209140929/tools/bin/../lib/gcc/arm-none-eabi/10.3.1/thumb/v7e-m+fp/hard\libcr_eabihelpers.a(double.o)
 .text.__aeabi_dcmpgt
                0x00000000       0x56 c:/nxp/mcuxpressoide_11.7.0_9198/ide/plugins/com.nxp.mcuxpresso.tools.win32_11.7.0.202209140929/tools/bin/../lib/gcc/arm-none-eabi/10.3.1/thumb/v7e-m+fp/hard\libcr_eabihelpers.a(double.o)
 .text.__aeabi_dcmple
                0x00000000       0x56 c:/nxp/mcuxpressoide_11.7.0_9198/ide/plugins/com.nxp.mcuxpresso.tools.win32_11.7.0.202209140929/tools/bin/../lib/gcc/arm-none-eabi/10.3.1/thumb/v7e-m+fp/hard\libcr_eabihelpers.a(double.o)
 .text.__aeabi_dcmpge
                0x00000000       0x56 c:/nxp/mcuxpressoide_11.7.0_9198/ide/plugins/com.nxp.mcuxpresso.tools.win32_11.7.0.202209140929/tools/bin/../lib/gcc/arm-none-eabi/10.3.1/thumb/v7e-m+fp/hard\libcr_eabihelpers.a(double.o)
 .text.__aeabi_dcmpun
                0x00000000       0x1a c:/nxp/mcuxpressoide_11.7.0_9198/ide/plugins/com.nxp.mcuxpresso.tools.win32_11.7.0.202209140929/tools/bin/../lib/gcc/arm-none-eabi/10.3.1/thumb/v7e-m+fp/hard\libcr_eabihelpers.a(double.o)
 .text.__aeabi_cdcmple
                0x00000000       0x2c c:/nxp/mcuxpressoide_11.7.0_9198/ide/plugins/com.nxp.mcuxpresso.tools.win32_11.7.0.202209140929/tools/bin/../lib/gcc/arm-none-eabi/10.3.1/thumb/v7e-m+fp/hard\libcr_eabihelpers.a(double.o)
 .text.__aeabi_cdrcmple
                0x00000000       0x14 c:/nxp/mcuxpressoide_11.7.0_9198/ide/plugins/com.nxp.mcuxpresso.tools.win32_11.7.0.202209140929/tools/bin/../lib/gcc/arm-none-eabi/10.3.1/thumb/v7e-m+fp/hard\libcr_eabihelpers.a(double.o)
 .text          0x00000000        0x0 c:/nxp/mcuxpressoide_11.7.0_9198/ide/plugins/com.nxp.mcuxpresso.tools.win32_11.7.0.202209140929/tools/bin/../lib/gcc/arm-none-eabi/10.3.1/thumb/v7e-m+fp/hard\libcr_eabihelpers.a(memcpy.o)
 .data          0x00000000        0x0 c:/nxp/mcuxpressoide_11.7.0_9198/ide/plugins/com.nxp.mcuxpresso.tools.win32_11.7.0.202209140929/tools/bin/../lib/gcc/arm-none-eabi/10.3.1/thumb/v7e-m+fp/hard\libcr_eabihelpers.a(memcpy.o)
 .bss           0x00000000        0x0 c:/nxp/mcuxpressoide_11.7.0_9198/ide/plugins/com.nxp.mcuxpresso.tools.win32_11.7.0.202209140929/tools/bin/../lib/gcc/arm-none-eabi/10.3.1/thumb/v7e-m+fp/hard\libcr_eabihelpers.a(memcpy.o)
 .text.__aeabi_memmove
                0x00000000       0x1c c:/nxp/mcuxpressoide_11.7.0_9198/ide/plugins/com.nxp.mcuxpresso.tools.win32_11.7.0.202209140929/tools/bin/../lib/gcc/arm-none-eabi/10.3.1/thumb/v7e-m+fp/hard\libcr_eabihelpers.a(memcpy.o)
 .text.__aeabi_memclr
                0x00000000        0x8 c:/nxp/mcuxpressoide_11.7.0_9198/ide/plugins/com.nxp.mcuxpresso.tools.win32_11.7.0.202209140929/tools/bin/../lib/gcc/arm-none-eabi/10.3.1/thumb/v7e-m+fp/hard\libcr_eabihelpers.a(memcpy.o)
 .text.__aeabi_memset
                0x00000000        0xa c:/nxp/mcuxpressoide_11.7.0_9198/ide/plugins/com.nxp.mcuxpresso.tools.win32_11.7.0.202209140929/tools/bin/../lib/gcc/arm-none-eabi/10.3.1/thumb/v7e-m+fp/hard\libcr_eabihelpers.a(memcpy.o)
 .text          0x00000000        0x0 c:/nxp/mcuxpressoide_11.7.0_9198/ide/plugins/com.nxp.mcuxpresso.tools.win32_11.7.0.202209140929/tools/bin/../lib/gcc/arm-none-eabi/10.3.1/../../../../arm-none-eabi/lib/thumb/v7e-m+fp/hard\libcr_nohost_nf.a(__ciob.o)
 .data          0x00000000        0x0 c:/nxp/mcuxpressoide_11.7.0_9198/ide/plugins/com.nxp.mcuxpresso.tools.win32_11.7.0.202209140929/tools/bin/../lib/gcc/arm-none-eabi/10.3.1/../../../../arm-none-eabi/lib/thumb/v7e-m+fp/hard\libcr_nohost_nf.a(__ciob.o)
 .bss           0x00000000        0x0 c:/nxp/mcuxpressoide_11.7.0_9198/ide/plugins/com.nxp.mcuxpresso.tools.win32_11.7.0.202209140929/tools/bin/../lib/gcc/arm-none-eabi/10.3.1/../../../../arm-none-eabi/lib/thumb/v7e-m+fp/hard\libcr_nohost_nf.a(__ciob.o)
 .text          0x00000000        0x0 c:/nxp/mcuxpressoide_11.7.0_9198/ide/plugins/com.nxp.mcuxpresso.tools.win32_11.7.0.202209140929/tools/bin/../lib/gcc/arm-none-eabi/10.3.1/../../../../arm-none-eabi/lib/thumb/v7e-m+fp/hard\libcr_nohost_nf.a(__sys_appexit.o)
 .data          0x00000000        0x0 c:/nxp/mcuxpressoide_11.7.0_9198/ide/plugins/com.nxp.mcuxpresso.tools.win32_11.7.0.202209140929/tools/bin/../lib/gcc/arm-none-eabi/10.3.1/../../../../arm-none-eabi/lib/thumb/v7e-m+fp/hard\libcr_nohost_nf.a(__sys_appexit.o)
 .bss           0x00000000        0x0 c:/nxp/mcuxpressoide_11.7.0_9198/ide/plugins/com.nxp.mcuxpresso.tools.win32_11.7.0.202209140929/tools/bin/../lib/gcc/arm-none-eabi/10.3.1/../../../../arm-none-eabi/lib/thumb/v7e-m+fp/hard\libcr_nohost_nf.a(__sys_appexit.o)
 .text          0x00000000        0x0 c:/nxp/mcuxpressoide_11.7.0_9198/ide/plugins/com.nxp.mcuxpresso.tools.win32_11.7.0.202209140929/tools/bin/../lib/gcc/arm-none-eabi/10.3.1/../../../../arm-none-eabi/lib/thumb/v7e-m+fp/hard\libcr_nohost_nf.a(__sys_close.o)
 .data          0x00000000        0x0 c:/nxp/mcuxpressoide_11.7.0_9198/ide/plugins/com.nxp.mcuxpresso.tools.win32_11.7.0.202209140929/tools/bin/../lib/gcc/arm-none-eabi/10.3.1/../../../../arm-none-eabi/lib/thumb/v7e-m+fp/hard\libcr_nohost_nf.a(__sys_close.o)
 .bss           0x00000000        0x0 c:/nxp/mcuxpressoide_11.7.0_9198/ide/plugins/com.nxp.mcuxpresso.tools.win32_11.7.0.202209140929/tools/bin/../lib/gcc/arm-none-eabi/10.3.1/../../../../arm-none-eabi/lib/thumb/v7e-m+fp/hard\libcr_nohost_nf.a(__sys_close.o)
 .text          0x00000000        0x0 c:/nxp/mcuxpressoide_11.7.0_9198/ide/plugins/com.nxp.mcuxpresso.tools.win32_11.7.0.202209140929/tools/bin/../lib/gcc/arm-none-eabi/10.3.1/../../../../arm-none-eabi/lib/thumb/v7e-m+fp/hard\libcr_nohost_nf.a(__sys_flen.o)
 .data          0x00000000        0x0 c:/nxp/mcuxpressoide_11.7.0_9198/ide/plugins/com.nxp.mcuxpresso.tools.win32_11.7.0.202209140929/tools/bin/../lib/gcc/arm-none-eabi/10.3.1/../../../../arm-none-eabi/lib/thumb/v7e-m+fp/hard\libcr_nohost_nf.a(__sys_flen.o)
 .bss           0x00000000        0x0 c:/nxp/mcuxpressoide_11.7.0_9198/ide/plugins/com.nxp.mcuxpresso.tools.win32_11.7.0.202209140929/tools/bin/../lib/gcc/arm-none-eabi/10.3.1/../../../../arm-none-eabi/lib/thumb/v7e-m+fp/hard\libcr_nohost_nf.a(__sys_flen.o)
 .text          0x00000000        0x0 c:/nxp/mcuxpressoide_11.7.0_9198/ide/plugins/com.nxp.mcuxpresso.tools.win32_11.7.0.202209140929/tools/bin/../lib/gcc/arm-none-eabi/10.3.1/../../../../arm-none-eabi/lib/thumb/v7e-m+fp/hard\libcr_nohost_nf.a(__sys_istty.o)
 .data          0x00000000        0x0 c:/nxp/mcuxpressoide_11.7.0_9198/ide/plugins/com.nxp.mcuxpresso.tools.win32_11.7.0.202209140929/tools/bin/../lib/gcc/arm-none-eabi/10.3.1/../../../../arm-none-eabi/lib/thumb/v7e-m+fp/hard\libcr_nohost_nf.a(__sys_istty.o)
 .bss           0x00000000        0x0 c:/nxp/mcuxpressoide_11.7.0_9198/ide/plugins/com.nxp.mcuxpresso.tools.win32_11.7.0.202209140929/tools/bin/../lib/gcc/arm-none-eabi/10.3.1/../../../../arm-none-eabi/lib/thumb/v7e-m+fp/hard\libcr_nohost_nf.a(__sys_istty.o)
 .text          0x00000000        0x0 c:/nxp/mcuxpressoide_11.7.0_9198/ide/plugins/com.nxp.mcuxpresso.tools.win32_11.7.0.202209140929/tools/bin/../lib/gcc/arm-none-eabi/10.3.1/../../../../arm-none-eabi/lib/thumb/v7e-m+fp/hard\libcr_nohost_nf.a(__sys_read.o)
 .data          0x00000000        0x0 c:/nxp/mcuxpressoide_11.7.0_9198/ide/plugins/com.nxp.mcuxpresso.tools.win32_11.7.0.202209140929/tools/bin/../lib/gcc/arm-none-eabi/10.3.1/../../../../arm-none-eabi/lib/thumb/v7e-m+fp/hard\libcr_nohost_nf.a(__sys_read.o)
 .bss           0x00000000        0x0 c:/nxp/mcuxpressoide_11.7.0_9198/ide/plugins/com.nxp.mcuxpresso.tools.win32_11.7.0.202209140929/tools/bin/../lib/gcc/arm-none-eabi/10.3.1/../../../../arm-none-eabi/lib/thumb/v7e-m+fp/hard\libcr_nohost_nf.a(__sys_read.o)
 .text.__sys_read
                0x00000000        0x4 c:/nxp/mcuxpressoide_11.7.0_9198/ide/plugins/com.nxp.mcuxpresso.tools.win32_11.7.0.202209140929/tools/bin/../lib/gcc/arm-none-eabi/10.3.1/../../../../arm-none-eabi/lib/thumb/v7e-m+fp/hard\libcr_nohost_nf.a(__sys_read.o)
 .comment       0x00000000       0x4a c:/nxp/mcuxpressoide_11.7.0_9198/ide/plugins/com.nxp.mcuxpresso.tools.win32_11.7.0.202209140929/tools/bin/../lib/gcc/arm-none-eabi/10.3.1/../../../../arm-none-eabi/lib/thumb/v7e-m+fp/hard\libcr_nohost_nf.a(__sys_read.o)
 .ARM.attributes
                0x00000000       0x34 c:/nxp/mcuxpressoide_11.7.0_9198/ide/plugins/com.nxp.mcuxpresso.tools.win32_11.7.0.202209140929/tools/bin/../lib/gcc/arm-none-eabi/10.3.1/../../../../arm-none-eabi/lib/thumb/v7e-m+fp/hard\libcr_nohost_nf.a(__sys_read.o)
 .text          0x00000000        0x0 c:/nxp/mcuxpressoide_11.7.0_9198/ide/plugins/com.nxp.mcuxpresso.tools.win32_11.7.0.202209140929/tools/bin/../lib/gcc/arm-none-eabi/10.3.1/../../../../arm-none-eabi/lib/thumb/v7e-m+fp/hard\libcr_nohost_nf.a(__sys_readc.o)
 .data          0x00000000        0x0 c:/nxp/mcuxpressoide_11.7.0_9198/ide/plugins/com.nxp.mcuxpresso.tools.win32_11.7.0.202209140929/tools/bin/../lib/gcc/arm-none-eabi/10.3.1/../../../../arm-none-eabi/lib/thumb/v7e-m+fp/hard\libcr_nohost_nf.a(__sys_readc.o)
 .bss           0x00000000        0x0 c:/nxp/mcuxpressoide_11.7.0_9198/ide/plugins/com.nxp.mcuxpresso.tools.win32_11.7.0.202209140929/tools/bin/../lib/gcc/arm-none-eabi/10.3.1/../../../../arm-none-eabi/lib/thumb/v7e-m+fp/hard\libcr_nohost_nf.a(__sys_readc.o)
 .text.__sys_readc
                0x00000000        0x6 c:/nxp/mcuxpressoide_11.7.0_9198/ide/plugins/com.nxp.mcuxpresso.tools.win32_11.7.0.202209140929/tools/bin/../lib/gcc/arm-none-eabi/10.3.1/../../../../arm-none-eabi/lib/thumb/v7e-m+fp/hard\libcr_nohost_nf.a(__sys_readc.o)
 .comment       0x00000000       0x4a c:/nxp/mcuxpressoide_11.7.0_9198/ide/plugins/com.nxp.mcuxpresso.tools.win32_11.7.0.202209140929/tools/bin/../lib/gcc/arm-none-eabi/10.3.1/../../../../arm-none-eabi/lib/thumb/v7e-m+fp/hard\libcr_nohost_nf.a(__sys_readc.o)
 .ARM.attributes
                0x00000000       0x34 c:/nxp/mcuxpressoide_11.7.0_9198/ide/plugins/com.nxp.mcuxpresso.tools.win32_11.7.0.202209140929/tools/bin/../lib/gcc/arm-none-eabi/10.3.1/../../../../arm-none-eabi/lib/thumb/v7e-m+fp/hard\libcr_nohost_nf.a(__sys_readc.o)
 .text          0x00000000        0x0 c:/nxp/mcuxpressoide_11.7.0_9198/ide/plugins/com.nxp.mcuxpresso.tools.win32_11.7.0.202209140929/tools/bin/../lib/gcc/arm-none-eabi/10.3.1/../../../../arm-none-eabi/lib/thumb/v7e-m+fp/hard\libcr_nohost_nf.a(__sys_remove.o)
 .data          0x00000000        0x0 c:/nxp/mcuxpressoide_11.7.0_9198/ide/plugins/com.nxp.mcuxpresso.tools.win32_11.7.0.202209140929/tools/bin/../lib/gcc/arm-none-eabi/10.3.1/../../../../arm-none-eabi/lib/thumb/v7e-m+fp/hard\libcr_nohost_nf.a(__sys_remove.o)
 .bss           0x00000000        0x0 c:/nxp/mcuxpressoide_11.7.0_9198/ide/plugins/com.nxp.mcuxpresso.tools.win32_11.7.0.202209140929/tools/bin/../lib/gcc/arm-none-eabi/10.3.1/../../../../arm-none-eabi/lib/thumb/v7e-m+fp/hard\libcr_nohost_nf.a(__sys_remove.o)
 .text          0x00000000        0x0 c:/nxp/mcuxpressoide_11.7.0_9198/ide/plugins/com.nxp.mcuxpresso.tools.win32_11.7.0.202209140929/tools/bin/../lib/gcc/arm-none-eabi/10.3.1/../../../../arm-none-eabi/lib/thumb/v7e-m+fp/hard\libcr_nohost_nf.a(__sys_rename.o)
 .data          0x00000000        0x0 c:/nxp/mcuxpressoide_11.7.0_9198/ide/plugins/com.nxp.mcuxpresso.tools.win32_11.7.0.202209140929/tools/bin/../lib/gcc/arm-none-eabi/10.3.1/../../../../arm-none-eabi/lib/thumb/v7e-m+fp/hard\libcr_nohost_nf.a(__sys_rename.o)
 .bss           0x00000000        0x0 c:/nxp/mcuxpressoide_11.7.0_9198/ide/plugins/com.nxp.mcuxpresso.tools.win32_11.7.0.202209140929/tools/bin/../lib/gcc/arm-none-eabi/10.3.1/../../../../arm-none-eabi/lib/thumb/v7e-m+fp/hard\libcr_nohost_nf.a(__sys_rename.o)
 .text.__sys_rename
                0x00000000        0x6 c:/nxp/mcuxpressoide_11.7.0_9198/ide/plugins/com.nxp.mcuxpresso.tools.win32_11.7.0.202209140929/tools/bin/../lib/gcc/arm-none-eabi/10.3.1/../../../../arm-none-eabi/lib/thumb/v7e-m+fp/hard\libcr_nohost_nf.a(__sys_rename.o)
 .comment       0x00000000       0x4a c:/nxp/mcuxpressoide_11.7.0_9198/ide/plugins/com.nxp.mcuxpresso.tools.win32_11.7.0.202209140929/tools/bin/../lib/gcc/arm-none-eabi/10.3.1/../../../../arm-none-eabi/lib/thumb/v7e-m+fp/hard\libcr_nohost_nf.a(__sys_rename.o)
 .ARM.attributes
                0x00000000       0x34 c:/nxp/mcuxpressoide_11.7.0_9198/ide/plugins/com.nxp.mcuxpresso.tools.win32_11.7.0.202209140929/tools/bin/../lib/gcc/arm-none-eabi/10.3.1/../../../../arm-none-eabi/lib/thumb/v7e-m+fp/hard\libcr_nohost_nf.a(__sys_rename.o)
 .text          0x00000000        0x0 c:/nxp/mcuxpressoide_11.7.0_9198/ide/plugins/com.nxp.mcuxpresso.tools.win32_11.7.0.202209140929/tools/bin/../lib/gcc/arm-none-eabi/10.3.1/../../../../arm-none-eabi/lib/thumb/v7e-m+fp/hard\libcr_nohost_nf.a(__sys_seek.o)
 .data          0x00000000        0x0 c:/nxp/mcuxpressoide_11.7.0_9198/ide/plugins/com.nxp.mcuxpresso.tools.win32_11.7.0.202209140929/tools/bin/../lib/gcc/arm-none-eabi/10.3.1/../../../../arm-none-eabi/lib/thumb/v7e-m+fp/hard\libcr_nohost_nf.a(__sys_seek.o)
 .bss           0x00000000        0x0 c:/nxp/mcuxpressoide_11.7.0_9198/ide/plugins/com.nxp.mcuxpresso.tools.win32_11.7.0.202209140929/tools/bin/../lib/gcc/arm-none-eabi/10.3.1/../../../../arm-none-eabi/lib/thumb/v7e-m+fp/hard\libcr_nohost_nf.a(__sys_seek.o)
 .text          0x00000000        0x0 c:/nxp/mcuxpressoide_11.7.0_9198/ide/plugins/com.nxp.mcuxpresso.tools.win32_11.7.0.202209140929/tools/bin/../lib/gcc/arm-none-eabi/10.3.1/../../../../arm-none-eabi/lib/thumb/v7e-m+fp/hard\libcr_nohost_nf.a(__sys_tmpnam.o)
 .data          0x00000000        0x0 c:/nxp/mcuxpressoide_11.7.0_9198/ide/plugins/com.nxp.mcuxpresso.tools.win32_11.7.0.202209140929/tools/bin/../lib/gcc/arm-none-eabi/10.3.1/../../../../arm-none-eabi/lib/thumb/v7e-m+fp/hard\libcr_nohost_nf.a(__sys_tmpnam.o)
 .bss           0x00000000        0x0 c:/nxp/mcuxpressoide_11.7.0_9198/ide/plugins/com.nxp.mcuxpresso.tools.win32_11.7.0.202209140929/tools/bin/../lib/gcc/arm-none-eabi/10.3.1/../../../../arm-none-eabi/lib/thumb/v7e-m+fp/hard\libcr_nohost_nf.a(__sys_tmpnam.o)
 .text          0x00000000        0x0 c:/nxp/mcuxpressoide_11.7.0_9198/ide/plugins/com.nxp.mcuxpresso.tools.win32_11.7.0.202209140929/tools/bin/../lib/gcc/arm-none-eabi/10.3.1/../../../../arm-none-eabi/lib/thumb/v7e-m+fp/hard\libcr_nohost_nf.a(__sys_write.o)
 .data          0x00000000        0x0 c:/nxp/mcuxpressoide_11.7.0_9198/ide/plugins/com.nxp.mcuxpresso.tools.win32_11.7.0.202209140929/tools/bin/../lib/gcc/arm-none-eabi/10.3.1/../../../../arm-none-eabi/lib/thumb/v7e-m+fp/hard\libcr_nohost_nf.a(__sys_write.o)
 .bss           0x00000000        0x0 c:/nxp/mcuxpressoide_11.7.0_9198/ide/plugins/com.nxp.mcuxpresso.tools.win32_11.7.0.202209140929/tools/bin/../lib/gcc/arm-none-eabi/10.3.1/../../../../arm-none-eabi/lib/thumb/v7e-m+fp/hard\libcr_nohost_nf.a(__sys_write.o)

Memory Configuration

Name             Origin             Length             Attributes
PROGRAM_FLASH    0x70020000         0x001ef000         xr
SRAM_DTC         0x20000000         0x00020000         xrw
SRAM_ITC         0x00000000         0x00020000         xrw
SRAM_OC          0x20200000         0x000c0000         xrw
*default*        0x00000000         0xffffffff

Linker script and memory map

LOAD ./xip/evkmimxrt1064_flexspi_nor_config.o
LOAD ./xip/fsl_flexspi_nor_boot.o
LOAD ./utilities/fsl_assert.o
LOAD ./utilities/fsl_debug_console.o
LOAD ./utilities/fsl_str.o
LOAD ./usb/phy/usb_phy.o
LOAD ./usb/device/source/ehci/usb_device_ehci.o
LOAD ./usb/device/source/usb_device_ch9.o
LOAD ./usb/device/source/usb_device_dci.o
LOAD ./usb/device/class/hid/usb_device_hid.o
LOAD ./usb/device/class/cdc/usb_device_cdc_acm.o
LOAD ./usb/device/class/usb_device_class.o
LOAD ./startup/startup_mimxrt1064.o
LOAD ./source/CTSI_0650_NXP_scan_table.o
LOAD ./source/Scan.o
LOAD ./source/adc.o
LOAD ./source/aes.o
LOAD ./source/app.o
LOAD ./source/backend_postp.o
LOAD ./source/bezier.o
LOAD ./source/composite.o
LOAD ./source/delay.o
LOAD ./source/dlt.o
LOAD ./source/gpio.o
LOAD ./source/gpt.o
LOAD ./source/hid_generic.o
LOAD ./source/hid_mouse.o
LOAD ./source/pitch_table.o
LOAD ./source/scan_table.o
LOAD ./source/semihost_hardfault.o
LOAD ./source/speed_test_float.o
LOAD ./source/uartCommand.o
LOAD ./source/usb_device_descriptor.o
LOAD ./source/virtual_com.o
LOAD ./drivers/fsl_adc.o
LOAD ./drivers/fsl_clock.o
LOAD ./drivers/fsl_common.o
LOAD ./drivers/fsl_common_arm.o
LOAD ./drivers/fsl_gpio.o
LOAD ./drivers/fsl_gpt.o
LOAD ./drivers/fsl_lpuart.o
LOAD ./drivers/fsl_qtmr.o
LOAD ./drivers/fsl_wdog.o
LOAD ./drivers/fsl_xbara.o
LOAD ./device/system_MIMXRT1064.o
LOAD ./component/uart/fsl_adapter_lpuart.o
LOAD ./component/serial_manager/fsl_component_serial_manager.o
LOAD ./component/serial_manager/fsl_component_serial_port_uart.o
LOAD ./component/osa/fsl_os_abstraction_bm.o
LOAD ./component/lists/fsl_component_generic_list.o
LOAD ./board/board.o
LOAD ./board/clock_config.o
LOAD ./board/dcd.o
LOAD ./board/peripherals.o
LOAD ./board/pin_mux.o
LOAD D:\Project\21.IR_Touch\BE_FW\wmc-ctsi-0850-fe-be-app\lib/libbackend_irt650_nxp2.a
START GROUP
LOAD c:/nxp/mcuxpressoide_11.7.0_9198/ide/plugins/com.nxp.mcuxpresso.tools.win32_11.7.0.202209140929/tools/bin/../lib/gcc/arm-none-eabi/10.3.1/../../../../arm-none-eabi/lib/thumb/v7e-m+fp/hard\libcr_nohost_nf.a
LOAD c:/nxp/mcuxpressoide_11.7.0_9198/ide/plugins/com.nxp.mcuxpresso.tools.win32_11.7.0.202209140929/tools/bin/../lib/gcc/arm-none-eabi/10.3.1/../../../../arm-none-eabi/lib/thumb/v7e-m+fp/hard\libcr_c.a
LOAD c:/nxp/mcuxpressoide_11.7.0_9198/ide/plugins/com.nxp.mcuxpresso.tools.win32_11.7.0.202209140929/tools/bin/../lib/gcc/arm-none-eabi/10.3.1/thumb/v7e-m+fp/hard\libcr_eabihelpers.a
LOAD c:/nxp/mcuxpressoide_11.7.0_9198/ide/plugins/com.nxp.mcuxpresso.tools.win32_11.7.0.202209140929/tools/bin/../lib/gcc/arm-none-eabi/10.3.1/thumb/v7e-m+fp/hard\libgcc.a
END GROUP
                0x70020000                __base_PROGRAM_FLASH = 0x70020000
                0x70020000                __base_Flash = 0x70020000
                0x7020f000                __top_PROGRAM_FLASH = 0x7020f000
                0x7020f000                __top_Flash = 0x7020f000
                0x20000000                __base_SRAM_DTC = 0x20000000
                0x20000000                __base_RAM = 0x20000000
                0x20020000                __top_SRAM_DTC = 0x20020000
                0x20020000                __top_RAM = 0x20020000
                0x00000000                __base_SRAM_ITC = 0x0
                0x00000000                __base_RAM2 = 0x0
                0x00020000                __top_SRAM_ITC = 0x20000
                0x00020000                __top_RAM2 = 0x20000
                0x20200000                __base_SRAM_OC = 0x20200000
                0x20200000                __base_RAM3 = 0x20200000
                0x202c0000                __top_SRAM_OC = 0x202c0000
                0x202c0000                __top_RAM3 = 0x202c0000

.boot_hdr       0x70020000     0x2000
 FILL mask 0xff
                0x70020000                __boot_hdr_start__ = ABSOLUTE (.)
 *(SORT_BY_ALIGNMENT(.boot_hdr.conf))
 .boot_hdr.conf
                0x70020000      0x200 ./xip/evkmimxrt1064_flexspi_nor_config.o
                0x70020000                qspiflash_config
                0x00001000                . = 0x1000
 *fill*         0x70020200      0xe00 ff
 *(SORT_BY_ALIGNMENT(.boot_hdr.ivt))
 .boot_hdr.ivt  0x70021000       0x20 ./xip/fsl_flexspi_nor_boot.o
                0x70021000                image_vector_table
                0x00001020                . = 0x1020
 *(SORT_BY_ALIGNMENT(.boot_hdr.boot_data))
 .boot_hdr.boot_data
                0x70021020       0x10 ./xip/fsl_flexspi_nor_boot.o
                0x70021020                g_boot_data
                0x00001030                . = 0x1030
 *(SORT_BY_ALIGNMENT(.boot_hdr.dcd_data))
                0x70021030                __boot_hdr_end__ = ABSOLUTE (.)
                0x00002000                . = 0x2000
 *fill*         0x70021030      0xfd0 ff

.text           0x70022000      0x478
 FILL mask 0xff
                0x70022000                __vectors_start__ = ABSOLUTE (.)
 *(SORT_BY_ALIGNMENT(.isr_vector))
 .isr_vector    0x70022000      0x2b8 ./startup/startup_mimxrt1064.o
                0x70022000                g_pfnVectors
                0x70022000                __Vectors
                0x700222b8                . = ALIGN (0x4)
                0x700222b8                __section_table_start = .
                0x700222b8                __data_section_table = .
                0x700222b8        0x4 LONG 0x70050a84 LOADADDR (.data)
                0x700222bc        0x4 LONG 0x20000000 ADDR (.data)
                0x700222c0        0x4 LONG 0x518 SIZEOF (.data)
                0x700222c4        0x4 LONG 0x7004c8f4 LOADADDR (.data_RAM2)
                0x700222c8        0x4 LONG 0x0 ADDR (.data_RAM2)
                0x700222cc        0x4 LONG 0x4190 SIZEOF (.data_RAM2)
                0x700222d0        0x4 LONG 0x70050a84 LOADADDR (.data_RAM3)
                0x700222d4        0x4 LONG 0x20200000 ADDR (.data_RAM3)
                0x700222d8        0x4 LONG 0x0 SIZEOF (.data_RAM3)
                0x700222dc                __data_section_table_end = .
                0x700222dc                __bss_section_table = .
                0x700222dc        0x4 LONG 0x20000800 ADDR (.bss)
                0x700222e0        0x4 LONG 0xeb78 SIZEOF (.bss)
                0x700222e4        0x4 LONG 0x4190 ADDR (.bss_RAM2)
                0x700222e8        0x4 LONG 0x14e90 SIZEOF (.bss_RAM2)
                0x700222ec        0x4 LONG 0x20200000 ADDR (.bss_RAM3)
                0x700222f0        0x4 LONG 0x6d7d4 SIZEOF (.bss_RAM3)
                0x700222f4                __bss_section_table_end = .
                0x700222f4                __section_table_end = .
 *(SORT_BY_ALIGNMENT(.after_vectors*))
 *fill*         0x700222f4        0x4 ff
 .after_vectors.reset
                0x700222f8      0x158 ./startup/startup_mimxrt1064.o
                0x700222f8                ResetISR
 .after_vectors
                0x70022450       0x28 ./startup/startup_mimxrt1064.o
                0x70022450                NMI_Handler
                0x70022458                MemManage_Handler
                0x7002245c                BusFault_Handler
                0x70022460                UsageFault_Handler
                0x70022464                SVC_Handler
                0x70022468                DebugMon_Handler
                0x7002246c                PendSV_Handler
                0x70022470                SysTick_Handler
                0x70022474                PIT_DriverIRQHandler
                0x70022474                PMU_EVENT_DriverIRQHandler
                0x70022474                PWM4_FAULT_DriverIRQHandler
                0x70022474                DMA13_DMA29_DriverIRQHandler
                0x70022474                SAI3_RX_DriverIRQHandler
                0x70022474                LPSPI4_DriverIRQHandler
                0x70022474                SEMC_DriverIRQHandler
                0x70022474                SPDIF_DriverIRQHandler
                0x70022474                CCM_2_DriverIRQHandler
                0x70022474                PWM4_3_DriverIRQHandler
                0x70022474                ENET2_DriverIRQHandler
                0x70022474                FLEXRAM_DriverIRQHandler
                0x70022474                LCDIF_DriverIRQHandler
                0x70022474                USB_PHY1_DriverIRQHandler
                0x70022474                GPIO3_Combined_0_15_DriverIRQHandler
                0x70022474                CAN3_DriverIRQHandler
                0x70022474                Reserved171_DriverIRQHandler
                0x70022474                DMA7_DMA23_DriverIRQHandler
                0x70022474                BEE_DriverIRQHandler
                0x70022474                LPI2C3_DriverIRQHandler
                0x70022474                GPR_IRQ_DriverIRQHandler
                0x70022474                PWM2_FAULT_DriverIRQHandler
                0x70022474                PWM3_1_DriverIRQHandler
                0x70022474                DMA14_DMA30_DriverIRQHandler
                0x70022474                TMR1_DriverIRQHandler
                0x70022474                TRNG_DriverIRQHandler
                0x70022474                PWM3_2_DriverIRQHandler
                0x70022474                ENET_1588_Timer_DriverIRQHandler
                0x70022474                FLEXIO2_DriverIRQHandler
                0x70022474                GPIO2_Combined_16_31_DriverIRQHandler
                0x70022474                Reserved143_DriverIRQHandler
                0x70022474                LPSPI2_DriverIRQHandler
                0x70022474                PWM4_1_DriverIRQHandler
                0x70022474                PWM3_3_DriverIRQHandler
                0x70022474                DMA0_DMA16_DriverIRQHandler
                0x70022474                IntDefaultHandler
                0x70022474                DMA2_DMA18_DriverIRQHandler
                0x70022474                SRC_DriverIRQHandler
                0x70022474                GPIO1_INT4_DriverIRQHandler
                0x70022474                Reserved144_DriverIRQHandler
                0x70022474                USDHC1_DriverIRQHandler
                0x70022474                ENC3_DriverIRQHandler
                0x70022474                PWM3_FAULT_DriverIRQHandler
                0x70022474                EWM_DriverIRQHandler
                0x70022474                FLEXSPI2_DriverIRQHandler
                0x70022474                WDOG1_DriverIRQHandler
                0x70022474                FLEXIO1_DriverIRQHandler
                0x70022474                ENET_DriverIRQHandler
                0x70022474                Reserved78_DriverIRQHandler
                0x70022474                TMR4_DriverIRQHandler
                0x70022474                ENC2_DriverIRQHandler
                0x70022474                ADC_ETC_IRQ2_DriverIRQHandler
                0x70022474                GPIO1_Combined_16_31_DriverIRQHandler
                0x70022474                GPIO1_INT7_DriverIRQHandler
                0x70022474                SAI1_DriverIRQHandler
                0x70022474                DCDC_DriverIRQHandler
                0x70022474                DMA12_DMA28_DriverIRQHandler
                0x70022474                PWM4_0_DriverIRQHandler
                0x70022474                ADC_ETC_ERROR_IRQ_DriverIRQHandler
                0x70022474                ACMP2_DriverIRQHandler
                0x70022474                GPIO5_Combined_0_15_DriverIRQHandler
                0x70022474                GPIO1_INT0_DriverIRQHandler
                0x70022474                GPIO1_INT2_DriverIRQHandler
                0x70022474                RTWDOG_DriverIRQHandler
                0x70022474                FLEXSPI_DriverIRQHandler
                0x70022474                GPT2_DriverIRQHandler
                0x70022474                USB_PHY2_DriverIRQHandler
                0x70022474                DMA10_DMA26_DriverIRQHandler
                0x70022474                PWM2_1_DriverIRQHandler
                0x70022474                PWM1_1_DriverIRQHandler
                0x70022474                PXP_DriverIRQHandler
                0x70022474                ADC1_DriverIRQHandler
                0x70022474                PWM1_0_DriverIRQHandler
                0x70022474                SJC_DriverIRQHandler
                0x70022474                DMA1_DMA17_DriverIRQHandler
                0x70022474                ENC1_DriverIRQHandler
                0x70022474                ENC4_DriverIRQHandler
                0x70022474                CAN2_DriverIRQHandler
                0x70022474                DCP_DriverIRQHandler
                0x70022474                CTI0_ERROR_DriverIRQHandler
                0x70022474                DMA8_DMA24_DriverIRQHandler
                0x70022474                GPT1_DriverIRQHandler
                0x70022474                ACMP3_DriverIRQHandler
                0x70022474                DMA6_DMA22_DriverIRQHandler
                0x70022474                CSU_DriverIRQHandler
                0x70022474                GPIO1_INT5_DriverIRQHandler
                0x70022474                TMR3_DriverIRQHandler
                0x70022474                TMR2_DriverIRQHandler
                0x70022474                CTI1_ERROR_DriverIRQHandler
                0x70022474                GPIO1_Combined_0_15_DriverIRQHandler
                0x70022474                USDHC2_DriverIRQHandler
                0x70022474                PWM4_2_DriverIRQHandler
                0x70022474                KPP_DriverIRQHandler
                0x70022474                SAI2_DriverIRQHandler
                0x70022474                CORE_DriverIRQHandler
                0x70022474                TSC_DIG_DriverIRQHandler
                0x70022474                DMA11_DMA27_DriverIRQHandler
                0x70022474                CSI_DriverIRQHandler
                0x70022474                PWM2_3_DriverIRQHandler
                0x70022474                XBAR1_IRQ_2_3_DriverIRQHandler
                0x70022474                SNVS_HP_WRAPPER_TZ_DriverIRQHandler
                0x70022474                GPIO3_Combined_16_31_DriverIRQHandler
                0x70022474                PWM1_FAULT_DriverIRQHandler
                0x70022474                LPI2C1_DriverIRQHandler
                0x70022474                ENET2_1588_Timer_DriverIRQHandler
                0x70022474                PWM2_2_DriverIRQHandler
                0x70022474                DMA4_DMA20_DriverIRQHandler
                0x70022474                DMA9_DMA25_DriverIRQHandler
                0x70022474                SNVS_HP_WRAPPER_DriverIRQHandler
                0x70022474                XBAR1_IRQ_0_1_DriverIRQHandler
                0x70022474                ADC_ETC_IRQ1_DriverIRQHandler
                0x70022474                LPSPI1_DriverIRQHandler
                0x70022474                DMA3_DMA19_DriverIRQHandler
                0x70022474                GPIO1_INT3_DriverIRQHandler
                0x70022474                DCP_VMI_DriverIRQHandler
                0x70022474                LPI2C4_DriverIRQHandler
                0x70022474                GPC_DriverIRQHandler
                0x70022474                GPIO2_Combined_0_15_DriverIRQHandler
                0x70022474                PWM1_2_DriverIRQHandler
                0x70022474                USB_OTG1_DriverIRQHandler
                0x70022474                TEMP_LOW_HIGH_DriverIRQHandler
                0x70022474                SAI3_TX_DriverIRQHandler
                0x70022474                FLEXIO3_DriverIRQHandler
                0x70022474                WDOG2_DriverIRQHandler
                0x70022474                Reserved68_DriverIRQHandler
                0x70022474                PWM3_0_DriverIRQHandler
                0x70022474                GPIO4_Combined_0_15_DriverIRQHandler
                0x70022474                GPIO4_Combined_16_31_DriverIRQHandler
                0x70022474                GPIO6_7_8_9_DriverIRQHandler
                0x70022474                GPIO5_Combined_16_31_DriverIRQHandler
                0x70022474                DMA5_DMA21_DriverIRQHandler
                0x70022474                CCM_1_DriverIRQHandler
                0x70022474                ADC2_DriverIRQHandler
                0x70022474                Reserved115_DriverIRQHandler
                0x70022474                TEMP_PANIC_DriverIRQHandler
                0x70022474                ACMP4_DriverIRQHandler
                0x70022474                DMA15_DMA31_DriverIRQHandler
                0x70022474                LPSPI3_DriverIRQHandler
                0x70022474                PWM1_3_DriverIRQHandler
                0x70022474                ACMP1_DriverIRQHandler
                0x70022474                LPI2C2_DriverIRQHandler
                0x70022474                Reserved86_DriverIRQHandler
                0x70022474                GPIO10_DriverIRQHandler
                0x70022474                DMA_ERROR_DriverIRQHandler
                0x70022474                ADC_ETC_IRQ0_DriverIRQHandler
                0x70022474                CAN1_DriverIRQHandler
                0x70022474                GPIO1_INT6_DriverIRQHandler
                0x70022474                GPIO1_INT1_DriverIRQHandler
                0x70022474                PWM2_0_DriverIRQHandler
                0x70022474                SNVS_LP_WRAPPER_DriverIRQHandler
                0x70022474                USB_OTG2_DriverIRQHandler

.glue_7         0x70022478        0x0
 .glue_7        0x70022478        0x0 linker stubs

.glue_7t        0x70022478        0x0
 .glue_7t       0x70022478        0x0 linker stubs

.vfp11_veneer   0x70022478        0x0
 .vfp11_veneer  0x70022478        0x0 linker stubs

.v4_bx          0x70022478        0x0
 .v4_bx         0x70022478        0x0 linker stubs

.iplt           0x70022478        0x0
 .iplt          0x70022478        0x0 ./xip/fsl_flexspi_nor_boot.o

.text           0x70022478    0x2a47c
 *(SORT_BY_ALIGNMENT(.text*))
 .text.USB_EhciPhyInit
                0x70022478       0xc8 ./usb/phy/usb_phy.o
                0x70022478                USB_EhciPhyInit
 .text.USB_DeviceEhciInit
                0x70022540       0xc0 ./usb/device/source/ehci/usb_device_ehci.o
                0x70022540                USB_DeviceEhciInit
 .text.s_coordinates_conversion_brush_report_delay
                0x70022600      0xc80 ./source/backend_postp.o
                0x70022600                s_coordinates_conversion_brush_report_delay
 .text.DbgConsole_Init
                0x70023280       0x88 ./utilities/fsl_debug_console.o
                0x70023280                DbgConsole_Init
 .text.USB_DeviceEhciSetDefaultState
                0x70023308      0x2c4 ./usb/device/source/ehci/usb_device_ehci.o
 .text.USB_DeviceEhciTransfer
                0x700235cc      0x254 ./usb/device/source/ehci/usb_device_ehci.o
 .text.USB_DeviceEhciCancelControlPipe
                0x70023820       0xe4 ./usb/device/source/ehci/usb_device_ehci.o
 .text.USB_DeviceEhciDeinit
                0x70023904       0x3c ./usb/device/source/ehci/usb_device_ehci.o
                0x70023904                USB_DeviceEhciDeinit
 .text.USB_DeviceEhciSend
                0x70023940        0xc ./usb/device/source/ehci/usb_device_ehci.o
                0x70023940                USB_DeviceEhciSend
 .text.USB_DeviceEhciRecv
                0x7002394c        0x8 ./usb/device/source/ehci/usb_device_ehci.o
                0x7002394c                USB_DeviceEhciRecv
 .text.USB_DeviceEhciCancel
                0x70023954      0x1ac ./usb/device/source/ehci/usb_device_ehci.o
                0x70023954                USB_DeviceEhciCancel
 .text.USB_DeviceEhciEndpointDeinit
                0x70023b00       0x80 ./usb/device/source/ehci/usb_device_ehci.o
 .text.USB_DeviceEhciControl
                0x70023b80      0x30c ./usb/device/source/ehci/usb_device_ehci.o
                0x70023b80                USB_DeviceEhciControl
 .text.USB_DeviceEhciIsrFunction
                0x70023e8c      0x380 ./usb/device/source/ehci/usb_device_ehci.o
                0x70023e8c                USB_DeviceEhciIsrFunction
 .text.USB_DeviceEhciFullSpeed
                0x7002420c        0xc ./usb/device/source/ehci/usb_device_ehci.o
                0x7002420c                USB_DeviceEhciFullSpeed
 .text.USB_DeviceCh9GetDescriptor
                0x70024218      0x138 ./usb/device/source/usb_device_ch9.o
 .text.USB_DeviceCh9SetConfiguration
                0x70024350       0x80 ./usb/device/source/usb_device_ch9.o
 .text.USB_DeviceCh9SetAddress
                0x700243d0       0x80 ./usb/device/source/usb_device_ch9.o
 .text.USB_DeviceCh9SetClearFeature
                0x70024450       0xa0 ./usb/device/source/usb_device_ch9.o
 .text.USB_DeviceCh9GetStatus
                0x700244f0       0xbc ./usb/device/source/usb_device_ch9.o
 .text.USB_DeviceCh9GetConfiguration
                0x700245ac       0x5c ./usb/device/source/usb_device_ch9.o
 .text.USB_DeviceCh9GetInterface
                0x70024608       0x70 ./usb/device/source/usb_device_ch9.o
 .text.USB_DeviceCh9SetInterface
                0x70024678       0x64 ./usb/device/source/usb_device_ch9.o
 .text.USB_DeviceCh9SynchFrame
                0x700246dc       0x6c ./usb/device/source/usb_device_ch9.o
 .text.USB_DeviceControlCallback
                0x70024748      0x228 ./usb/device/source/usb_device_ch9.o
 .text.USB_DeviceControlPipeInit
                0x70024970       0x50 ./usb/device/source/usb_device_ch9.o
                0x70024970                USB_DeviceControlPipeInit
 .text.USB_DeviceNotificationTrigger
                0x700249c0      0x13c ./usb/device/source/usb_device_dci.o
                0x700249c0                USB_DeviceNotificationTrigger
 .text.USB_DeviceInit
                0x70024afc      0x154 ./usb/device/source/usb_device_dci.o
                0x70024afc                USB_DeviceInit
 .text.USB_DeviceRun
                0x70024c50       0x18 ./usb/device/source/usb_device_dci.o
                0x70024c50                USB_DeviceRun
 .text.USB_DeviceDeinit
                0x70024c68       0x38 ./usb/device/source/usb_device_dci.o
                0x70024c68                USB_DeviceDeinit
 .text.USB_DeviceSendRequest
                0x70024ca0       0xa0 ./usb/device/source/usb_device_dci.o
                0x70024ca0                USB_DeviceSendRequest
 .text.USB_DeviceRecvRequest
                0x70024d40       0x90 ./usb/device/source/usb_device_dci.o
                0x70024d40                USB_DeviceRecvRequest
 .text.USB_DeviceInitEndpoint
                0x70024dd0       0x58 ./usb/device/source/usb_device_dci.o
                0x70024dd0                USB_DeviceInitEndpoint
 .text.USB_DeviceDeinitEndpoint
                0x70024e28       0x50 ./usb/device/source/usb_device_dci.o
                0x70024e28                USB_DeviceDeinitEndpoint
 .text.USB_DeviceStallEndpoint
                0x70024e78       0x3c ./usb/device/source/usb_device_dci.o
                0x70024e78                USB_DeviceStallEndpoint
 .text.USB_DeviceUnstallEndpoint
                0x70024eb4       0x3c ./usb/device/source/usb_device_dci.o
                0x70024eb4                USB_DeviceUnstallEndpoint
 .text.USB_DeviceGetStatus
                0x70024ef0       0x88 ./usb/device/source/usb_device_dci.o
                0x70024ef0                USB_DeviceGetStatus
 .text.USB_DeviceSetStatus
                0x70024f78       0xc0 ./usb/device/source/usb_device_dci.o
                0x70024f78                USB_DeviceSetStatus
 .text.USB_DeviceHidInterruptIn
                0x70025038       0x20 ./usb/device/class/hid/usb_device_hid.o
 .text.USB_DeviceHidInterruptOut
                0x70025058       0x20 ./usb/device/class/hid/usb_device_hid.o
 .text.USB_DeviceHidEndpointsInit
                0x70025078      0x10c ./usb/device/class/hid/usb_device_hid.o
 .text.USB_DeviceHidEvent
                0x70025184      0x2ec ./usb/device/class/hid/usb_device_hid.o
                0x70025184                USB_DeviceHidEvent
 .text.USB_DeviceHidInit
                0x70025470       0x50 ./usb/device/class/hid/usb_device_hid.o
                0x70025470                USB_DeviceHidInit
 .text.USB_DeviceHidSend
                0x700254c0       0x38 ./usb/device/class/hid/usb_device_hid.o
                0x700254c0                USB_DeviceHidSend
 .text.USB_DeviceHidRecv
                0x700254f8       0x38 ./usb/device/class/hid/usb_device_hid.o
                0x700254f8                USB_DeviceHidRecv
 .text.USB_DeviceClassGetDeviceHandle
                0x70025530       0x3c ./usb/device/class/usb_device_class.o
                0x70025530                USB_DeviceClassGetDeviceHandle
 .text.USB_DeviceClassEvent
                0x7002556c       0xa0 ./usb/device/class/usb_device_class.o
                0x7002556c                USB_DeviceClassEvent
 .text.USB_DeviceClassCallback
                0x7002560c       0x5c ./usb/device/class/usb_device_class.o
                0x7002560c                USB_DeviceClassCallback
 .text.USB_DeviceClassInit
                0x70025668      0x124 ./usb/device/class/usb_device_class.o
                0x70025668                USB_DeviceClassInit
 .text.USB_DeviceClassGetSpeed
                0x7002578c       0x44 ./usb/device/class/usb_device_class.o
                0x7002578c                USB_DeviceClassGetSpeed
 .text.DMA0_DMA16_IRQHandler
                0x700257d0        0x8 ./startup/startup_mimxrt1064.o
                0x700257d0                DMA0_DMA16_IRQHandler
 .text.DMA1_DMA17_IRQHandler
                0x700257d8        0x8 ./startup/startup_mimxrt1064.o
                0x700257d8                DMA1_DMA17_IRQHandler
 .text.DMA2_DMA18_IRQHandler
                0x700257e0        0x8 ./startup/startup_mimxrt1064.o
                0x700257e0                DMA2_DMA18_IRQHandler
 .text.DMA3_DMA19_IRQHandler
                0x700257e8        0x8 ./startup/startup_mimxrt1064.o
                0x700257e8                DMA3_DMA19_IRQHandler
 .text.DMA4_DMA20_IRQHandler
                0x700257f0        0x8 ./startup/startup_mimxrt1064.o
                0x700257f0                DMA4_DMA20_IRQHandler
 .text.DMA5_DMA21_IRQHandler
                0x700257f8        0x8 ./startup/startup_mimxrt1064.o
                0x700257f8                DMA5_DMA21_IRQHandler
 .text.DMA6_DMA22_IRQHandler
                0x70025800        0x8 ./startup/startup_mimxrt1064.o
                0x70025800                DMA6_DMA22_IRQHandler
 .text.DMA7_DMA23_IRQHandler
                0x70025808        0x8 ./startup/startup_mimxrt1064.o
                0x70025808                DMA7_DMA23_IRQHandler
 .text.DMA8_DMA24_IRQHandler
                0x70025810        0x8 ./startup/startup_mimxrt1064.o
                0x70025810                DMA8_DMA24_IRQHandler
 .text.DMA9_DMA25_IRQHandler
                0x70025818        0x8 ./startup/startup_mimxrt1064.o
                0x70025818                DMA9_DMA25_IRQHandler
 .text.DMA10_DMA26_IRQHandler
                0x70025820        0x8 ./startup/startup_mimxrt1064.o
                0x70025820                DMA10_DMA26_IRQHandler
 .text.DMA11_DMA27_IRQHandler
                0x70025828        0x8 ./startup/startup_mimxrt1064.o
                0x70025828                DMA11_DMA27_IRQHandler
 .text.DMA12_DMA28_IRQHandler
                0x70025830        0x8 ./startup/startup_mimxrt1064.o
                0x70025830                DMA12_DMA28_IRQHandler
 .text.DMA13_DMA29_IRQHandler
                0x70025838        0x8 ./startup/startup_mimxrt1064.o
                0x70025838                DMA13_DMA29_IRQHandler
 .text.DMA14_DMA30_IRQHandler
                0x70025840        0x8 ./startup/startup_mimxrt1064.o
                0x70025840                DMA14_DMA30_IRQHandler
 .text.DMA15_DMA31_IRQHandler
                0x70025848        0x8 ./startup/startup_mimxrt1064.o
                0x70025848                DMA15_DMA31_IRQHandler
 .text.DMA_ERROR_IRQHandler
                0x70025850        0x8 ./startup/startup_mimxrt1064.o
                0x70025850                DMA_ERROR_IRQHandler
 .text.CTI0_ERROR_IRQHandler
                0x70025858        0x8 ./startup/startup_mimxrt1064.o
                0x70025858                CTI0_ERROR_IRQHandler
 .text.CTI1_ERROR_IRQHandler
                0x70025860        0x8 ./startup/startup_mimxrt1064.o
                0x70025860                CTI1_ERROR_IRQHandler
 .text.CORE_IRQHandler
                0x70025868        0x8 ./startup/startup_mimxrt1064.o
                0x70025868                CORE_IRQHandler
 .text.LPUART1_IRQHandler
                0x70025870        0x8 ./startup/startup_mimxrt1064.o
                0x70025870                LPUART1_IRQHandler
 .text.LPUART2_IRQHandler
                0x70025878        0x8 ./startup/startup_mimxrt1064.o
                0x70025878                LPUART2_IRQHandler
 .text.LPUART3_IRQHandler
                0x70025880        0x8 ./startup/startup_mimxrt1064.o
                0x70025880                LPUART3_IRQHandler
 .text.LPUART4_IRQHandler
                0x70025888        0x8 ./startup/startup_mimxrt1064.o
                0x70025888                LPUART4_IRQHandler
 .text.LPUART5_IRQHandler
                0x70025890        0x8 ./startup/startup_mimxrt1064.o
                0x70025890                LPUART5_IRQHandler
 .text.LPUART6_IRQHandler
                0x70025898        0x8 ./startup/startup_mimxrt1064.o
                0x70025898                LPUART6_IRQHandler
 .text.LPUART7_IRQHandler
                0x700258a0        0x8 ./startup/startup_mimxrt1064.o
                0x700258a0                LPUART7_IRQHandler
 .text.LPUART8_IRQHandler
                0x700258a8        0x8 ./startup/startup_mimxrt1064.o
                0x700258a8                LPUART8_IRQHandler
 .text.LPI2C1_IRQHandler
                0x700258b0        0x8 ./startup/startup_mimxrt1064.o
                0x700258b0                LPI2C1_IRQHandler
 .text.LPI2C2_IRQHandler
                0x700258b8        0x8 ./startup/startup_mimxrt1064.o
                0x700258b8                LPI2C2_IRQHandler
 .text.LPI2C3_IRQHandler
                0x700258c0        0x8 ./startup/startup_mimxrt1064.o
                0x700258c0                LPI2C3_IRQHandler
 .text.LPI2C4_IRQHandler
                0x700258c8        0x8 ./startup/startup_mimxrt1064.o
                0x700258c8                LPI2C4_IRQHandler
 .text.LPSPI1_IRQHandler
                0x700258d0        0x8 ./startup/startup_mimxrt1064.o
                0x700258d0                LPSPI1_IRQHandler
 .text.LPSPI2_IRQHandler
                0x700258d8        0x8 ./startup/startup_mimxrt1064.o
                0x700258d8                LPSPI2_IRQHandler
 .text.LPSPI3_IRQHandler
                0x700258e0        0x8 ./startup/startup_mimxrt1064.o
                0x700258e0                LPSPI3_IRQHandler
 .text.LPSPI4_IRQHandler
                0x700258e8        0x8 ./startup/startup_mimxrt1064.o
                0x700258e8                LPSPI4_IRQHandler
 .text.CAN1_IRQHandler
                0x700258f0        0x8 ./startup/startup_mimxrt1064.o
                0x700258f0                CAN1_IRQHandler
 .text.CAN2_IRQHandler
                0x700258f8        0x8 ./startup/startup_mimxrt1064.o
                0x700258f8                CAN2_IRQHandler
 .text.FLEXRAM_IRQHandler
                0x70025900        0x8 ./startup/startup_mimxrt1064.o
                0x70025900                FLEXRAM_IRQHandler
 .text.KPP_IRQHandler
                0x70025908        0x8 ./startup/startup_mimxrt1064.o
                0x70025908                KPP_IRQHandler
 .text.TSC_DIG_IRQHandler
                0x70025910        0x8 ./startup/startup_mimxrt1064.o
                0x70025910                TSC_DIG_IRQHandler
 .text.GPR_IRQ_IRQHandler
                0x70025918        0x8 ./startup/startup_mimxrt1064.o
                0x70025918                GPR_IRQ_IRQHandler
 .text.LCDIF_IRQHandler
                0x70025920        0x8 ./startup/startup_mimxrt1064.o
                0x70025920                LCDIF_IRQHandler
 .text.CSI_IRQHandler
                0x70025928        0x8 ./startup/startup_mimxrt1064.o
                0x70025928                CSI_IRQHandler
 .text.PXP_IRQHandler
                0x70025930        0x8 ./startup/startup_mimxrt1064.o
                0x70025930                PXP_IRQHandler
 .text.WDOG2_IRQHandler
                0x70025938        0x8 ./startup/startup_mimxrt1064.o
                0x70025938                WDOG2_IRQHandler
 .text.SNVS_HP_WRAPPER_IRQHandler
                0x70025940        0x8 ./startup/startup_mimxrt1064.o
                0x70025940                SNVS_HP_WRAPPER_IRQHandler
 .text.SNVS_HP_WRAPPER_TZ_IRQHandler
                0x70025948        0x8 ./startup/startup_mimxrt1064.o
                0x70025948                SNVS_HP_WRAPPER_TZ_IRQHandler
 .text.SNVS_LP_WRAPPER_IRQHandler
                0x70025950        0x8 ./startup/startup_mimxrt1064.o
                0x70025950                SNVS_LP_WRAPPER_IRQHandler
 .text.CSU_IRQHandler
                0x70025958        0x8 ./startup/startup_mimxrt1064.o
                0x70025958                CSU_IRQHandler
 .text.DCP_IRQHandler
                0x70025960        0x8 ./startup/startup_mimxrt1064.o
                0x70025960                DCP_IRQHandler
 .text.DCP_VMI_IRQHandler
                0x70025968        0x8 ./startup/startup_mimxrt1064.o
                0x70025968                DCP_VMI_IRQHandler
 .text.Reserved68_IRQHandler
                0x70025970        0x8 ./startup/startup_mimxrt1064.o
                0x70025970                Reserved68_IRQHandler
 .text.TRNG_IRQHandler
                0x70025978        0x8 ./startup/startup_mimxrt1064.o
                0x70025978                TRNG_IRQHandler
 .text.SJC_IRQHandler
                0x70025980        0x8 ./startup/startup_mimxrt1064.o
                0x70025980                SJC_IRQHandler
 .text.BEE_IRQHandler
                0x70025988        0x8 ./startup/startup_mimxrt1064.o
                0x70025988                BEE_IRQHandler
 .text.SAI1_IRQHandler
                0x70025990        0x8 ./startup/startup_mimxrt1064.o
                0x70025990                SAI1_IRQHandler
 .text.SAI2_IRQHandler
                0x70025998        0x8 ./startup/startup_mimxrt1064.o
                0x70025998                SAI2_IRQHandler
 .text.SAI3_RX_IRQHandler
                0x700259a0        0x8 ./startup/startup_mimxrt1064.o
                0x700259a0                SAI3_RX_IRQHandler
 .text.SAI3_TX_IRQHandler
                0x700259a8        0x8 ./startup/startup_mimxrt1064.o
                0x700259a8                SAI3_TX_IRQHandler
 .text.SPDIF_IRQHandler
                0x700259b0        0x8 ./startup/startup_mimxrt1064.o
                0x700259b0                SPDIF_IRQHandler
 .text.PMU_EVENT_IRQHandler
                0x700259b8        0x8 ./startup/startup_mimxrt1064.o
                0x700259b8                PMU_EVENT_IRQHandler
 .text.Reserved78_IRQHandler
                0x700259c0        0x8 ./startup/startup_mimxrt1064.o
                0x700259c0                Reserved78_IRQHandler
 .text.TEMP_LOW_HIGH_IRQHandler
                0x700259c8        0x8 ./startup/startup_mimxrt1064.o
                0x700259c8                TEMP_LOW_HIGH_IRQHandler
 .text.TEMP_PANIC_IRQHandler
                0x700259d0        0x8 ./startup/startup_mimxrt1064.o
                0x700259d0                TEMP_PANIC_IRQHandler
 .text.USB_PHY1_IRQHandler
                0x700259d8        0x8 ./startup/startup_mimxrt1064.o
                0x700259d8                USB_PHY1_IRQHandler
 .text.USB_PHY2_IRQHandler
                0x700259e0        0x8 ./startup/startup_mimxrt1064.o
                0x700259e0                USB_PHY2_IRQHandler
 .text.ADC1_IRQHandler
                0x700259e8        0x8 ./startup/startup_mimxrt1064.o
                0x700259e8                ADC1_IRQHandler
 .text.ADC2_IRQHandler
                0x700259f0        0x8 ./startup/startup_mimxrt1064.o
                0x700259f0                ADC2_IRQHandler
 .text.DCDC_IRQHandler
                0x700259f8        0x8 ./startup/startup_mimxrt1064.o
                0x700259f8                DCDC_IRQHandler
 .text.Reserved86_IRQHandler
                0x70025a00        0x8 ./startup/startup_mimxrt1064.o
                0x70025a00                Reserved86_IRQHandler
 .text.GPIO10_IRQHandler
                0x70025a08        0x8 ./startup/startup_mimxrt1064.o
                0x70025a08                GPIO10_IRQHandler
 .text.GPIO1_INT0_IRQHandler
                0x70025a10        0x8 ./startup/startup_mimxrt1064.o
                0x70025a10                GPIO1_INT0_IRQHandler
 .text.GPIO1_INT1_IRQHandler
                0x70025a18        0x8 ./startup/startup_mimxrt1064.o
                0x70025a18                GPIO1_INT1_IRQHandler
 .text.GPIO1_INT2_IRQHandler
                0x70025a20        0x8 ./startup/startup_mimxrt1064.o
                0x70025a20                GPIO1_INT2_IRQHandler
 .text.GPIO1_INT3_IRQHandler
                0x70025a28        0x8 ./startup/startup_mimxrt1064.o
                0x70025a28                GPIO1_INT3_IRQHandler
 .text.GPIO1_INT4_IRQHandler
                0x70025a30        0x8 ./startup/startup_mimxrt1064.o
                0x70025a30                GPIO1_INT4_IRQHandler
 .text.GPIO1_INT5_IRQHandler
                0x70025a38        0x8 ./startup/startup_mimxrt1064.o
                0x70025a38                GPIO1_INT5_IRQHandler
 .text.GPIO1_INT6_IRQHandler
                0x70025a40        0x8 ./startup/startup_mimxrt1064.o
                0x70025a40                GPIO1_INT6_IRQHandler
 .text.GPIO1_INT7_IRQHandler
                0x70025a48        0x8 ./startup/startup_mimxrt1064.o
                0x70025a48                GPIO1_INT7_IRQHandler
 .text.GPIO1_Combined_0_15_IRQHandler
                0x70025a50        0x8 ./startup/startup_mimxrt1064.o
                0x70025a50                GPIO1_Combined_0_15_IRQHandler
 .text.GPIO1_Combined_16_31_IRQHandler
                0x70025a58        0x8 ./startup/startup_mimxrt1064.o
                0x70025a58                GPIO1_Combined_16_31_IRQHandler
 .text.GPIO2_Combined_0_15_IRQHandler
                0x70025a60        0x8 ./startup/startup_mimxrt1064.o
                0x70025a60                GPIO2_Combined_0_15_IRQHandler
 .text.GPIO2_Combined_16_31_IRQHandler
                0x70025a68        0x8 ./startup/startup_mimxrt1064.o
                0x70025a68                GPIO2_Combined_16_31_IRQHandler
 .text.GPIO3_Combined_0_15_IRQHandler
                0x70025a70        0x8 ./startup/startup_mimxrt1064.o
                0x70025a70                GPIO3_Combined_0_15_IRQHandler
 .text.GPIO3_Combined_16_31_IRQHandler
                0x70025a78        0x8 ./startup/startup_mimxrt1064.o
                0x70025a78                GPIO3_Combined_16_31_IRQHandler
 .text.GPIO4_Combined_0_15_IRQHandler
                0x70025a80        0x8 ./startup/startup_mimxrt1064.o
                0x70025a80                GPIO4_Combined_0_15_IRQHandler
 .text.GPIO4_Combined_16_31_IRQHandler
                0x70025a88        0x8 ./startup/startup_mimxrt1064.o
                0x70025a88                GPIO4_Combined_16_31_IRQHandler
 .text.GPIO5_Combined_0_15_IRQHandler
                0x70025a90        0x8 ./startup/startup_mimxrt1064.o
                0x70025a90                GPIO5_Combined_0_15_IRQHandler
 .text.GPIO5_Combined_16_31_IRQHandler
                0x70025a98        0x8 ./startup/startup_mimxrt1064.o
                0x70025a98                GPIO5_Combined_16_31_IRQHandler
 .text.FLEXIO1_IRQHandler
                0x70025aa0        0x8 ./startup/startup_mimxrt1064.o
                0x70025aa0                FLEXIO1_IRQHandler
 .text.FLEXIO2_IRQHandler
                0x70025aa8        0x8 ./startup/startup_mimxrt1064.o
                0x70025aa8                FLEXIO2_IRQHandler
 .text.RTWDOG_IRQHandler
                0x70025ab0        0x8 ./startup/startup_mimxrt1064.o
                0x70025ab0                RTWDOG_IRQHandler
 .text.EWM_IRQHandler
                0x70025ab8        0x8 ./startup/startup_mimxrt1064.o
                0x70025ab8                EWM_IRQHandler
 .text.CCM_1_IRQHandler
                0x70025ac0        0x8 ./startup/startup_mimxrt1064.o
                0x70025ac0                CCM_1_IRQHandler
 .text.CCM_2_IRQHandler
                0x70025ac8        0x8 ./startup/startup_mimxrt1064.o
                0x70025ac8                CCM_2_IRQHandler
 .text.GPC_IRQHandler
                0x70025ad0        0x8 ./startup/startup_mimxrt1064.o
                0x70025ad0                GPC_IRQHandler
 .text.SRC_IRQHandler
                0x70025ad8        0x8 ./startup/startup_mimxrt1064.o
                0x70025ad8                SRC_IRQHandler
 .text.Reserved115_IRQHandler
                0x70025ae0        0x8 ./startup/startup_mimxrt1064.o
                0x70025ae0                Reserved115_IRQHandler
 .text.GPT1_IRQHandler
                0x70025ae8        0x8 ./startup/startup_mimxrt1064.o
                0x70025ae8                GPT1_IRQHandler
 .text.GPT2_IRQHandler
                0x70025af0        0x8 ./startup/startup_mimxrt1064.o
                0x70025af0                GPT2_IRQHandler
 .text.PWM1_0_IRQHandler
                0x70025af8        0x8 ./startup/startup_mimxrt1064.o
                0x70025af8                PWM1_0_IRQHandler
 .text.PWM1_1_IRQHandler
                0x70025b00        0x8 ./startup/startup_mimxrt1064.o
                0x70025b00                PWM1_1_IRQHandler
 .text.PWM1_2_IRQHandler
                0x70025b08        0x8 ./startup/startup_mimxrt1064.o
                0x70025b08                PWM1_2_IRQHandler
 .text.PWM1_3_IRQHandler
                0x70025b10        0x8 ./startup/startup_mimxrt1064.o
                0x70025b10                PWM1_3_IRQHandler
 .text.PWM1_FAULT_IRQHandler
                0x70025b18        0x8 ./startup/startup_mimxrt1064.o
                0x70025b18                PWM1_FAULT_IRQHandler
 .text.FLEXSPI2_IRQHandler
                0x70025b20        0x8 ./startup/startup_mimxrt1064.o
                0x70025b20                FLEXSPI2_IRQHandler
 .text.FLEXSPI_IRQHandler
                0x70025b28        0x8 ./startup/startup_mimxrt1064.o
                0x70025b28                FLEXSPI_IRQHandler
 .text.SEMC_IRQHandler
                0x70025b30        0x8 ./startup/startup_mimxrt1064.o
                0x70025b30                SEMC_IRQHandler
 .text.USDHC1_IRQHandler
                0x70025b38        0x8 ./startup/startup_mimxrt1064.o
                0x70025b38                USDHC1_IRQHandler
 .text.USDHC2_IRQHandler
                0x70025b40        0x8 ./startup/startup_mimxrt1064.o
                0x70025b40                USDHC2_IRQHandler
 .text.ENET_IRQHandler
                0x70025b48        0x8 ./startup/startup_mimxrt1064.o
                0x70025b48                ENET_IRQHandler
 .text.ENET_1588_Timer_IRQHandler
                0x70025b50        0x8 ./startup/startup_mimxrt1064.o
                0x70025b50                ENET_1588_Timer_IRQHandler
 .text.XBAR1_IRQ_0_1_IRQHandler
                0x70025b58        0x8 ./startup/startup_mimxrt1064.o
                0x70025b58                XBAR1_IRQ_0_1_IRQHandler
 .text.XBAR1_IRQ_2_3_IRQHandler
                0x70025b60        0x8 ./startup/startup_mimxrt1064.o
                0x70025b60                XBAR1_IRQ_2_3_IRQHandler
 .text.ADC_ETC_IRQ0_IRQHandler
                0x70025b68        0x8 ./startup/startup_mimxrt1064.o
                0x70025b68                ADC_ETC_IRQ0_IRQHandler
 .text.ADC_ETC_IRQ1_IRQHandler
                0x70025b70        0x8 ./startup/startup_mimxrt1064.o
                0x70025b70                ADC_ETC_IRQ1_IRQHandler
 .text.ADC_ETC_IRQ2_IRQHandler
                0x70025b78        0x8 ./startup/startup_mimxrt1064.o
                0x70025b78                ADC_ETC_IRQ2_IRQHandler
 .text.ADC_ETC_ERROR_IRQ_IRQHandler
                0x70025b80        0x8 ./startup/startup_mimxrt1064.o
                0x70025b80                ADC_ETC_ERROR_IRQ_IRQHandler
 .text.PIT_IRQHandler
                0x70025b88        0x8 ./startup/startup_mimxrt1064.o
                0x70025b88                PIT_IRQHandler
 .text.ACMP1_IRQHandler
                0x70025b90        0x8 ./startup/startup_mimxrt1064.o
                0x70025b90                ACMP1_IRQHandler
 .text.ACMP2_IRQHandler
                0x70025b98        0x8 ./startup/startup_mimxrt1064.o
                0x70025b98                ACMP2_IRQHandler
 .text.ACMP3_IRQHandler
                0x70025ba0        0x8 ./startup/startup_mimxrt1064.o
                0x70025ba0                ACMP3_IRQHandler
 .text.ACMP4_IRQHandler
                0x70025ba8        0x8 ./startup/startup_mimxrt1064.o
                0x70025ba8                ACMP4_IRQHandler
 .text.Reserved143_IRQHandler
                0x70025bb0        0x8 ./startup/startup_mimxrt1064.o
                0x70025bb0                Reserved143_IRQHandler
 .text.Reserved144_IRQHandler
                0x70025bb8        0x8 ./startup/startup_mimxrt1064.o
                0x70025bb8                Reserved144_IRQHandler
 .text.ENC1_IRQHandler
                0x70025bc0        0x8 ./startup/startup_mimxrt1064.o
                0x70025bc0                ENC1_IRQHandler
 .text.ENC2_IRQHandler
                0x70025bc8        0x8 ./startup/startup_mimxrt1064.o
                0x70025bc8                ENC2_IRQHandler
 .text.ENC3_IRQHandler
                0x70025bd0        0x8 ./startup/startup_mimxrt1064.o
                0x70025bd0                ENC3_IRQHandler
 .text.ENC4_IRQHandler
                0x70025bd8        0x8 ./startup/startup_mimxrt1064.o
                0x70025bd8                ENC4_IRQHandler
 .text.TMR1_IRQHandler
                0x70025be0        0x8 ./startup/startup_mimxrt1064.o
                0x70025be0                TMR1_IRQHandler
 .text.TMR2_IRQHandler
                0x70025be8        0x8 ./startup/startup_mimxrt1064.o
                0x70025be8                TMR2_IRQHandler
 .text.TMR3_IRQHandler
                0x70025bf0        0x8 ./startup/startup_mimxrt1064.o
                0x70025bf0                TMR3_IRQHandler
 .text.TMR4_IRQHandler
                0x70025bf8        0x8 ./startup/startup_mimxrt1064.o
                0x70025bf8                TMR4_IRQHandler
 .text.PWM2_0_IRQHandler
                0x70025c00        0x8 ./startup/startup_mimxrt1064.o
                0x70025c00                PWM2_0_IRQHandler
 .text.PWM2_1_IRQHandler
                0x70025c08        0x8 ./startup/startup_mimxrt1064.o
                0x70025c08                PWM2_1_IRQHandler
 .text.PWM2_2_IRQHandler
                0x70025c10        0x8 ./startup/startup_mimxrt1064.o
                0x70025c10                PWM2_2_IRQHandler
 .text.PWM2_3_IRQHandler
                0x70025c18        0x8 ./startup/startup_mimxrt1064.o
                0x70025c18                PWM2_3_IRQHandler
 .text.PWM2_FAULT_IRQHandler
                0x70025c20        0x8 ./startup/startup_mimxrt1064.o
                0x70025c20                PWM2_FAULT_IRQHandler
 .text.PWM3_0_IRQHandler
                0x70025c28        0x8 ./startup/startup_mimxrt1064.o
                0x70025c28                PWM3_0_IRQHandler
 .text.PWM3_1_IRQHandler
                0x70025c30        0x8 ./startup/startup_mimxrt1064.o
                0x70025c30                PWM3_1_IRQHandler
 .text.PWM3_2_IRQHandler
                0x70025c38        0x8 ./startup/startup_mimxrt1064.o
                0x70025c38                PWM3_2_IRQHandler
 .text.PWM3_3_IRQHandler
                0x70025c40        0x8 ./startup/startup_mimxrt1064.o
                0x70025c40                PWM3_3_IRQHandler
 .text.PWM3_FAULT_IRQHandler
                0x70025c48        0x8 ./startup/startup_mimxrt1064.o
                0x70025c48                PWM3_FAULT_IRQHandler
 .text.PWM4_0_IRQHandler
                0x70025c50        0x8 ./startup/startup_mimxrt1064.o
                0x70025c50                PWM4_0_IRQHandler
 .text.PWM4_1_IRQHandler
                0x70025c58        0x8 ./startup/startup_mimxrt1064.o
                0x70025c58                PWM4_1_IRQHandler
 .text.PWM4_2_IRQHandler
                0x70025c60        0x8 ./startup/startup_mimxrt1064.o
                0x70025c60                PWM4_2_IRQHandler
 .text.PWM4_3_IRQHandler
                0x70025c68        0x8 ./startup/startup_mimxrt1064.o
                0x70025c68                PWM4_3_IRQHandler
 .text.PWM4_FAULT_IRQHandler
                0x70025c70        0x8 ./startup/startup_mimxrt1064.o
                0x70025c70                PWM4_FAULT_IRQHandler
 .text.ENET2_IRQHandler
                0x70025c78        0x8 ./startup/startup_mimxrt1064.o
                0x70025c78                ENET2_IRQHandler
 .text.ENET2_1588_Timer_IRQHandler
                0x70025c80        0x8 ./startup/startup_mimxrt1064.o
                0x70025c80                ENET2_1588_Timer_IRQHandler
 .text.CAN3_IRQHandler
                0x70025c88        0x8 ./startup/startup_mimxrt1064.o
                0x70025c88                CAN3_IRQHandler
 .text.Reserved171_IRQHandler
                0x70025c90        0x8 ./startup/startup_mimxrt1064.o
                0x70025c90                Reserved171_IRQHandler
 .text.FLEXIO3_IRQHandler
                0x70025c98        0x8 ./startup/startup_mimxrt1064.o
                0x70025c98                FLEXIO3_IRQHandler
 .text.GPIO6_7_8_9_IRQHandler
                0x70025ca0        0x8 ./startup/startup_mimxrt1064.o
                0x70025ca0                GPIO6_7_8_9_IRQHandler
 .text.averageNonBlockLevel.part.0
                0x70025ca8      0x10c ./source/Scan.o
 .text.controlLEDLightIntensityWithTryCnt.constprop.0
                0x70025db4      0x29c ./source/Scan.o
 .text.controlLEDLightIntensityWithTryCnt.constprop.1
                0x70026050      0x294 ./source/Scan.o
 .text.setThresholdDataByAvgNonBlockLevel.constprop.0
                0x700262e4      0x164 ./source/Scan.o
 .text.setThresholdDataByAvgNonBlockLevel.constprop.1
                0x70026448      0x144 ./source/Scan.o
 .text.copySequenceTbl
                0x7002658c      0x1f0 ./source/Scan.o
                0x7002658c                copySequenceTbl
 .text.initializeScanHW
                0x7002677c      0x520 ./source/Scan.o
                0x7002677c                initializeScanHW
 .text.Scan_Initialize
                0x70026c9c      0x1e8 ./source/Scan.o
                0x70026c9c                Scan_Initialize
 .text.findStartScanSequenceIdx
                0x70026e84       0xa8 ./source/Scan.o
                0x70026e84                findStartScanSequenceIdx
 .text.Calibration_Process.part.0
                0x70026f2c      0x4e0 ./source/Scan.o
 .text.Scan_Data_Process
                0x7002740c      0x77c ./source/Scan.o
                0x7002740c                Scan_Data_Process
 .text.setThresholdDataByAvgNonBlockLevel
                0x70027b88      0x310 ./source/Scan.o
                0x70027b88                setThresholdDataByAvgNonBlockLevel
 .text.getADCResultByPdIdxAndOffset
                0x70027e98       0xac ./source/Scan.o
                0x70027e98                getADCResultByPdIdxAndOffset
 .text.getADCResultByLedIdxAndOffset
                0x70027f44       0xac ./source/Scan.o
                0x70027f44                getADCResultByLedIdxAndOffset
 .text.getADCResultByDeviceIdx
                0x70027ff0       0xbc ./source/Scan.o
                0x70027ff0                getADCResultByDeviceIdx
 .text.decideDeadCell
                0x700280ac      0x358 ./source/Scan.o
                0x700280ac                decideDeadCell
 .text.Scan_Process
                0x70028404      0x168 ./source/Scan.o
                0x70028404                Scan_Process
 .text.ADC_SamplesStart
                0x7002856c       0x2c ./source/adc.o
                0x7002856c                ADC_SamplesStart
 .text.ADC_SamplesStop
                0x70028598       0x14 ./source/adc.o
                0x70028598                ADC_SamplesStop
 .text.SendTouch_Report.constprop.0.isra.0
                0x700285ac      0x14c ./source/app.o
 .text.SendBrush_Report.constprop.0.isra.0
                0x700286f8       0xd4 ./source/app.o
 .text.SendDigitizerReport.constprop.0.isra.0
                0x700287cc      0x2ac ./source/app.o
 .text.normalSendRes.constprop.0.isra.0
                0x70028a78      0x200 ./source/app.o
 .text.WDOG1_IRQHandler
                0x70028c78       0x10 ./source/app.o
                0x70028c78                WDOG1_IRQHandler
 .text.MY_WDOG_reset_init
                0x70028c88       0x24 ./source/app.o
                0x70028c88                MY_WDOG_reset_init
 .text.USB_OTG1_IRQHandler
                0x70028cac       0x10 ./source/app.o
                0x70028cac                USB_OTG1_IRQHandler
 .text.USB_OTG2_IRQHandler
                0x70028cbc       0x10 ./source/app.o
                0x70028cbc                USB_OTG2_IRQHandler
 .text.backend_process_line_data
                0x70028ccc      0x950 ./source/app.o
                0x70028ccc                backend_process_line_data
 .text.s_get_frame_span
                0x7002961c       0x24 ./source/app.o
                0x7002961c                s_get_frame_span
 .text.normalCmdProcess
                0x70029640      0x1d8 ./source/app.o
                0x70029640                normalCmdProcess
 .text.normal_dlt_send_data
                0x70029818       0x4c ./source/app.o
                0x70029818                normal_dlt_send_data
 .text.backendInit
                0x70029864      0x160 ./source/app.o
                0x70029864                backendInit
 .text.backendProcess
                0x700299c4       0x78 ./source/app.o
                0x700299c4                backendProcess
 .text.ReceiveCmdParser
                0x70029a3c      0x190 ./source/app.o
                0x70029a3c                ReceiveCmdParser
 .text.APP_Tasks
                0x70029bcc     0x13e4 ./source/app.o
                0x70029bcc                APP_Tasks
 .text.startup.main
                0x7002afb0       0xf0 ./source/app.o
                0x7002afb0                main
 .text.s_init_post_processing
                0x7002b0a0       0xcc ./source/backend_postp.o
                0x7002b0a0                s_init_post_processing
 .text.tp_init_post_processing
                0x7002b16c       0x78 ./source/backend_postp.o
                0x7002b16c                tp_init_post_processing
 .text.add_pos_info
                0x7002b1e4      0x104 ./source/backend_postp.o
                0x7002b1e4                add_pos_info
 .text.s_cal_hor_scroll
                0x7002b2e8      0x348 ./source/backend_postp.o
                0x7002b2e8                s_cal_hor_scroll
 .text.s_touch_point_tracking
                0x7002b630      0xe44 ./source/backend_postp.o
                0x7002b630                s_touch_point_tracking
 .text.s_smooth_filter
                0x7002c474      0x35c ./source/backend_postp.o
                0x7002c474                s_smooth_filter
 .text.s_coordinates_conversion
                0x7002c7d0      0x230 ./source/backend_postp.o
                0x7002c7d0                s_coordinates_conversion
 .text.s_smooth_filter_brush_report_delay
                0x7002ca00      0x160 ./source/backend_postp.o
                0x7002ca00                s_smooth_filter_brush_report_delay
 .text.beizerFilterAnalysis
                0x7002cb60       0x90 ./source/bezier.o
                0x7002cb60                beizerFilterAnalysis
 .text.USB_DeviceCallback
                0x7002cbf0      0x158 ./source/composite.o
 .text.USB_DeviceApplicationInit
                0x7002cd48       0xb8 ./source/composite.o
                0x7002cd48                USB_DeviceApplicationInit
 .text.USB_Device_ready
                0x7002ce00        0xc ./source/composite.o
                0x7002ce00                USB_Device_ready
 .text.USB_Get_Device_Handle
                0x7002ce0c        0xc ./source/composite.o
                0x7002ce0c                USB_Get_Device_Handle
 .text.show_frontend_fwinfo
                0x7002ce18      0x144 ./source/dlt.o
                0x7002ce18                show_frontend_fwinfo
 .text.get_ver_string
                0x7002cf5c       0x1c ./source/dlt.o
                0x7002cf5c                get_ver_string
 .text.copy_ofst_to_exb
                0x7002cf78      0x27c ./source/dlt.o
                0x7002cf78                copy_ofst_to_exb
 .text.Send_ExbBit_Data_to_USBCPU_Init
                0x7002d1f4       0x34 ./source/dlt.o
                0x7002d1f4                Send_ExbBit_Data_to_USBCPU_Init
 .text.Send_ADC_Data_to_USBCPU
                0x7002d228      0x504 ./source/dlt.o
                0x7002d228                Send_ADC_Data_to_USBCPU
 .text.dltParmInit
                0x7002d72c       0x5c ./source/dlt.o
                0x7002d72c                dltParmInit
 .text.dltProcess
                0x7002d788       0xb0 ./source/dlt.o
                0x7002d788                dltProcess
 .text.USB_DeviceHidGenericCallback
                0x7002d838       0x80 ./source/hid_generic.o
                0x7002d838                USB_DeviceHidGenericCallback
 .text.USB_DeviceHidGenericSetConfigure
                0x7002d8b8       0x20 ./source/hid_generic.o
                0x7002d8b8                USB_DeviceHidGenericSetConfigure
 .text.USB_DeviceHidGenericSetInterface
                0x7002d8d8       0x34 ./source/hid_generic.o
                0x7002d8d8                USB_DeviceHidGenericSetInterface
 .text.USB_DeviceHidGenericInit
                0x7002d90c       0x3c ./source/hid_generic.o
                0x7002d90c                USB_DeviceHidGenericInit
 .text.USB_SendDigitizerReport
                0x7002d948       0x30 ./source/hid_generic.o
                0x7002d948                USB_SendDigitizerReport
 .text.USB_DeviceHidMouseCallback
                0x7002d978        0x4 ./source/hid_mouse.o
                0x7002d978                USB_DeviceHidMouseCallback
 .text.USB_DeviceHidMouseSetConfigure
                0x7002d97c       0x34 ./source/hid_mouse.o
                0x7002d97c                USB_DeviceHidMouseSetConfigure
 .text.USB_DeviceHidMouseSetInterface
                0x7002d9b0       0x34 ./source/hid_mouse.o
                0x7002d9b0                USB_DeviceHidMouseSetInterface
 .text.USB_DeviceHidMouseInit
                0x7002d9e4       0x1c ./source/hid_mouse.o
                0x7002d9e4                USB_DeviceHidMouseInit
 .text.USB_SendMouseReport
                0x7002da00       0x30 ./source/hid_mouse.o
                0x7002da00                USB_SendMouseReport
 .text.USB_GetMouseBuffer
                0x7002da30       0x10 ./source/hid_mouse.o
                0x7002da30                USB_GetMouseBuffer
 .text.HardFault_Handler
                0x7002da40       0x2c ./source/semihost_hardfault.o
                0x7002da40                HardFault_Handler
 .text.USB_DeviceGetDeviceDescriptor
                0x7002da6c       0x10 ./source/usb_device_descriptor.o
                0x7002da6c                USB_DeviceGetDeviceDescriptor
 .text.USB_DeviceGetConfigurationDescriptor
                0x7002da7c       0x18 ./source/usb_device_descriptor.o
                0x7002da7c                USB_DeviceGetConfigurationDescriptor
 .text.USB_DeviceGetStringDescriptor
                0x7002da94       0x50 ./source/usb_device_descriptor.o
                0x7002da94                USB_DeviceGetStringDescriptor
 .text.USB_DeviceGetHidDescriptor
                0x7002dae4        0x4 ./source/usb_device_descriptor.o
                0x7002dae4                USB_DeviceGetHidDescriptor
 .text.USB_DeviceGetHidReportDescriptor
                0x7002dae8       0x2c ./source/usb_device_descriptor.o
                0x7002dae8                USB_DeviceGetHidReportDescriptor
 .text.USB_DeviceGetHidPhysicalDescriptor
                0x7002db14        0x4 ./source/usb_device_descriptor.o
                0x7002db14                USB_DeviceGetHidPhysicalDescriptor
 .text.USB_DeviceSetSpeed
                0x7002db18       0xb4 ./source/usb_device_descriptor.o
                0x7002db18                USB_DeviceSetSpeed
 .text.ADC_Init
                0x7002dbcc       0xcc ./drivers/fsl_adc.o
                0x7002dbcc                ADC_Init
 .text.ADC_SetChannelConfig
                0x7002dc98       0x14 ./drivers/fsl_adc.o
                0x7002dc98                ADC_SetChannelConfig
 .text.ADC_DoAutoCalibration
                0x7002dcac       0x5c ./drivers/fsl_adc.o
                0x7002dcac                ADC_DoAutoCalibration
 .text.CLOCK_InitExternalClk
                0x7002dd08       0x34 ./drivers/fsl_clock.o
                0x7002dd08                CLOCK_InitExternalClk
 .text.CLOCK_SwitchOsc
                0x7002dd3c       0x18 ./drivers/fsl_clock.o
                0x7002dd3c                CLOCK_SwitchOsc
 .text.CLOCK_InitRcOsc24M
                0x7002dd54       0x14 ./drivers/fsl_clock.o
                0x7002dd54                CLOCK_InitRcOsc24M
 .text.CLOCK_EnableUsbhs0Clock
                0x7002dd68       0x58 ./drivers/fsl_clock.o
                0x7002dd68                CLOCK_EnableUsbhs0Clock
 .text.CLOCK_EnableUsbhs0PhyPllClock
                0x7002ddc0       0x68 ./drivers/fsl_clock.o
                0x7002ddc0                CLOCK_EnableUsbhs0PhyPllClock
 .text.CLOCK_InitArmPll
                0x7002de28       0x4c ./drivers/fsl_clock.o
                0x7002de28                CLOCK_InitArmPll
 .text.CLOCK_InitSysPll
                0x7002de74       0x70 ./drivers/fsl_clock.o
                0x7002de74                CLOCK_InitSysPll
 .text.CLOCK_DeinitUsb2Pll
                0x7002dee4        0xc ./drivers/fsl_clock.o
                0x7002dee4                CLOCK_DeinitUsb2Pll
 .text.CLOCK_DeinitAudioPll
                0x7002def0       0x10 ./drivers/fsl_clock.o
                0x7002def0                CLOCK_DeinitAudioPll
 .text.CLOCK_DeinitEnetPll
                0x7002df00       0x10 ./drivers/fsl_clock.o
                0x7002df00                CLOCK_DeinitEnetPll
 .text.CLOCK_GetPllFreq
                0x7002df10      0x1e0 ./drivers/fsl_clock.o
                0x7002df10                CLOCK_GetPllFreq
 .text.CLOCK_InitSysPfd
                0x7002e0f0       0x34 ./drivers/fsl_clock.o
                0x7002e0f0                CLOCK_InitSysPfd
 .text.GPIO_PinSetInterruptConfig
                0x7002e124       0x8c ./drivers/fsl_gpio.o
                0x7002e124                GPIO_PinSetInterruptConfig
 .text.GPIO_PinInit
                0x7002e1b0       0xbc ./drivers/fsl_gpio.o
                0x7002e1b0                GPIO_PinInit
 .text.GPT_Init
                0x7002e26c       0xdc ./drivers/fsl_gpt.o
                0x7002e26c                GPT_Init
 .text.LPUART_Init
                0x7002e348      0x28c ./drivers/fsl_lpuart.o
                0x7002e348                LPUART_Init
 .text.LPUART_GetDefaultConfig
                0x7002e5d4       0x20 ./drivers/fsl_lpuart.o
                0x7002e5d4                LPUART_GetDefaultConfig
 .text.LPUART1_DriverIRQHandler
                0x7002e5f4       0x20 ./drivers/fsl_lpuart.o
                0x7002e5f4                LPUART1_DriverIRQHandler
 .text.LPUART2_DriverIRQHandler
                0x7002e614       0x20 ./drivers/fsl_lpuart.o
                0x7002e614                LPUART2_DriverIRQHandler
 .text.LPUART3_DriverIRQHandler
                0x7002e634       0x20 ./drivers/fsl_lpuart.o
                0x7002e634                LPUART3_DriverIRQHandler
 .text.LPUART4_DriverIRQHandler
                0x7002e654       0x20 ./drivers/fsl_lpuart.o
                0x7002e654                LPUART4_DriverIRQHandler
 .text.LPUART5_DriverIRQHandler
                0x7002e674       0x20 ./drivers/fsl_lpuart.o
                0x7002e674                LPUART5_DriverIRQHandler
 .text.LPUART6_DriverIRQHandler
                0x7002e694       0x20 ./drivers/fsl_lpuart.o
                0x7002e694                LPUART6_DriverIRQHandler
 .text.LPUART7_DriverIRQHandler
                0x7002e6b4       0x20 ./drivers/fsl_lpuart.o
                0x7002e6b4                LPUART7_DriverIRQHandler
 .text.LPUART8_DriverIRQHandler
                0x7002e6d4       0x20 ./drivers/fsl_lpuart.o
                0x7002e6d4                LPUART8_DriverIRQHandler
 .text.QTMR_Init
                0x7002e6f4       0xbc ./drivers/fsl_qtmr.o
                0x7002e6f4                QTMR_Init
 .text.QTMR_SetupPwm
                0x7002e7b0       0xdc ./drivers/fsl_qtmr.o
                0x7002e7b0                QTMR_SetupPwm
 .text.WDOG_GetDefaultConfig
                0x7002e88c       0x24 ./drivers/fsl_wdog.o
                0x7002e88c                WDOG_GetDefaultConfig
 .text.WDOG_Init
                0x7002e8b0       0xd8 ./drivers/fsl_wdog.o
                0x7002e8b0                WDOG_Init
 .text.WDOG_GetStatusFlags
                0x7002e988       0x2c ./drivers/fsl_wdog.o
                0x7002e988                WDOG_GetStatusFlags
 .text.WDOG_ClearInterruptStatus
                0x7002e9b4       0x10 ./drivers/fsl_wdog.o
                0x7002e9b4                WDOG_ClearInterruptStatus
 .text.WDOG_Refresh
                0x7002e9c4       0x18 ./drivers/fsl_wdog.o
                0x7002e9c4                WDOG_Refresh
 .text.XBARA_SetSignalsConnection
                0x7002e9dc       0x28 ./drivers/fsl_xbara.o
                0x7002e9dc                XBARA_SetSignalsConnection
 .text.SystemInitHook
                0x7002ea04        0x4 ./device/system_MIMXRT1064.o
                0x7002ea04                SystemInitHook
 .text.SystemInit
                0x7002ea08       0xe8 ./device/system_MIMXRT1064.o
                0x7002ea08                SystemInit
 .text.HAL_UartInit
                0x7002eaf0       0x9c ./component/uart/fsl_adapter_lpuart.o
                0x7002eaf0                HAL_UartInit
 .text.SerialManager_Init
                0x7002eb8c       0x2c ./component/serial_manager/fsl_component_serial_manager.o
                0x7002eb8c                SerialManager_Init
 .text.SerialManager_OpenWriteHandle
                0x7002ebb8       0x28 ./component/serial_manager/fsl_component_serial_manager.o
                0x7002ebb8                SerialManager_OpenWriteHandle
 .text.SerialManager_OpenReadHandle
                0x7002ebe0       0x30 ./component/serial_manager/fsl_component_serial_manager.o
                0x7002ebe0                SerialManager_OpenReadHandle
 .text.Serial_UartInit
                0x7002ec10        0x4 ./component/serial_manager/fsl_component_serial_port_uart.o
                0x7002ec10                Serial_UartInit
 .text.OSA_EnterCritical
                0x7002ec14        0xc ./component/osa/fsl_os_abstraction_bm.o
                0x7002ec14                OSA_EnterCritical
 .text.OSA_ExitCritical
                0x7002ec20        0x8 ./component/osa/fsl_os_abstraction_bm.o
                0x7002ec20                OSA_ExitCritical
 .text.BOARD_InitDebugConsole
                0x7002ec28       0x70 ./board/board.o
                0x7002ec28                BOARD_InitDebugConsole
 .text.BOARD_ConfigMPU
                0x7002ec98      0x218 ./board/board.o
                0x7002ec98                BOARD_ConfigMPU
 .text.BOARD_BootClockRUN
                0x7002eeb0      0x904 ./board/clock_config.o
                0x7002eeb0                BOARD_BootClockRUN
 .text.BOARD_InitPeripherals
                0x7002f7b4      0x164 ./board/peripherals.o
                0x7002f7b4                BOARD_InitPeripherals
 .text.BOARD_InitBootPeripherals
                0x7002f918        0x4 ./board/peripherals.o
                0x7002f918                BOARD_InitBootPeripherals
 .text.BOARD_InitPins
                0x7002f91c      0x398 ./board/pin_mux.o
                0x7002f91c                BOARD_InitPins
 .text.epaAddInitial4.part.0.constprop.0.isra.0
                0x7002fcb4      0x124 D:\Project\21.IR_Touch\BE_FW\wmc-ctsi-0850-fe-be-app\lib/libbackend_irt650_nxp2.a(backend_main.o)
 .text.BS_make_large_pitch_tbl.isra.0
                0x7002fdd8      0x11c D:\Project\21.IR_Touch\BE_FW\wmc-ctsi-0850-fe-be-app\lib/libbackend_irt650_nxp2.a(backend_main.o)
 .text.BS_set_unset2_used_led_pd
                0x7002fef4       0x70 D:\Project\21.IR_Touch\BE_FW\wmc-ctsi-0850-fe-be-app\lib/libbackend_irt650_nxp2.a(backend_main.o)
                0x7002fef4                BS_set_unset2_used_led_pd
 .text.BS_get_remained_line
                0x7002ff64       0xf0 D:\Project\21.IR_Touch\BE_FW\wmc-ctsi-0850-fe-be-app\lib/libbackend_irt650_nxp2.a(backend_main.o)
                0x7002ff64                BS_get_remained_line
 .text.BS_is_large_pitch
                0x70030054       0x40 D:\Project\21.IR_Touch\BE_FW\wmc-ctsi-0850-fe-be-app\lib/libbackend_irt650_nxp2.a(backend_main.o)
                0x70030054                BS_is_large_pitch
 .text.BS_add_epf_used
                0x70030094       0x20 D:\Project\21.IR_Touch\BE_FW\wmc-ctsi-0850-fe-be-app\lib/libbackend_irt650_nxp2.a(backend_main.o)
                0x70030094                BS_add_epf_used
 .text.BS_is_epf_used
                0x700300b4       0x2c D:\Project\21.IR_Touch\BE_FW\wmc-ctsi-0850-fe-be-app\lib/libbackend_irt650_nxp2.a(backend_main.o)
                0x700300b4                BS_is_epf_used
 .text.BS_is_set_threshold
                0x700300e0       0x64 D:\Project\21.IR_Touch\BE_FW\wmc-ctsi-0850-fe-be-app\lib/libbackend_irt650_nxp2.a(backend_main.o)
                0x700300e0                BS_is_set_threshold
 .text.BS_is_near_dead
                0x70030144       0x74 D:\Project\21.IR_Touch\BE_FW\wmc-ctsi-0850-fe-be-app\lib/libbackend_irt650_nxp2.a(backend_main.o)
                0x70030144                BS_is_near_dead
 .text.BS_is_dead_cell
                0x700301b8       0x58 D:\Project\21.IR_Touch\BE_FW\wmc-ctsi-0850-fe-be-app\lib/libbackend_irt650_nxp2.a(backend_main.o)
                0x700301b8                BS_is_dead_cell
 .text.BS_is_dead_cell_pos
                0x70030210       0xa8 D:\Project\21.IR_Touch\BE_FW\wmc-ctsi-0850-fe-be-app\lib/libbackend_irt650_nxp2.a(backend_main.o)
                0x70030210                BS_is_dead_cell_pos
 .text.BG_init_backend
                0x700302b8      0x384 D:\Project\21.IR_Touch\BE_FW\wmc-ctsi-0850-fe-be-app\lib/libbackend_irt650_nxp2.a(backend_main.o)
                0x700302b8                BG_init_backend
 .text.BS_addEpaPosMulti
                0x7003063c      0x258 D:\Project\21.IR_Touch\BE_FW\wmc-ctsi-0850-fe-be-app\lib/libbackend_irt650_nxp2.a(backend_main.o)
                0x7003063c                BS_addEpaPosMulti
 .text.BS_set_line_buffer
                0x70030894       0xc4 D:\Project\21.IR_Touch\BE_FW\wmc-ctsi-0850-fe-be-app\lib/libbackend_irt650_nxp2.a(backend_main.o)
                0x70030894                BS_set_line_buffer
 .text.BS_is_set_line_buffer
                0x70030958       0x54 D:\Project\21.IR_Touch\BE_FW\wmc-ctsi-0850-fe-be-app\lib/libbackend_irt650_nxp2.a(backend_main.o)
                0x70030958                BS_is_set_line_buffer
 .text.BG_call_backend2
                0x700309ac     0x114c D:\Project\21.IR_Touch\BE_FW\wmc-ctsi-0850-fe-be-app\lib/libbackend_irt650_nxp2.a(backend_main.o)
                0x700309ac                BG_call_backend2
 .text.multi_is_adjacent_tp_surrounded
                0x70031af8      0x3b8 D:\Project\21.IR_Touch\BE_FW\wmc-ctsi-0850-fe-be-app\lib/libbackend_irt650_nxp2.a(backend_multi.o)
 .text.touch_info_sort.constprop.0
                0x70031eb0       0xb0 D:\Project\21.IR_Touch\BE_FW\wmc-ctsi-0850-fe-be-app\lib/libbackend_irt650_nxp2.a(backend_multi.o)
 .text.addEpaValueMulti.constprop.1.isra.0
                0x70031f60       0xfc D:\Project\21.IR_Touch\BE_FW\wmc-ctsi-0850-fe-be-app\lib/libbackend_irt650_nxp2.a(backend_multi.o)
 .text.addEpaValueMulti.constprop.0.isra.0
                0x7003205c       0xf4 D:\Project\21.IR_Touch\BE_FW\wmc-ctsi-0850-fe-be-app\lib/libbackend_irt650_nxp2.a(backend_multi.o)
 .text.clipping_var_save_result.constprop.1.isra.0
                0x70032150       0x84 D:\Project\21.IR_Touch\BE_FW\wmc-ctsi-0850-fe-be-app\lib/libbackend_irt650_nxp2.a(backend_multi.o)
 .text.multi_get_initial_poly.constprop.1.isra.0
                0x700321d4       0xa8 D:\Project\21.IR_Touch\BE_FW\wmc-ctsi-0850-fe-be-app\lib/libbackend_irt650_nxp2.a(backend_multi.o)
 .text.clipping_add_initial_polygon.isra.0
                0x7003227c      0x110 D:\Project\21.IR_Touch\BE_FW\wmc-ctsi-0850-fe-be-app\lib/libbackend_irt650_nxp2.a(backend_multi.o)
 .text.make_edge_pattern_dz.isra.0
                0x7003238c      0x194 D:\Project\21.IR_Touch\BE_FW\wmc-ctsi-0850-fe-be-app\lib/libbackend_irt650_nxp2.a(backend_multi.o)
 .text.multi_recal_used_line.constprop.0.isra.0
                0x70032520      0x37c D:\Project\21.IR_Touch\BE_FW\wmc-ctsi-0850-fe-be-app\lib/libbackend_irt650_nxp2.a(backend_multi.o)
 .text.multi_recal_used_line.constprop.1.isra.0
                0x7003289c      0x37c D:\Project\21.IR_Touch\BE_FW\wmc-ctsi-0850-fe-be-app\lib/libbackend_irt650_nxp2.a(backend_multi.o)
 .text.multi_recal_min_max
                0x70032c18      0x3d8 D:\Project\21.IR_Touch\BE_FW\wmc-ctsi-0850-fe-be-app\lib/libbackend_irt650_nxp2.a(backend_multi.o)
 .text.BS_multi_malloc
                0x70032ff0      0x14c D:\Project\21.IR_Touch\BE_FW\wmc-ctsi-0850-fe-be-app\lib/libbackend_irt650_nxp2.a(backend_multi.o)
                0x70032ff0                BS_multi_malloc
 .text.BS_packEdgePatternMulti_ind
                0x7003313c      0x3ac D:\Project\21.IR_Touch\BE_FW\wmc-ctsi-0850-fe-be-app\lib/libbackend_irt650_nxp2.a(backend_multi.o)
                0x7003313c                BS_packEdgePatternMulti_ind
 .text.BG_clipping_multi_initial4
                0x700334e8      0x564 D:\Project\21.IR_Touch\BE_FW\wmc-ctsi-0850-fe-be-app\lib/libbackend_irt650_nxp2.a(backend_multi.o)
                0x700334e8                BG_clipping_multi_initial4
 .text.addEdgePatternHalfPad
                0x70033a4c      0x3b4 D:\Project\21.IR_Touch\BE_FW\wmc-ctsi-0850-fe-be-app\lib/libbackend_irt650_nxp2.a(backend_multi.o)
                0x70033a4c                addEdgePatternHalfPad
 .text.clipping_multi_remained
                0x70033e00      0xfe0 D:\Project\21.IR_Touch\BE_FW\wmc-ctsi-0850-fe-be-app\lib/libbackend_irt650_nxp2.a(backend_multi.o)
 .text.BS_multi_is_overlap_min_max_tp
                0x70034de0      0x260 D:\Project\21.IR_Touch\BE_FW\wmc-ctsi-0850-fe-be-app\lib/libbackend_irt650_nxp2.a(backend_multi.o)
                0x70034de0                BS_multi_is_overlap_min_max_tp
 .text.BG_clipping_multi
                0x70035040      0x988 D:\Project\21.IR_Touch\BE_FW\wmc-ctsi-0850-fe-be-app\lib/libbackend_irt650_nxp2.a(backend_multi.o)
                0x70035040                BG_clipping_multi
 .text.BG_clipping_multi_post
                0x700359c8     0x1388 D:\Project\21.IR_Touch\BE_FW\wmc-ctsi-0850-fe-be-app\lib/libbackend_irt650_nxp2.a(backend_multi.o)
                0x700359c8                BG_clipping_multi_post
 .text.BG_epaInit
                0x70036d50       0xd8 D:\Project\21.IR_Touch\BE_FW\wmc-ctsi-0850-fe-be-app\lib/libbackend_irt650_nxp2.a(backend_multi.o)
                0x70036d50                BG_epaInit
 .text.BS_getSideFromPos
                0x70036e28       0x64 D:\Project\21.IR_Touch\BE_FW\wmc-ctsi-0850-fe-be-app\lib/libbackend_irt650_nxp2.a(backend_multi.o)
                0x70036e28                BS_getSideFromPos
 .text.BS_malloc_init
                0x70036e8c       0x14 D:\Project\21.IR_Touch\BE_FW\wmc-ctsi-0850-fe-be-app\lib/libbackend_irt650_nxp2.a(backend_utils.o)
                0x70036e8c                BS_malloc_init
 .text.BS_malloc
                0x70036ea0       0x2c D:\Project\21.IR_Touch\BE_FW\wmc-ctsi-0850-fe-be-app\lib/libbackend_irt650_nxp2.a(backend_utils.o)
                0x70036ea0                BS_malloc
 .text.BS_malloc_uint8_t2
                0x70036ecc       0x5c D:\Project\21.IR_Touch\BE_FW\wmc-ctsi-0850-fe-be-app\lib/libbackend_irt650_nxp2.a(backend_utils.o)
                0x70036ecc                BS_malloc_uint8_t2
 .text.BS_utils_malloc
                0x70036f28       0x80 D:\Project\21.IR_Touch\BE_FW\wmc-ctsi-0850-fe-be-app\lib/libbackend_irt650_nxp2.a(backend_utils.o)
                0x70036f28                BS_utils_malloc
 .text.BS_left_of
                0x70036fa8       0x6c D:\Project\21.IR_Touch\BE_FW\wmc-ctsi-0850-fe-be-app\lib/libbackend_irt650_nxp2.a(backend_utils.o)
                0x70036fa8                BS_left_of
 .text.BS_line_intersection
                0x70037014      0x104 D:\Project\21.IR_Touch\BE_FW\wmc-ctsi-0850-fe-be-app\lib/libbackend_irt650_nxp2.a(backend_utils.o)
                0x70037014                BS_line_intersection
 .text.poly_e_edge_clip
                0x70037118      0x1d4 D:\Project\21.IR_Touch\BE_FW\wmc-ctsi-0850-fe-be-app\lib/libbackend_irt650_nxp2.a(backend_utils.o)
 .text.BS_poly_e_clip
                0x700372ec      0x134 D:\Project\21.IR_Touch\BE_FW\wmc-ctsi-0850-fe-be-app\lib/libbackend_irt650_nxp2.a(backend_utils.o)
                0x700372ec                BS_poly_e_clip
 .text.BG_calDistSquare
                0x70037420       0x18 D:\Project\21.IR_Touch\BE_FW\wmc-ctsi-0850-fe-be-app\lib/libbackend_irt650_nxp2.a(backend_utils.o)
                0x70037420                BG_calDistSquare
 .text.BS_getTouchArea
                0x70037438       0x74 D:\Project\21.IR_Touch\BE_FW\wmc-ctsi-0850-fe-be-app\lib/libbackend_irt650_nxp2.a(backend_utils.o)
                0x70037438                BS_getTouchArea
 .text.BS_is_edge
                0x700374ac       0xf4 D:\Project\21.IR_Touch\BE_FW\wmc-ctsi-0850-fe-be-app\lib/libbackend_irt650_nxp2.a(backend_utils.o)
                0x700374ac                BS_is_edge
 .text.BS_getSenInBuf
                0x700375a0       0x9c D:\Project\21.IR_Touch\BE_FW\wmc-ctsi-0850-fe-be-app\lib/libbackend_irt650_nxp2.a(backend_utils.o)
                0x700375a0                BS_getSenInBuf
 .text.BS_getLinePosInBufSen
                0x7003763c       0xac D:\Project\21.IR_Touch\BE_FW\wmc-ctsi-0850-fe-be-app\lib/libbackend_irt650_nxp2.a(backend_utils.o)
                0x7003763c                BS_getLinePosInBufSen
 .text.BS_getLinePosInBuf
                0x700376e8      0x108 D:\Project\21.IR_Touch\BE_FW\wmc-ctsi-0850-fe-be-app\lib/libbackend_irt650_nxp2.a(backend_utils.o)
                0x700376e8                BS_getLinePosInBuf
 .text.BS_getSenNumPos
                0x700377f0      0x1d4 D:\Project\21.IR_Touch\BE_FW\wmc-ctsi-0850-fe-be-app\lib/libbackend_irt650_nxp2.a(backend_utils.o)
                0x700377f0                BS_getSenNumPos
 .text.BS_calMinMaxSen
                0x700379c4      0x280 D:\Project\21.IR_Touch\BE_FW\wmc-ctsi-0850-fe-be-app\lib/libbackend_irt650_nxp2.a(backend_utils.o)
                0x700379c4                BS_calMinMaxSen
 .text.BS_get_virtual_range
                0x70037c44      0x298 D:\Project\21.IR_Touch\BE_FW\wmc-ctsi-0850-fe-be-app\lib/libbackend_irt650_nxp2.a(backend_utils.o)
                0x70037c44                BS_get_virtual_range
 .text.BS_get_clipping_range
                0x70037edc      0x7f4 D:\Project\21.IR_Touch\BE_FW\wmc-ctsi-0850-fe-be-app\lib/libbackend_irt650_nxp2.a(backend_utils.o)
                0x70037edc                BS_get_clipping_range
 .text.BS_adj_used_lines_tp
                0x700386d0      0x7dc D:\Project\21.IR_Touch\BE_FW\wmc-ctsi-0850-fe-be-app\lib/libbackend_irt650_nxp2.a(backend_utils.o)
                0x700386d0                BS_adj_used_lines_tp
 .text.is_cont_sen_same_slope
                0x70038eac       0xf8 D:\Project\21.IR_Touch\BE_FW\wmc-ctsi-0850-fe-be-app\lib/libbackend_irt650_nxp2.a(backend_fine.o)
 .text.fine_make_group3
                0x70038fa4      0x29c D:\Project\21.IR_Touch\BE_FW\wmc-ctsi-0850-fe-be-app\lib/libbackend_irt650_nxp2.a(backend_fine.o)
 .text.fine_is_closed_eraser_min_max
                0x70039240      0x1b8 D:\Project\21.IR_Touch\BE_FW\wmc-ctsi-0850-fe-be-app\lib/libbackend_irt650_nxp2.a(backend_fine.o)
 .text.fine_shadow_get_dist_closed_tp
                0x700393f8      0x188 D:\Project\21.IR_Touch\BE_FW\wmc-ctsi-0850-fe-be-app\lib/libbackend_irt650_nxp2.a(backend_fine.o)
 .text.fine_shadow_get_slope_line
                0x70039580      0x180 D:\Project\21.IR_Touch\BE_FW\wmc-ctsi-0850-fe-be-app\lib/libbackend_irt650_nxp2.a(backend_fine.o)
 .text.is_cont_line.part.0
                0x70039700      0x130 D:\Project\21.IR_Touch\BE_FW\wmc-ctsi-0850-fe-be-app\lib/libbackend_irt650_nxp2.a(backend_fine.o)
 .text.fine_is_closed_tp_min_max.constprop.0
                0x70039830      0x120 D:\Project\21.IR_Touch\BE_FW\wmc-ctsi-0850-fe-be-app\lib/libbackend_irt650_nxp2.a(backend_fine.o)
 .text.fine_get_inst3.constprop.0
                0x70039950      0x2a8 D:\Project\21.IR_Touch\BE_FW\wmc-ctsi-0850-fe-be-app\lib/libbackend_irt650_nxp2.a(backend_fine.o)
 .text.fine_cal_min_max3.constprop.0
                0x70039bf8      0x6e4 D:\Project\21.IR_Touch\BE_FW\wmc-ctsi-0850-fe-be-app\lib/libbackend_irt650_nxp2.a(backend_fine.o)
 .text.fine_make_group5_A.constprop.0
                0x7003a2dc      0x798 D:\Project\21.IR_Touch\BE_FW\wmc-ctsi-0850-fe-be-app\lib/libbackend_irt650_nxp2.a(backend_fine.o)
 .text.fine_get_inst5.constprop.0
                0x7003aa74      0x53c D:\Project\21.IR_Touch\BE_FW\wmc-ctsi-0850-fe-be-app\lib/libbackend_irt650_nxp2.a(backend_fine.o)
 .text.fine_make_grp_min_max.isra.0
                0x7003afb0       0xa4 D:\Project\21.IR_Touch\BE_FW\wmc-ctsi-0850-fe-be-app\lib/libbackend_irt650_nxp2.a(backend_fine.o)
 .text.fine_getThresholdCnt.isra.0
                0x7003b054      0x1b8 D:\Project\21.IR_Touch\BE_FW\wmc-ctsi-0850-fe-be-app\lib/libbackend_irt650_nxp2.a(backend_fine.o)
 .text.fine_shadow_cal_cent_pos2.isra.0
                0x7003b20c      0x9a8 D:\Project\21.IR_Touch\BE_FW\wmc-ctsi-0850-fe-be-app\lib/libbackend_irt650_nxp2.a(backend_fine.o)
 .text.fine_get_initial_ep5_remained.isra.0
                0x7003bbb4      0x1e4 D:\Project\21.IR_Touch\BE_FW\wmc-ctsi-0850-fe-be-app\lib/libbackend_irt650_nxp2.a(backend_fine.o)
 .text.fine_remove_ghost_pre.constprop.0.isra.0
                0x7003bd98       0xbc D:\Project\21.IR_Touch\BE_FW\wmc-ctsi-0850-fe-be-app\lib/libbackend_irt650_nxp2.a(backend_fine.o)
 .text.fine_add_touch_data.constprop.0
                0x7003be54      0x578 D:\Project\21.IR_Touch\BE_FW\wmc-ctsi-0850-fe-be-app\lib/libbackend_irt650_nxp2.a(backend_fine.o)
 .text.fine_cal_coordinates5.constprop.0
                0x7003c3cc     0x1678 D:\Project\21.IR_Touch\BE_FW\wmc-ctsi-0850-fe-be-app\lib/libbackend_irt650_nxp2.a(backend_fine.o)
 .text.BS_fine_malloc
                0x7003da44       0x68 D:\Project\21.IR_Touch\BE_FW\wmc-ctsi-0850-fe-be-app\lib/libbackend_irt650_nxp2.a(backend_fine.o)
                0x7003da44                BS_fine_malloc
 .text.BS_fine_get_initial_ep5
                0x7003daac      0x4f8 D:\Project\21.IR_Touch\BE_FW\wmc-ctsi-0850-fe-be-app\lib/libbackend_irt650_nxp2.a(backend_fine.o)
                0x7003daac                BS_fine_get_initial_ep5
 .text.BS_fine_add_remained_touch_xy
                0x7003dfa4      0x310 D:\Project\21.IR_Touch\BE_FW\wmc-ctsi-0850-fe-be-app\lib/libbackend_irt650_nxp2.a(backend_fine.o)
                0x7003dfa4                BS_fine_add_remained_touch_xy
 .text.BS_fine_add_remained_touch_shadow
                0x7003e2b4      0x88c D:\Project\21.IR_Touch\BE_FW\wmc-ctsi-0850-fe-be-app\lib/libbackend_irt650_nxp2.a(backend_fine.o)
                0x7003e2b4                BS_fine_add_remained_touch_shadow
 .text.BS_fine_add_remained_touch_edge_x
                0x7003eb40      0x1e0 D:\Project\21.IR_Touch\BE_FW\wmc-ctsi-0850-fe-be-app\lib/libbackend_irt650_nxp2.a(backend_fine.o)
                0x7003eb40                BS_fine_add_remained_touch_edge_x
 .text.BS_fine_add_remained_touch_edge_y
                0x7003ed20      0x1e0 D:\Project\21.IR_Touch\BE_FW\wmc-ctsi-0850-fe-be-app\lib/libbackend_irt650_nxp2.a(backend_fine.o)
                0x7003ed20                BS_fine_add_remained_touch_edge_y
 .text.BS_fine_add_remained_touch_brush
                0x7003ef00      0x5c0 D:\Project\21.IR_Touch\BE_FW\wmc-ctsi-0850-fe-be-app\lib/libbackend_irt650_nxp2.a(backend_fine.o)
                0x7003ef00                BS_fine_add_remained_touch_brush
 .text.BS_fine_add_remained_touch_brush2
                0x7003f4c0      0x7c0 D:\Project\21.IR_Touch\BE_FW\wmc-ctsi-0850-fe-be-app\lib/libbackend_irt650_nxp2.a(backend_fine.o)
                0x7003f4c0                BS_fine_add_remained_touch_brush2
 .text.BG_clipping_fine5
                0x7003fc80      0xb2c D:\Project\21.IR_Touch\BE_FW\wmc-ctsi-0850-fe-be-app\lib/libbackend_irt650_nxp2.a(backend_fine.o)
                0x7003fc80                BG_clipping_fine5
 .text.malloc   0x700407ac       0xc8 c:/nxp/mcuxpressoide_11.7.0_9198/ide/plugins/com.nxp.mcuxpresso.tools.win32_11.7.0.202209140929/tools/bin/../lib/gcc/arm-none-eabi/10.3.1/../../../../arm-none-eabi/lib/thumb/v7e-m+fp/hard\libcr_c.a(alloc.o)
                0x700407ac                malloc
 .text._Csys_alloc
                0x70040874       0x20 c:/nxp/mcuxpressoide_11.7.0_9198/ide/plugins/com.nxp.mcuxpresso.tools.win32_11.7.0.202209140929/tools/bin/../lib/gcc/arm-none-eabi/10.3.1/../../../../arm-none-eabi/lib/thumb/v7e-m+fp/hard\libcr_c.a(alloc.o)
                0x70040874                _Csys_alloc
 .text._initio  0x70040894       0x78 c:/nxp/mcuxpressoide_11.7.0_9198/ide/plugins/com.nxp.mcuxpresso.tools.win32_11.7.0.202209140929/tools/bin/../lib/gcc/arm-none-eabi/10.3.1/../../../../arm-none-eabi/lib/thumb/v7e-m+fp/hard\libcr_c.a(initio.o)
                0x70040894                _initio
 .text.__vfprintf
                0x7004090c      0xbf8 c:/nxp/mcuxpressoide_11.7.0_9198/ide/plugins/com.nxp.mcuxpresso.tools.win32_11.7.0.202209140929/tools/bin/../lib/gcc/arm-none-eabi/10.3.1/../../../../arm-none-eabi/lib/thumb/v7e-m+fp/hard\libcr_c.a(printf.o)
                0x7004090c                __vfprintf
 .text._vsnprintf
                0x70041504       0x68 c:/nxp/mcuxpressoide_11.7.0_9198/ide/plugins/com.nxp.mcuxpresso.tools.win32_11.7.0.202209140929/tools/bin/../lib/gcc/arm-none-eabi/10.3.1/../../../../arm-none-eabi/lib/thumb/v7e-m+fp/hard\libcr_c.a(printf.o)
                0x70041504                _vsnprintf
 .text._printf  0x7004156c       0x54 c:/nxp/mcuxpressoide_11.7.0_9198/ide/plugins/com.nxp.mcuxpresso.tools.win32_11.7.0.202209140929/tools/bin/../lib/gcc/arm-none-eabi/10.3.1/../../../../arm-none-eabi/lib/thumb/v7e-m+fp/hard\libcr_c.a(printf.o)
                0x7004156c                _printf
 .text.ch_val   0x700415c0       0x30 c:/nxp/mcuxpressoide_11.7.0_9198/ide/plugins/com.nxp.mcuxpresso.tools.win32_11.7.0.202209140929/tools/bin/../lib/gcc/arm-none-eabi/10.3.1/../../../../arm-none-eabi/lib/thumb/v7e-m+fp/hard\libcr_c.a(scanf.o)
 .text._strtoul
                0x700415f0       0xb8 c:/nxp/mcuxpressoide_11.7.0_9198/ide/plugins/com.nxp.mcuxpresso.tools.win32_11.7.0.202209140929/tools/bin/../lib/gcc/arm-none-eabi/10.3.1/../../../../arm-none-eabi/lib/thumb/v7e-m+fp/hard\libcr_c.a(scanf.o)
 .text.strtol   0x700416a8       0x7c c:/nxp/mcuxpressoide_11.7.0_9198/ide/plugins/com.nxp.mcuxpresso.tools.win32_11.7.0.202209140929/tools/bin/../lib/gcc/arm-none-eabi/10.3.1/../../../../arm-none-eabi/lib/thumb/v7e-m+fp/hard\libcr_c.a(scanf.o)
                0x700416a8                strtol
 .text._sbrk    0x70041724       0x3c c:/nxp/mcuxpressoide_11.7.0_9198/ide/plugins/com.nxp.mcuxpresso.tools.win32_11.7.0.202209140929/tools/bin/../lib/gcc/arm-none-eabi/10.3.1/../../../../arm-none-eabi/lib/thumb/v7e-m+fp/hard\libcr_c.a(_cr_sbrk.o)
                0x70041724                _sbrk
 .text._Cwritebuf
                0x70041760       0x6c c:/nxp/mcuxpressoide_11.7.0_9198/ide/plugins/com.nxp.mcuxpresso.tools.win32_11.7.0.202209140929/tools/bin/../lib/gcc/arm-none-eabi/10.3.1/../../../../arm-none-eabi/lib/thumb/v7e-m+fp/hard\libcr_c.a(_writebuf.o)
                0x70041760                _Cwritebuf
 .text.fflush   0x700417cc       0x3c c:/nxp/mcuxpressoide_11.7.0_9198/ide/plugins/com.nxp.mcuxpresso.tools.win32_11.7.0.202209140929/tools/bin/../lib/gcc/arm-none-eabi/10.3.1/../../../../arm-none-eabi/lib/thumb/v7e-m+fp/hard\libcr_c.a(fflush.o)
                0x700417cc                fflush
 .text.fseek    0x70041808       0xfc c:/nxp/mcuxpressoide_11.7.0_9198/ide/plugins/com.nxp.mcuxpresso.tools.win32_11.7.0.202209140929/tools/bin/../lib/gcc/arm-none-eabi/10.3.1/../../../../arm-none-eabi/lib/thumb/v7e-m+fp/hard\libcr_c.a(fseek.o)
                0x70041808                fseek
 .text.ftell    0x70041904       0x44 c:/nxp/mcuxpressoide_11.7.0_9198/ide/plugins/com.nxp.mcuxpresso.tools.win32_11.7.0.202209140929/tools/bin/../lib/gcc/arm-none-eabi/10.3.1/../../../../arm-none-eabi/lib/thumb/v7e-m+fp/hard\libcr_c.a(ftell.o)
                0x70041904                ftell
 .text.__check_heap_overflow
                0x70041948       0x18 c:/nxp/mcuxpressoide_11.7.0_9198/ide/plugins/com.nxp.mcuxpresso.tools.win32_11.7.0.202209140929/tools/bin/../lib/gcc/arm-none-eabi/10.3.1/../../../../arm-none-eabi/lib/thumb/v7e-m+fp/hard\libcr_c.a(_cr_check_heap.o)
                0x70041948                __check_heap_overflow
 .text.__aeabi_dmul
                0x70041960       0xfc c:/nxp/mcuxpressoide_11.7.0_9198/ide/plugins/com.nxp.mcuxpresso.tools.win32_11.7.0.202209140929/tools/bin/../lib/gcc/arm-none-eabi/10.3.1/thumb/v7e-m+fp/hard\libcr_eabihelpers.a(double.o)
                0x70041960                __aeabi_dmul
 .text.__aeabi_d2f
                0x70041a5c       0x58 c:/nxp/mcuxpressoide_11.7.0_9198/ide/plugins/com.nxp.mcuxpresso.tools.win32_11.7.0.202209140929/tools/bin/../lib/gcc/arm-none-eabi/10.3.1/thumb/v7e-m+fp/hard\libcr_eabihelpers.a(double.o)
                0x70041a5c                __aeabi_d2f
 .text.__main   0x70041ab4        0xe c:/nxp/mcuxpressoide_11.7.0_9198/ide/plugins/com.nxp.mcuxpresso.tools.win32_11.7.0.202209140929/tools/bin/../lib/gcc/arm-none-eabi/10.3.1/../../../../arm-none-eabi/lib/thumb/v7e-m+fp/hard\libcr_nohost_nf.a(_cr__main.o)
                0x70041ab4                __main
 .text.memcpy   0x70041ac2        0x4 c:/nxp/mcuxpressoide_11.7.0_9198/ide/plugins/com.nxp.mcuxpresso.tools.win32_11.7.0.202209140929/tools/bin/../lib/gcc/arm-none-eabi/10.3.1/../../../../arm-none-eabi/lib/thumb/v7e-m+fp/hard\libcr_c.a(memcpy.o)
                0x70041ac2                memcpy
 .text.memset   0x70041ac6        0x4 c:/nxp/mcuxpressoide_11.7.0_9198/ide/plugins/com.nxp.mcuxpresso.tools.win32_11.7.0.202209140929/tools/bin/../lib/gcc/arm-none-eabi/10.3.1/../../../../arm-none-eabi/lib/thumb/v7e-m+fp/hard\libcr_c.a(memset.o)
                0x70041ac6                memset
 .text.free     0x70041aca       0x30 c:/nxp/mcuxpressoide_11.7.0_9198/ide/plugins/com.nxp.mcuxpresso.tools.win32_11.7.0.202209140929/tools/bin/../lib/gcc/arm-none-eabi/10.3.1/../../../../arm-none-eabi/lib/thumb/v7e-m+fp/hard\libcr_c.a(alloc.o)
                0x70041aca                free
 .text.no_fp_display
                0x70041afa        0x4 c:/nxp/mcuxpressoide_11.7.0_9198/ide/plugins/com.nxp.mcuxpresso.tools.win32_11.7.0.202209140929/tools/bin/../lib/gcc/arm-none-eabi/10.3.1/../../../../arm-none-eabi/lib/thumb/v7e-m+fp/hard\libcr_c.a(printf.o)
 .text.setvbuf  0x70041afe       0x3e c:/nxp/mcuxpressoide_11.7.0_9198/ide/plugins/com.nxp.mcuxpresso.tools.win32_11.7.0.202209140929/tools/bin/../lib/gcc/arm-none-eabi/10.3.1/../../../../arm-none-eabi/lib/thumb/v7e-m+fp/hard\libcr_c.a(setvbuf.o)
                0x70041afe                setvbuf
 .text.strchr   0x70041b3c       0x18 c:/nxp/mcuxpressoide_11.7.0_9198/ide/plugins/com.nxp.mcuxpresso.tools.win32_11.7.0.202209140929/tools/bin/../lib/gcc/arm-none-eabi/10.3.1/../../../../arm-none-eabi/lib/thumb/v7e-m+fp/hard\libcr_c.a(strchr.o)
                0x70041b3c                strchr
 .text.strlen   0x70041b54       0x48 c:/nxp/mcuxpressoide_11.7.0_9198/ide/plugins/com.nxp.mcuxpresso.tools.win32_11.7.0.202209140929/tools/bin/../lib/gcc/arm-none-eabi/10.3.1/../../../../arm-none-eabi/lib/thumb/v7e-m+fp/hard\libcr_c.a(strlen.o)
                0x70041b54                strlen
 .text._deferredlazyseek
                0x70041b9c       0x40 c:/nxp/mcuxpressoide_11.7.0_9198/ide/plugins/com.nxp.mcuxpresso.tools.win32_11.7.0.202209140929/tools/bin/../lib/gcc/arm-none-eabi/10.3.1/../../../../arm-none-eabi/lib/thumb/v7e-m+fp/hard\libcr_c.a(_deferredlazyseek.o)
                0x70041b9c                _deferredlazyseek
 .text.__flsbuf
                0x70041bdc      0x140 c:/nxp/mcuxpressoide_11.7.0_9198/ide/plugins/com.nxp.mcuxpresso.tools.win32_11.7.0.202209140929/tools/bin/../lib/gcc/arm-none-eabi/10.3.1/../../../../arm-none-eabi/lib/thumb/v7e-m+fp/hard\libcr_c.a(_deferredlazyseek.o)
                0x70041bdc                __flsbuf
 .text._fdopen  0x70041d1c       0x68 c:/nxp/mcuxpressoide_11.7.0_9198/ide/plugins/com.nxp.mcuxpresso.tools.win32_11.7.0.202209140929/tools/bin/../lib/gcc/arm-none-eabi/10.3.1/../../../../arm-none-eabi/lib/thumb/v7e-m+fp/hard\libcr_c.a(_fdopen.o)
                0x70041d1c                _fdopen
 .text._fflush  0x70041d84       0x52 c:/nxp/mcuxpressoide_11.7.0_9198/ide/plugins/com.nxp.mcuxpresso.tools.win32_11.7.0.202209140929/tools/bin/../lib/gcc/arm-none-eabi/10.3.1/../../../../arm-none-eabi/lib/thumb/v7e-m+fp/hard\libcr_c.a(_fflush.o)
                0x70041d84                _fflush
 .text.fclose   0x70041dd6       0x58 c:/nxp/mcuxpressoide_11.7.0_9198/ide/plugins/com.nxp.mcuxpresso.tools.win32_11.7.0.202209140929/tools/bin/../lib/gcc/arm-none-eabi/10.3.1/../../../../arm-none-eabi/lib/thumb/v7e-m+fp/hard\libcr_c.a(fclose.o)
                0x70041dd6                fclose
 .text.remove   0x70041e2e       0x14 c:/nxp/mcuxpressoide_11.7.0_9198/ide/plugins/com.nxp.mcuxpresso.tools.win32_11.7.0.202209140929/tools/bin/../lib/gcc/arm-none-eabi/10.3.1/../../../../arm-none-eabi/lib/thumb/v7e-m+fp/hard\libcr_c.a(remove.o)
                0x70041e2e                remove
 .text._do_fflush
                0x70041e42       0x40 c:/nxp/mcuxpressoide_11.7.0_9198/ide/plugins/com.nxp.mcuxpresso.tools.win32_11.7.0.202209140929/tools/bin/../lib/gcc/arm-none-eabi/10.3.1/../../../../arm-none-eabi/lib/thumb/v7e-m+fp/hard\libcr_c.a(_do_fflush.o)
                0x70041e42                _do_fflush
 .text.__aeabi_division_uldivmod
                0x70041e82      0x174 c:/nxp/mcuxpressoide_11.7.0_9198/ide/plugins/com.nxp.mcuxpresso.tools.win32_11.7.0.202209140929/tools/bin/../lib/gcc/arm-none-eabi/10.3.1/thumb/v7e-m+fp/hard\libcr_eabihelpers.a(division_64.o)
                0x70041e82                __aeabi_uldivmod
                0x70041e86                __bhs_ldivmod1
 .text.__aeabi_division_idiv0
                0x70041ff6        0x2 c:/nxp/mcuxpressoide_11.7.0_9198/ide/plugins/com.nxp.mcuxpresso.tools.win32_11.7.0.202209140929/tools/bin/../lib/gcc/arm-none-eabi/10.3.1/thumb/v7e-m+fp/hard\libcr_eabihelpers.a(division_idiv0.o)
                0x70041ff6                __aeabi_idiv0
 .text.__bhs_ui2d
                0x70041ff8       0x46 c:/nxp/mcuxpressoide_11.7.0_9198/ide/plugins/com.nxp.mcuxpresso.tools.win32_11.7.0.202209140929/tools/bin/../lib/gcc/arm-none-eabi/10.3.1/thumb/v7e-m+fp/hard\libcr_eabihelpers.a(double.o)
                0x70041ff8                __bhs_ui2d
 .text.__aeabi_i2d
                0x7004203e       0x12 c:/nxp/mcuxpressoide_11.7.0_9198/ide/plugins/com.nxp.mcuxpresso.tools.win32_11.7.0.202209140929/tools/bin/../lib/gcc/arm-none-eabi/10.3.1/thumb/v7e-m+fp/hard\libcr_eabihelpers.a(double.o)
                0x7004203e                __aeabi_i2d
 .text.__aeabi_memcpy
                0x70042050       0x34 c:/nxp/mcuxpressoide_11.7.0_9198/ide/plugins/com.nxp.mcuxpresso.tools.win32_11.7.0.202209140929/tools/bin/../lib/gcc/arm-none-eabi/10.3.1/thumb/v7e-m+fp/hard\libcr_eabihelpers.a(memcpy.o)
                0x70042050                __aeabi_memcpy
                0x7004205a                __aeabi_memcpy8
                0x7004205a                __aeabi_memcpy4
 .text.__aeabi_memset_lowlevel
                0x70042084       0x32 c:/nxp/mcuxpressoide_11.7.0_9198/ide/plugins/com.nxp.mcuxpresso.tools.win32_11.7.0.202209140929/tools/bin/../lib/gcc/arm-none-eabi/10.3.1/thumb/v7e-m+fp/hard\libcr_eabihelpers.a(memcpy.o)
                0x70042084                __aeabi_lowlevel_memset
 .text.__sys_appexit
                0x700420b6        0x2 c:/nxp/mcuxpressoide_11.7.0_9198/ide/plugins/com.nxp.mcuxpresso.tools.win32_11.7.0.202209140929/tools/bin/../lib/gcc/arm-none-eabi/10.3.1/../../../../arm-none-eabi/lib/thumb/v7e-m+fp/hard\libcr_nohost_nf.a(__sys_appexit.o)
                0x700420b6                __sys_appexit
                0x700420b6                __exit
 .text.__sys_close
                0x700420b8        0x6 c:/nxp/mcuxpressoide_11.7.0_9198/ide/plugins/com.nxp.mcuxpresso.tools.win32_11.7.0.202209140929/tools/bin/../lib/gcc/arm-none-eabi/10.3.1/../../../../arm-none-eabi/lib/thumb/v7e-m+fp/hard\libcr_nohost_nf.a(__sys_close.o)
                0x700420b8                __sys_close
 .text.__sys_flen
                0x700420be        0x6 c:/nxp/mcuxpressoide_11.7.0_9198/ide/plugins/com.nxp.mcuxpresso.tools.win32_11.7.0.202209140929/tools/bin/../lib/gcc/arm-none-eabi/10.3.1/../../../../arm-none-eabi/lib/thumb/v7e-m+fp/hard\libcr_nohost_nf.a(__sys_flen.o)
                0x700420be                __sys_flen
 .text.__sys_istty
                0x700420c4        0x6 c:/nxp/mcuxpressoide_11.7.0_9198/ide/plugins/com.nxp.mcuxpresso.tools.win32_11.7.0.202209140929/tools/bin/../lib/gcc/arm-none-eabi/10.3.1/../../../../arm-none-eabi/lib/thumb/v7e-m+fp/hard\libcr_nohost_nf.a(__sys_istty.o)
                0x700420c4                __sys_istty
 .text.__sys_remove
                0x700420ca        0x6 c:/nxp/mcuxpressoide_11.7.0_9198/ide/plugins/com.nxp.mcuxpresso.tools.win32_11.7.0.202209140929/tools/bin/../lib/gcc/arm-none-eabi/10.3.1/../../../../arm-none-eabi/lib/thumb/v7e-m+fp/hard\libcr_nohost_nf.a(__sys_remove.o)
                0x700420ca                __sys_remove
 .text.__sys_seek
                0x700420d0        0x6 c:/nxp/mcuxpressoide_11.7.0_9198/ide/plugins/com.nxp.mcuxpresso.tools.win32_11.7.0.202209140929/tools/bin/../lib/gcc/arm-none-eabi/10.3.1/../../../../arm-none-eabi/lib/thumb/v7e-m+fp/hard\libcr_nohost_nf.a(__sys_seek.o)
                0x700420d0                __sys_seek
 .text.__sys_tmpnam
                0x700420d6        0x6 c:/nxp/mcuxpressoide_11.7.0_9198/ide/plugins/com.nxp.mcuxpresso.tools.win32_11.7.0.202209140929/tools/bin/../lib/gcc/arm-none-eabi/10.3.1/../../../../arm-none-eabi/lib/thumb/v7e-m+fp/hard\libcr_nohost_nf.a(__sys_tmpnam.o)
                0x700420d6                __sys_tmpnam
 .text.__sys_write
                0x700420dc        0x4 c:/nxp/mcuxpressoide_11.7.0_9198/ide/plugins/com.nxp.mcuxpresso.tools.win32_11.7.0.202209140929/tools/bin/../lib/gcc/arm-none-eabi/10.3.1/../../../../arm-none-eabi/lib/thumb/v7e-m+fp/hard\libcr_nohost_nf.a(__sys_write.o)
                0x700420dc                __sys_write
 .text.__sys_write.__stub
                0x700420e0        0x8 linker stubs
 *(SORT_BY_ALIGNMENT(.rodata) SORT_BY_ALIGNMENT(.rodata.*) SORT_BY_ALIGNMENT(.constdata) SORT_BY_ALIGNMENT(.constdata.*))
 .rodata.s_UsbDeviceStandardRequest
                0x700420e8       0x34 ./usb/device/source/usb_device_ch9.o
 .rodata.s_UsbDeviceEhciInterface
                0x7004211c       0x18 ./usb/device/source/usb_device_dci.o
 .rodata.Scan_Process.str1.4
                0x70042134       0x1d ./source/Scan.o
 *fill*         0x70042151        0x3 
 .rodata.StartLedIndexOfBd
                0x70042154        0x7 ./source/Scan.o
                0x70042154                StartLedIndexOfBd
 *fill*         0x7004215b        0x1 
 .rodata.StartLedIndexOfGroupOffset
                0x7004215c        0x7 ./source/Scan.o
                0x7004215c                StartLedIndexOfGroupOffset
 *fill*         0x70042163        0x1 
 .rodata.GPT_1_config
                0x70042164       0x10 ./source/app.o
                0x70042164                GPT_1_config
 .rodata.crc_table
                0x70042174       0x20 ./source/app.o
 .rodata.verStrFe
                0x70042194        0x5 ./source/app.o
                0x70042194                verStrFe
 *fill*         0x70042199        0x3 
 .rodata.Real_Pressure
                0x7004219c       0xb4 ./source/backend_postp.o
                0x7004219c                Real_Pressure
 .rodata        0x70042250        0x3 ./source/composite.o
 *fill*         0x70042253        0x1 
 .rodata.getLedOnTime.str1.4
                0x70042254       0x37 ./source/dlt.o
 *fill*         0x7004228b        0x1 
 .rodata.getLedCurrentIdx.str1.4
                0x7004228c       0x3b ./source/dlt.o
 *fill*         0x700422c7        0x1 
 .rodata.aarea_end_x__
                0x700422c8        0x4 ./source/pitch_table.o
                0x700422c8                aarea_end_x__
 .rodata.aarea_end_y__
                0x700422cc        0x4 ./source/pitch_table.o
                0x700422cc                aarea_end_y__
 .rodata.aarea_zero_x__
                0x700422d0        0x4 ./source/pitch_table.o
                0x700422d0                aarea_zero_x__
 .rodata.aarea_zero_y__
                0x700422d4        0x4 ./source/pitch_table.o
                0x700422d4                aarea_zero_y__
 .rodata.sensor_XLED_Pos__
                0x700422d8      0x210 ./source/pitch_table.o
                0x700422d8                sensor_XLED_Pos__
 .rodata.sensor_XPD_Pos__
                0x700424e8      0x210 ./source/pitch_table.o
                0x700424e8                sensor_XPD_Pos__
 .rodata.sensor_YLED_Pos__
                0x700426f8      0x198 ./source/pitch_table.o
                0x700426f8                sensor_YLED_Pos__
 .rodata.sensor_YPD_Pos__
                0x70042890      0x198 ./source/pitch_table.o
                0x70042890                sensor_YPD_Pos__
 .rodata.sensor_end_x__
                0x70042a28        0x4 ./source/pitch_table.o
                0x70042a28                sensor_end_x__
 .rodata.sensor_end_y__
                0x70042a2c        0x4 ./source/pitch_table.o
                0x70042a2c                sensor_end_y__
 .rodata.sensor_zero_x__
                0x70042a30        0x4 ./source/pitch_table.o
                0x70042a30                sensor_zero_x__
 .rodata.sensor_zero_y__
                0x70042a34        0x4 ./source/pitch_table.o
                0x70042a34                sensor_zero_y__
 .rodata.xAxisSequenceTbl_flash
                0x70042a38      0x6dc ./source/scan_table.o
                0x70042a38                xAxisSequenceTbl_flash
 .rodata.xPdIdxAtANOutTbl_flash
                0x70043114     0x2928 ./source/scan_table.o
                0x70043114                xPdIdxAtANOutTbl_flash
 .rodata.xUOffsetAtANOutTbl_flash
                0x70045a3c     0x2928 ./source/scan_table.o
                0x70045a3c                xUOffsetAtANOutTbl_flash
 .rodata.yAxisSequenceTbl_flash
                0x70048364      0x522 ./source/scan_table.o
                0x70048364                yAxisSequenceTbl_flash
 *fill*         0x70048886        0x2 
 .rodata.yPdIdxAtANOutTbl_flash
                0x70048888     0x1ecc ./source/scan_table.o
                0x70048888                yPdIdxAtANOutTbl_flash
 .rodata.yUOffsetAtANOutTbl_flash
                0x7004a754     0x1ecc ./source/scan_table.o
                0x7004a754                yUOffsetAtANOutTbl_flash
 .rodata.enetRefClkFreq.1
                0x7004c620       0x10 ./drivers/fsl_clock.o
 .rodata.s_gpioClock
                0x7004c630        0xc ./drivers/fsl_gpio.o
 .rodata.s_lpuartClock
                0x7004c63c       0x12 ./drivers/fsl_lpuart.o
 *fill*         0x7004c64e        0x2 
 .rodata.s_LpuartAdapterBase
                0x7004c650       0x24 ./component/uart/fsl_adapter_lpuart.o
 .rodata.armPllConfig_BOARD_BootClockRUN
                0x7004c674        0x8 ./board/clock_config.o
                0x7004c674                armPllConfig_BOARD_BootClockRUN
 .rodata.sysPllConfig_BOARD_BootClockRUN
                0x7004c67c       0x14 ./board/clock_config.o
                0x7004c67c                sysPllConfig_BOARD_BootClockRUN
 .rodata.BOARD_ADC1_channels_config
                0x7004c690        0x8 ./board/peripherals.o
                0x7004c690                BOARD_ADC1_channels_config
 .rodata.BOARD_ADC1_config
                0x7004c698        0xb ./board/peripherals.o
                0x7004c698                BOARD_ADC1_config
 *fill*         0x7004c6a3        0x1 
 .rodata.BOARD_ADC2_channels_config
                0x7004c6a4        0x8 ./board/peripherals.o
                0x7004c6a4                BOARD_ADC2_channels_config
 .rodata.BOARD_ADC2_config
                0x7004c6ac        0xb ./board/peripherals.o
                0x7004c6ac                BOARD_ADC2_config
 *fill*         0x7004c6b7        0x1 
 .rodata.BOARD_GPT1_config
                0x7004c6b8       0x10 ./board/peripherals.o
                0x7004c6b8                BOARD_GPT1_config
 .rodata.BOARD_GPT2_config
                0x7004c6c8       0x10 ./board/peripherals.o
                0x7004c6c8                BOARD_GPT2_config
 .rodata.BOARD_LPUART1_config
                0x7004c6d8       0x14 ./board/peripherals.o
                0x7004c6d8                BOARD_LPUART1_config
 .rodata.BOARD_TMR1_Channel_0_config
                0x7004c6ec        0x7 ./board/peripherals.o
                0x7004c6ec                BOARD_TMR1_Channel_0_config
 *fill*         0x7004c6f3        0x1 
 .rodata.BOARD_TMR2_Channel_3_config
                0x7004c6f4        0x7 ./board/peripherals.o
                0x7004c6f4                BOARD_TMR2_Channel_3_config
 *fill*         0x7004c6fb        0x1 
 .rodata.BOARD_TMR3_Channel_0_config
                0x7004c6fc        0x7 ./board/peripherals.o
                0x7004c6fc                BOARD_TMR3_Channel_0_config
 *fill*         0x7004c703        0x1 
 .rodata.BOARD_TMR4_Channel_3_config
                0x7004c704        0x7 ./board/peripherals.o
                0x7004c704                BOARD_TMR4_Channel_3_config
 *fill*         0x7004c70b        0x1 
 .rodata.BOARD_WDOG1_config
                0x7004c70c        0xe ./board/peripherals.o
                0x7004c70c                BOARD_WDOG1_config
 *fill*         0x7004c71a        0x2 
 .rodata.__num_Ciob_streams
                0x7004c71c        0x4 c:/nxp/mcuxpressoide_11.7.0_9198/ide/plugins/com.nxp.mcuxpresso.tools.win32_11.7.0.202209140929/tools/bin/../lib/gcc/arm-none-eabi/10.3.1/../../../../arm-none-eabi/lib/thumb/v7e-m+fp/hard\libcr_nohost_nf.a(__ciob.o)
                0x7004c71c                __num_Ciob_streams
 .rodata._Csys_alloc.str1.1
                0x7004c720       0x18 c:/nxp/mcuxpressoide_11.7.0_9198/ide/plugins/com.nxp.mcuxpresso.tools.win32_11.7.0.202209140929/tools/bin/../lib/gcc/arm-none-eabi/10.3.1/../../../../arm-none-eabi/lib/thumb/v7e-m+fp/hard\libcr_c.a(alloc.o)
 .rodata._initio.str1.1
                0x7004c738        0x4 c:/nxp/mcuxpressoide_11.7.0_9198/ide/plugins/com.nxp.mcuxpresso.tools.win32_11.7.0.202209140929/tools/bin/../lib/gcc/arm-none-eabi/10.3.1/../../../../arm-none-eabi/lib/thumb/v7e-m+fp/hard\libcr_c.a(initio.o)
 .rodata.__vfprintf.str1.1
                0x7004c73c       0x37 c:/nxp/mcuxpressoide_11.7.0_9198/ide/plugins/com.nxp.mcuxpresso.tools.win32_11.7.0.202209140929/tools/bin/../lib/gcc/arm-none-eabi/10.3.1/../../../../arm-none-eabi/lib/thumb/v7e-m+fp/hard\libcr_c.a(printf.o)
                                 0x38 (size before relaxing)
 .rodata.__ctype
                0x7004c773      0x180 c:/nxp/mcuxpressoide_11.7.0_9198/ide/plugins/com.nxp.mcuxpresso.tools.win32_11.7.0.202209140929/tools/bin/../lib/gcc/arm-none-eabi/10.3.1/../../../../arm-none-eabi/lib/thumb/v7e-m+fp/hard\libcr_c.a(ctype.o)
                0x7004c773                __ctype
                0x7004c8f4                . = ALIGN (0x4)
 *fill*         0x7004c8f3        0x1 

.ARM.extab
 *(SORT_BY_ALIGNMENT(.ARM.extab*) SORT_BY_ALIGNMENT(.gnu.linkonce.armextab.*))
                0x7004c8f4                __exidx_start = .

.ARM.exidx
 *(SORT_BY_ALIGNMENT(.ARM.exidx*) SORT_BY_ALIGNMENT(.gnu.linkonce.armexidx.*))
                0x7004c8f4                __exidx_end = .
                0x7004c8f4                _etext = .

.data_RAM2      0x00000000     0x4190 load address 0x7004c8f4
 FILL mask 0xff
                [!provide]                PROVIDE (__start_data_RAM2 = .)
 *(SORT_BY_ALIGNMENT(.ramfunc.$RAM2))
 .ramfunc.$RAM2
                0x00000000     0x417c ./source/Scan.o
                0x00000000                scanAxisFull
 *fill*         0x0000417c        0x4 ff
 .ramfunc.$RAM2.__stub
                0x00004180       0x10 linker stubs
 *(SORT_BY_ALIGNMENT(.ramfunc.$SRAM_ITC))
 *(SORT_BY_ALIGNMENT(.data.$RAM2))
 *(SORT_BY_ALIGNMENT(.data.$SRAM_ITC))
 *(SORT_BY_ALIGNMENT(.data.$RAM2.*))
 *(SORT_BY_ALIGNMENT(.data.$SRAM_ITC.*))
                0x00004190                . = ALIGN (0x4)
                [!provide]                PROVIDE (__end_data_RAM2 = .)

.rel.dyn        0x00004190        0x0 load address 0x70050a84
 .rel.iplt      0x00004190        0x0 ./xip/fsl_flexspi_nor_boot.o

.data_RAM3      0x20200000        0x0 load address 0x70050a84
 FILL mask 0xff
                [!provide]                PROVIDE (__start_data_RAM3 = .)
 *(SORT_BY_ALIGNMENT(.ramfunc.$RAM3))
 *(SORT_BY_ALIGNMENT(.ramfunc.$SRAM_OC))
 *(SORT_BY_ALIGNMENT(.data.$RAM3))
 *(SORT_BY_ALIGNMENT(.data.$SRAM_OC))
 *(SORT_BY_ALIGNMENT(.data.$RAM3.*))
 *(SORT_BY_ALIGNMENT(.data.$SRAM_OC.*))
                0x20200000                . = ALIGN (0x4)
                [!provide]                PROVIDE (__end_data_RAM3 = .)

.uninit_RESERVED
                0x20000000        0x0
                0x20000000                . = ALIGN (0x4)
 *(SORT_BY_ALIGNMENT(.bss.$RESERVED*))
                0x20000000                . = ALIGN (0x4)
                0x20000000                _end_uninit_RESERVED = .

.data           0x20000000      0x518 load address 0x70050a84
 FILL mask 0xff
                0x20000000                _data = .
 *(SORT_BY_ALIGNMENT(vtable))
 *(SORT_BY_ALIGNMENT(.ramfunc*))
 *(SORT_BY_ALIGNMENT(CodeQuickAccess))
 *(SORT_BY_ALIGNMENT(DataQuickAccess))
 *(SORT_BY_ALIGNMENT(RamFunction))
 *(SORT_BY_ALIGNMENT(.data*))
 .data.g_CompositeClassConfig
                0x20000000       0x18 ./source/composite.o
                0x20000000                g_CompositeClassConfig
 .data.g_UsbDeviceCompositeConfigList
                0x20000018        0xc ./source/composite.o
                0x20000018                g_UsbDeviceCompositeConfigList
 .data.LedSinkCurrentTbl
                0x20000024       0x30 ./source/scan_table.o
                0x20000024                LedSinkCurrentTbl
 .data.g_UsbDeviceConfigurationDescriptor
                0x20000054       0x42 ./source/usb_device_descriptor.o
                0x20000054                g_UsbDeviceConfigurationDescriptor
 *fill*         0x20000096        0x2 ff
 .data.g_UsbDeviceDescriptor
                0x20000098       0x12 ./source/usb_device_descriptor.o
                0x20000098                g_UsbDeviceDescriptor
 *fill*         0x200000aa        0x2 ff
 .data.g_UsbDeviceHidGenericConfig
                0x200000ac        0x8 ./source/usb_device_descriptor.o
                0x200000ac                g_UsbDeviceHidGenericConfig
 .data.g_UsbDeviceHidGenericEndpoints
                0x200000b4        0xc ./source/usb_device_descriptor.o
                0x200000b4                g_UsbDeviceHidGenericEndpoints
 .data.g_UsbDeviceHidGenericInterface
                0x200000c0       0x10 ./source/usb_device_descriptor.o
                0x200000c0                g_UsbDeviceHidGenericInterface
 .data.g_UsbDeviceHidGenericInterfaceList
                0x200000d0        0x8 ./source/usb_device_descriptor.o
                0x200000d0                g_UsbDeviceHidGenericInterfaceList
 .data.g_UsbDeviceHidGenericInterfaces
                0x200000d8        0xc ./source/usb_device_descriptor.o
                0x200000d8                g_UsbDeviceHidGenericInterfaces
 .data.g_UsbDeviceHidGenericReportDescriptor
                0x200000e4      0x28a ./source/usb_device_descriptor.o
                0x200000e4                g_UsbDeviceHidGenericReportDescriptor
 *fill*         0x2000036e        0x2 ff
 .data.g_UsbDeviceHidMouseConfig
                0x20000370        0x8 ./source/usb_device_descriptor.o
                0x20000370                g_UsbDeviceHidMouseConfig
 .data.g_UsbDeviceHidMouseEndpoints
                0x20000378        0x6 ./source/usb_device_descriptor.o
                0x20000378                g_UsbDeviceHidMouseEndpoints
 *fill*         0x2000037e        0x2 ff
 .data.g_UsbDeviceHidMouseInterface
                0x20000380       0x10 ./source/usb_device_descriptor.o
                0x20000380                g_UsbDeviceHidMouseInterface
 .data.g_UsbDeviceHidMouseInterfaceList
                0x20000390        0x8 ./source/usb_device_descriptor.o
                0x20000390                g_UsbDeviceHidMouseInterfaceList
 .data.g_UsbDeviceHidMouseInterfaces
                0x20000398        0xc ./source/usb_device_descriptor.o
                0x20000398                g_UsbDeviceHidMouseInterfaces
 .data.g_UsbDeviceHidMouseReportDescriptor
                0x200003a4       0x36 ./source/usb_device_descriptor.o
                0x200003a4                g_UsbDeviceHidMouseReportDescriptor
 *fill*         0x200003da        0x2 ff
 .data.g_UsbDeviceLanguage
                0x200003dc        0xc ./source/usb_device_descriptor.o
                0x200003dc                g_UsbDeviceLanguage
 .data.g_UsbDeviceLanguageList
                0x200003e8       0x10 ./source/usb_device_descriptor.o
                0x200003e8                g_UsbDeviceLanguageList
 .data.g_UsbDeviceString0
                0x200003f8        0x4 ./source/usb_device_descriptor.o
                0x200003f8                g_UsbDeviceString0
 .data.g_UsbDeviceString1
                0x200003fc       0x26 ./source/usb_device_descriptor.o
                0x200003fc                g_UsbDeviceString1
 *fill*         0x20000422        0x2 ff
 .data.g_UsbDeviceString2
                0x20000424       0x22 ./source/usb_device_descriptor.o
                0x20000424                g_UsbDeviceString2
 *fill*         0x20000446        0x2 ff
 .data.g_UsbDeviceString3
                0x20000448       0x2a ./source/usb_device_descriptor.o
                0x20000448                g_UsbDeviceString3
 *fill*         0x20000472        0x2 ff
 .data.g_UsbDeviceString4
                0x20000474       0x22 ./source/usb_device_descriptor.o
                0x20000474                g_UsbDeviceString4
 *fill*         0x20000496        0x2 ff
 .data.g_UsbDeviceString5
                0x20000498       0x20 ./source/usb_device_descriptor.o
                0x20000498                g_UsbDeviceString5
 .data.g_UsbDeviceString6
                0x200004b8       0x22 ./source/usb_device_descriptor.o
                0x200004b8                g_UsbDeviceString6
 *fill*         0x200004da        0x2 ff
 .data.g_UsbDeviceStringDescriptorArray
                0x200004dc       0x1c ./source/usb_device_descriptor.o
                0x200004dc                g_UsbDeviceStringDescriptorArray
 .data.g_UsbDeviceStringDescriptorLength
                0x200004f8       0x1c ./source/usb_device_descriptor.o
                0x200004f8                g_UsbDeviceStringDescriptorLength
 .data.SystemCoreClock
                0x20000514        0x4 ./device/system_MIMXRT1064.o
                0x20000514                SystemCoreClock
                0x20000518                . = ALIGN (0x4)
                0x20000518                _edata = .

.igot.plt       0x20000518        0x0 load address 0x70050f9c
 .igot.plt      0x20000518        0x0 ./xip/fsl_flexspi_nor_boot.o

.bss_RAM2       0x00004190    0x14e90
                0x00004190                . = ALIGN (0x4)
                [!provide]                PROVIDE (__start_bss_RAM2 = .)
 *(SORT_BY_ALIGNMENT(.bss.$RAM2))
 .bss.$RAM2     0x00004190     0xa838 ./source/Scan.o
                0x00004190                yAxisSequenceTbl
                0x00004194                yAxisLedCurrentTblIdx
                0x00004428                yAxisDacIdx
                0x000046bc                xAxisSequenceTbl
                0x000046c0                xAxisLedCurrentTblIdx
                0x00004a30                xAxisDacIdx
                0x00004da0                xAxisSequenceTbl_ram
                0x0000547c                yAxisSequenceTbl_ram
                0x000059a0                xPdIdxAtANOutTbl
                0x000059a4                xUOffsetAtANOutTbl
                0x000059a8                yPdIdxAtANOutTbl
                0x000059ac                yUOffsetAtANOutTbl
                0x000059b0                adc_value
                0x000059e0                yUOffsetAtANOutTbl_ram
                0x000078ac                yPdIdxAtANOutTbl_ram
                0x00009778                xUOffsetAtANOutTbl_ram
                0x0000c0a0                xPdIdxAtANOutTbl_ram
 .bss.$RAM2     0x0000e9c8       0x54 ./source/backend_postp.o
                0x0000e9c8                s_ratioXforP2L
                0x0000e9cc                s_ratioYforP2L
                0x0000e9d0                s_touch_data_hor_edge_save
                0x0000e9d4                s_touch_data
                0x0000e9d8                s_touch_size
                0x0000e9dc                s_touch_count
                0x0000e9e0                s_touch_lineCnt
                0x0000e9e4                s_multi_fine
                0x0000e9e8                s_eraserFlag
                0x0000e9ec                s_movSqFlag
                0x0000ea14                s_wheel_delta
                0x0000ea18                s_touch_data_hor_edge_save_bot
 .bss.$RAM2     0x0000ea1c     0x37fc D:\Project\21.IR_Touch\BE_FW\wmc-ctsi-0850-fe-be-app\lib/libbackend_irt650_nxp2.a(backend_main.o)
                0x0000ea1c                BS_max_large_pitch_tbl_x
                0x0000ea20                BS_large_pitch_tbl_x_pd
                0x0000ea24                BS_large_pitch_tbl_x_led
                0x0000ea28                BS_max_large_pitch_tbl_y
                0x0000ea2c                BS_large_pitch_tbl_y_pd
                0x0000ea30                BS_large_pitch_tbl_y_led
                0x0000ea34                BS_large_pitch_tbl_x_pd_cnt
                0x0000ea38                BS_large_pitch_tbl_x_led_cnt
                0x0000ea3c                BS_large_pitch_tbl_y_pd_cnt
                0x0000ea40                BS_large_pitch_tbl_y_led_cnt
                0x0000ea44                BS_remained_x
                0x0000ee2c                BS_remained_y
                0x0000f214                BS_remained_x_cnt
                0x0000f218                BS_remained_y_cnt
                0x0000f21c                BS_int_sect_group2_epf_used_cnt
                0x0000f220                BS_int_sect_group2_epf_used
                0x0000f240                BS_offsetTblLenX
                0x0000f244                BS_offsetTblLenY
                0x0000f248                BS_inValidTblXled
                0x0000f24c                BS_inValidTblLenXled
                0x0000f250                BS_inValidTblXpd
                0x0000f254                BS_inValidTblLenXpd
                0x0000f258                BS_inValidTblYled
                0x0000f25c                BS_inValidTblLenYled
                0x0000f260                BS_inValidTblYpd
                0x0000f264                BS_inValidTblLenYpd
                0x0000f268                BS_max_mum_pd
                0x0000f26c                BS_logical_max_x
                0x0000f26e                BS_logical_max_y
                0x0000f270                BS_slopeValMaxX
                0x0000f274                BS_slopeValMaxY
                0x0000f278                BS_offsetTblX
                0x0000f27c                BS_offsetTblY
                0x0000f280                BS_max_ep_count
                0x0000f284                BS_edge_pattern_ep
                0x0000f288                BS_edge_pattern_deadzone
                0x0000f28c                BS_large_touch_idx_cnt
                0x0000f290                BS_large_touch_idx_cnt_prev
                0x0000f298                BG_frame_no
                0x0000f2a0                BG_show_ep
                0x0000f2a4                BG_show_line_x
                0x0000f2a8                BG_show_line_y
                0x0000f2ac                BG_show_line_init
                0x0000f2b0                BG_show_line_all
                0x0000f2b4                BG_show_line_th10
                0x0000f2b8                BG_show_line_rem
                0x0000f2bc                BG_debug_pause
                0x0000f2c0                BS_edge_pattern_ep_cnt
                0x0000f2c4                BS_initial_lineNo
                0x0000f5e4                BG_touch_data
                0x0000f684                BG_touch_size
                0x0000f724                BG_touch_lineCnt
                0x0000f814                BG_multi_fine
                0x0000f828                BG_touch_data_edge
                0x0000f830                BG_debug_flag
                0x0000f834                BG_debug_flag2
                0x0000f838                BG_touch_count
                0x0000f83c                BG_touch_count_fine
                0x0000f840                BG_touch_count_multi
                0x0000f844                BS_initial_minMax
                0x00011144                BG_show_debug_max
                0x00011148                BG_show_debug
                0x0001114c                BS_debug_nop
                0x00011150                BS_minmax_inst_stat
                0x00011350                BS_minmax_inst_xy
                0x00011b50                BS_touch_sort
                0x00011b64                BG_touch_misc
                0x00011b78                BG_touch_area
                0x00011bc8                BS_remained_used_y
                0x00011c08                BS_remained_used_x
                0x00011c48                BS_large_touch_idx_prev
                0x00011d88                BS_large_touch_idx
                0x00011e28                BS_remained_sort
                0x00012210                BS_slopeValMaxY2
                0x00012214                BS_slopeValMaxX2
 .bss.$RAM2     0x00012218     0x56c0 D:\Project\21.IR_Touch\BE_FW\wmc-ctsi-0850-fe-be-app\lib/libbackend_irt650_nxp2.a(backend_multi.o)
                0x00012218                BS_touch_info_multi_sort
                0x0001227c                BS_touch_info_multi_cnt_sort
                0x00012280                BS_initial_polygon_cnt
                0x000122b4                BG_edge_pattern_dz
                0x000122c0                BS_edge_pattern_dz_ep
                0x000122d0                BG_edge_pattern
                0x000122d4                BS_max_ini_epa_size
                0x000122d8                BS_edge_pattern_x
                0x000122dc                BS_edge_pattern_y
                0x000122e0                BS_max_in_line_buf_pd_x
                0x000122e4                BS_max_in_line_buf_led_x
                0x000122e8                BS_max_in_line_buf_pd_y
                0x000122ec                BS_max_in_line_buf_led_y
                0x000122f0                BS_inlineBuf_x_pd
                0x000122f4                BS_inlineBuf_x_led
                0x000122f8                BS_inlineBuf_y_pd
                0x000122fc                BS_inlineBuf_y_led
                0x00012300                BS_inlineUsed2_x_pd
                0x00012304                BS_inlineUsed2_y_pd
                0x00012308                BS_max_virtual_ep_count
                0x0001230c                BS_edge_pattern_virtul_ep
                0x00012310                BS_edge_pattern_virtul_poly
                0x00012314                BG_edge_pattern_virtual_cnt
                0x00012318                BS_touch_info_multi_cnt
                0x0001231c                BG_edge_pattern_cnt_x
                0x00012320                BG_edge_pattern_cnt_y
                0x00012354                BS_poly_info_multi_y
                0x000128f4                BS_poly_info_multi_x
                0x00012e94                BS_touch_info_multi_grp
                0x00012ea8                BS_touch_info_multi
                0x00014618                BS_initial_polygon
                0x00017818                BS_edge_pattern_dz_poly
 .bss.$RAM2     0x000178d8       0x60 D:\Project\21.IR_Touch\BE_FW\wmc-ctsi-0850-fe-be-app\lib/libbackend_irt650_nxp2.a(backend_utils.o)
                0x000178d8                BS_start_of_heap
                0x000178dc                BS_end_of_heap
                0x00017900                BS_clipping_range_info
 .bss.$RAM2     0x00017938       0x10 D:\Project\21.IR_Touch\BE_FW\wmc-ctsi-0850-fe-be-app\lib/libbackend_irt650_nxp2.a(backend_debug.o)
                0x00017938                maxClipIdx
                0x0001793c                maxSubjCnt
                0x00017940                maxProcessCnt
                0x00017944                maxVertex
 .bss.$RAM2     0x00017948     0x16d8 D:\Project\21.IR_Touch\BE_FW\wmc-ctsi-0850-fe-be-app\lib/libbackend_irt650_nxp2.a(backend_fine.o)
                0x00017948                BS_initial_line_grp_cnt
                0x0001794c                BS_initial_line_grp
                0x0001820c                BS_inst_xy_grp
                0x00018a0c                BS_inst_xy_grp_cnt
                0x00018a10                BS_grid_line_org
                0x00018a30                BS_grid_line_start
                0x00018a50                BS_grid_line_end
                0x00018a70                BS_grid_line_cur
                0x00018a90                BS_touch_info_fine
                0x00018f90                BS_max_fine_rem_init_line
                0x00018f94                BS_rem_init_line_slope_idx
                0x00018f98                BS_rem_init_line_idx_res
                0x00018f9c                BS_epa_x_sort
                0x00018fb8                BS_slopeMinusUncrossed
                0x00018fc8                BS_slopePlusUncrossed
                0x00018fd8                BS_slopeMinusIdx
                0x00018fe8                BS_slopeMinus
                0x00018ff8                BS_slopePlusIdx
                0x00019008                BS_slopePlus
                0x00019018                BS_grid_line_cnt
                0x0001901c                BS_touch_info_fine_cnt
 *(SORT_BY_ALIGNMENT(.bss.$SRAM_ITC))
 *(SORT_BY_ALIGNMENT(.bss.$RAM2.*))
 *(SORT_BY_ALIGNMENT(.bss.$SRAM_ITC.*))
                0x00019020                . = ALIGN ((. != 0x0)?0x4:0x1)
                [!provide]                PROVIDE (__end_bss_RAM2 = .)

.bss_RAM3       0x20200000    0x6d7d4
                0x20200000                . = ALIGN (0x4)
                [!provide]                PROVIDE (__start_bss_RAM3 = .)
 *(SORT_BY_ALIGNMENT(.bss.$RAM3))
 .bss.$RAM3     0x20200000     0xf588 ./source/Scan.o
                0x20200000                xCellStatus
                0x20200084                yCellStatus
                0x202000ec                prevYLedCurrentCtrlDir
                0x20200380                prevXLedCurrentCtrlDir
                0x202006f0                yScanSubThresholdData
                0x2020299c                xScanSubThresholdData
                0x20205678                yScanThresholdData
                0x20207924                xScanThresholdData
                0x2020a600                yScanNonBlockLevel
                0x2020c8ac                xScanNonBlockLevel
 .bss.$RAM3     0x2020f588     0xb508 ./source/app.o
                0x2020f588                s_output_buffer
                0x2020f594                s_input_buffer
                0x2020f5ac                s_hor_line_threshold
                0x2020fb58                s_ver_line_threshold
                0x2021023c                s_output_buffer2
                0x20210258                debug_count
                0x2021025c                deadCellVerPd
                0x202102c4                deadCellVerLed
                0x2021032c                deadCellHorPd
                0x202103b0                deadCellHorLed
                0x20210434                s_pd_pos_y
                0x202105cc                s_led_pos_y
                0x20210764                s_pd_pos_x
                0x20210974                s_led_pos_x
                0x20210b84                s_ver_touch_pd
                0x202150d8                s_hor_touch_pd
 .bss.$RAM3     0x2021aa90     0x2fec ./source/backend_postp.o
                0x2021b2d8                s_prevTouchCnt
                0x2021b2dc                s_allocIDTbl_idx
                0x2021b360                s_touchReportCnt
                0x2021b364                s_scroll_State
                0x2021b368                s_touch_scroll_info
                0x2021b4a8                s_touchPosDataIn
                0x2021bcc8                s_non_Scroll_cnt
                0x2021bccc                s_scroll_stats_on_delay
                0x2021bcd0                wheel_cordX
                0x2021bcd4                s_scroll_ver_cnt
                0x2021bcd8                s_scroll_report_start
                0x2021bcdc                wheel_cordY
                0x2021bce0                scroll_area
                0x2021be24                s_prevTouchCntPen
                0x2021bf68                tBz
                0x2021cb48                mBzStatus
                0x2021cdf0                curBrushId
                0x2021cdf4                m_touchPosBrushOut
                0x2021d7f4                s_non_Scroll_Flag
                0x2021d7f8                s_scroll_Flag
                0x2021d7fc                s_touch_data_out
 .bss.$RAM3     0x2021da7c    0x13d70 D:\Project\21.IR_Touch\BE_FW\wmc-ctsi-0850-fe-be-app\lib/libbackend_irt650_nxp2.a(backend_multi.o)
                0x2021da7c                BS_pclipping_info
 .bss.$RAM3     0x202317ec    0x30000 D:\Project\21.IR_Touch\BE_FW\wmc-ctsi-0850-fe-be-app\lib/libbackend_irt650_nxp2.a(backend_utils.o)
                0x202317ec                BS_heap
 .bss.$RAM3     0x202617ec     0xbfe8 D:\Project\21.IR_Touch\BE_FW\wmc-ctsi-0850-fe-be-app\lib/libbackend_irt650_nxp2.a(backend_fine.o)
                0x202617ec                BS_initial_line_y
                0x20261d00                BS_initial_line_x
                0x20261e04                BS_initial_line_x_cnt
                0x20261e08                BS_initial_line_y_cnt
                0x20261e0c                BS_initial_line_a_x_cnt
                0x20261e10                BS_initial_line_a_y_cnt
                0x20261e28                BS_initial_line_a_x_slope
                0x20261e2c                BS_initial_line_a_y_slope
                0x20261e30                BS_initial_line_a_x_y
                0x20261e34                BS_initial_line_a_y
                0x20267294                BS_initial_line_a_x2
                0x2026c6f4                BS_initial_line_a_x
 *(SORT_BY_ALIGNMENT(.bss.$SRAM_OC))
 *(SORT_BY_ALIGNMENT(.bss.$RAM3.*))
 *(SORT_BY_ALIGNMENT(.bss.$SRAM_OC.*))
                0x2026d7d4                . = ALIGN ((. != 0x0)?0x4:0x1)
                [!provide]                PROVIDE (__end_bss_RAM3 = .)

.bss            0x20000800     0xeb78
                0x20000800                . = ALIGN (0x4)
                0x20000800                _bss = .
 *(SORT_BY_ALIGNMENT(.bss*))
 .bss.qh_buffer
                0x20000800      0x700 ./usb/device/source/ehci/usb_device_ehci.o
 .bss.s_UsbDeviceEhciDtd
                0x20000f00      0x200 ./usb/device/source/ehci/usb_device_ehci.o
 .bss.s_UsbDevice
                0x20001100       0xc0 ./usb/device/source/usb_device_dci.o
 .bss.g_serialHandle
                0x200011c0        0x4 ./utilities/fsl_debug_console.o
                0x200011c0                g_serialHandle
 .bss.s_debugConsoleState
                0x200011c4       0x20 ./utilities/fsl_debug_console.o
 .bss.g_UsbDeviceEhciState
                0x200011e4       0x8c ./usb/device/source/ehci/usb_device_ehci.o
 .bss.g_UsbDeviceEhciStateStatus
                0x20001270        0x1 ./usb/device/source/ehci/usb_device_ehci.o
 *fill*         0x20001271        0x3 
 .bss.s_UsbDeviceHidHandle
                0x20001274       0x50 ./usb/device/class/hid/usb_device_hid.o
 .bss.s_UsbDeviceCommonClassStruct
                0x200012c4       0x10 ./usb/device/class/usb_device_class.o
 .bss.s_UsbDeviceSetupBuffer
                0x200012d4        0x8 ./usb/device/class/usb_device_class.o
 .bss.endAgcCtrlTimer
                0x200012dc        0x4 ./source/Scan.o
                0x200012dc                endAgcCtrlTimer
 .bss.gScanProcessCnt
                0x200012e0        0x4 ./source/Scan.o
                0x200012e0                gScanProcessCnt
 .bss.noTouchObjectCnt
                0x200012e4        0x4 ./source/Scan.o
                0x200012e4                noTouchObjectCnt
 .bss.scanStatus
                0x200012e8        0x2 ./source/Scan.o
                0x200012e8                scanStatus
 *fill*         0x200012ea        0x2 
 .bss.scanTaskData
                0x200012ec        0x1 ./source/Scan.o
                0x200012ec                scanTaskData
 *fill*         0x200012ed        0x3 
 .bss.startAgcCtrlTimer
                0x200012f0        0x4 ./source/Scan.o
                0x200012f0                startAgcCtrlTimer
 .bss.totalBlockedLineCnt
                0x200012f4        0x4 ./source/Scan.o
                0x200012f4                totalBlockedLineCnt
 .bss.xPartialScanData
                0x200012f8        0x4 ./source/Scan.o
                0x200012f8                xPartialScanData
 .bss.xScanResultData
                0x200012fc     0x2e3d ./source/Scan.o
                0x200012fc                xScanResultData
 *fill*         0x20004139        0x3 
 .bss.yPartialScanData
                0x2000413c        0x4 ./source/Scan.o
                0x2000413c                yPartialScanData
 .bss.yScanResultData
                0x20004140     0x23cf ./source/Scan.o
                0x20004140                yScanResultData
 *fill*         0x2000650f        0x1 
 .bss.brushLastSend
                0x20006510       0x44 ./source/app.o
                0x20006510                brushLastSend
 .bss.deadcell_info
                0x20006554       0x14 ./source/app.o
                0x20006554                deadcell_info
 .bss.g_back_conf
                0x20006568        0xa ./source/app.o
                0x20006568                g_back_conf
 *fill*         0x20006572        0x2 
 .bss.g_forcedagc
                0x20006574        0x6 ./source/app.o
                0x20006574                g_forcedagc
 *fill*         0x2000657a        0x2 
 .bss.g_usb_in_buff
                0x2000657c     0x1600 ./source/app.o
                0x2000657c                g_usb_in_buff
 .bss.header1   0x20007b7c       0x40 ./source/app.o
 .bss.s_aarea_end_x
                0x20007bbc        0x4 ./source/app.o
                0x20007bbc                s_aarea_end_x
 .bss.s_aarea_end_y
                0x20007bc0        0x4 ./source/app.o
                0x20007bc0                s_aarea_end_y
 .bss.s_aarea_zero_x
                0x20007bc4        0x4 ./source/app.o
                0x20007bc4                s_aarea_zero_x
 .bss.s_aarea_zero_y
                0x20007bc8        0x4 ./source/app.o
                0x20007bc8                s_aarea_zero_y
 .bss.s_belib_time
                0x20007bcc        0x4 ./source/app.o
 .bss.s_fagc_time
                0x20007bd0        0x4 ./source/app.o
 .bss.s_logical_max_x
                0x20007bd4        0x4 ./source/app.o
                0x20007bd4                s_logical_max_x
 .bss.s_logical_max_y
                0x20007bd8        0x4 ./source/app.o
                0x20007bd8                s_logical_max_y
 .bss.s_prevTime
                0x20007bdc        0x4 ./source/app.o
 .bss.s_prevTime2
                0x20007be0        0x4 ./source/app.o
 .bss.s_prevTime4
                0x20007be4        0x4 ./source/app.o
 .bss.s_reset_delay
                0x20007be8        0x4 ./source/app.o
 .bss.s_reset_delay_dot
                0x20007bec        0x4 ./source/app.o
 .bss.s_sensor_end_x
                0x20007bf0        0x4 ./source/app.o
                0x20007bf0                s_sensor_end_x
 .bss.s_sensor_end_y
                0x20007bf4        0x4 ./source/app.o
                0x20007bf4                s_sensor_end_y
 .bss.s_sensor_zero_x
                0x20007bf8        0x4 ./source/app.o
                0x20007bf8                s_sensor_zero_x
 .bss.s_sensor_zero_y
                0x20007bfc        0x4 ./source/app.o
                0x20007bfc                s_sensor_zero_y
 .bss.usbCmdBuf
                0x20007c00        0xa ./source/app.o
                0x20007c00                usbCmdBuf
 *fill*         0x20007c0a        0x2 
 .bss.verStrBe  0x20007c0c        0x5 ./source/app.o
                0x20007c0c                verStrBe
 *fill*         0x20007c11        0x3 
 .bss.wdog_config
                0x20007c14        0xe ./source/app.o
 *fill*         0x20007c22        0x2 
 .bss.s_Brush_Big_Size_Frame_Cnt
                0x20007c24        0x4 ./source/backend_postp.o
 .bss.s_Brush_Frame_Cnt
                0x20007c28        0x4 ./source/backend_postp.o
 .bss.s_Brush_Normal_Size_Frame_Cnt
                0x20007c2c        0x4 ./source/backend_postp.o
 .bss.s_vtFilteredData
                0x20007c30      0x460 ./source/backend_postp.o
 .bss.s_UsbDeviceComposite
                0x20008090       0x14 ./source/composite.o
 .bss.DLT_adc_header
                0x200080a4        0x8 ./source/dlt.o
 .bss.DLT_mode  0x200080ac        0x9 ./source/dlt.o
 *fill*         0x200080b5        0x3 
 .bss.Exb_Send_Buf
                0x200080b8     0x1600 ./source/dlt.o
                0x200080b8                Exb_Send_Buf
 .bss.frontend_eeprom
                0x200096b8       0x3d ./source/dlt.o
 *fill*         0x200096f5        0x3 
 .bss.frontend_fwVersion
                0x200096f8        0x3 ./source/dlt.o
                0x200096f8                frontend_fwVersion
 *fill*         0x200096fb        0x1 
 .bss.total_send_cnt
                0x200096fc        0x4 ./source/dlt.o
                0x200096fc                total_send_cnt
 .bss.g_UsbDeviceHidGeneric
                0x20009700       0x14 ./source/hid_generic.o
                0x20009700                g_UsbDeviceHidGeneric
 .bss.s_GenericBuffRx
                0x20009714       0x40 ./source/hid_generic.o
 .bss.s_GenericBuffTx
                0x20009754       0x40 ./source/hid_generic.o
 .bss.s_GenericBuffTxDiag
                0x20009794       0x40 ./source/hid_generic.o
 .bss.s_GenericFeatureBuff
                0x200097d4       0x40 ./source/hid_generic.o
 .bss.s_UsbDeviceComposite
                0x20009814        0x4 ./source/hid_generic.o
 .bss.s_MouseBuffer
                0x20009818        0x5 ./source/hid_mouse.o
 *fill*         0x2000981d        0x3 
 .bss.s_UsbDeviceComposite
                0x20009820        0x4 ./source/hid_mouse.o
 .bss.s_UsbDeviceHidMouse
                0x20009824        0x8 ./source/hid_mouse.o
 .bss.g_rtcXtalFreq
                0x2000982c        0x4 ./drivers/fsl_clock.o
                0x2000982c                g_rtcXtalFreq
 .bss.g_xtalFreq
                0x20009830        0x4 ./drivers/fsl_clock.o
                0x20009830                g_xtalFreq
 .bss.s_lpuartHandle
                0x20009834       0x24 ./drivers/fsl_lpuart.o
                0x20009834                s_lpuartHandle
 .bss.s_lpuartIsr
                0x20009858       0x24 ./drivers/fsl_lpuart.o
                0x20009858                s_lpuartIsr
 .bss.s_qtmrGetPwmDutyCycle
                0x2000987c        0x4 ./drivers/fsl_qtmr.o
 .bss.BS_brushMode
                0x20009880        0x4 D:\Project\21.IR_Touch\BE_FW\wmc-ctsi-0850-fe-be-app\lib/libbackend_irt650_nxp2.a(backend_main.o)
                0x20009880                BS_brushMode
 .bss.BS_inBuf  0x20009884        0x4 D:\Project\21.IR_Touch\BE_FW\wmc-ctsi-0850-fe-be-app\lib/libbackend_irt650_nxp2.a(backend_main.o)
                0x20009884                BS_inBuf
 .bss.BS_epa_inst
                0x20009888      0x190 D:\Project\21.IR_Touch\BE_FW\wmc-ctsi-0850-fe-be-app\lib/libbackend_irt650_nxp2.a(backend_multi.o)
 .bss.BS_aarea_end_x
                0x20009a18        0x4 D:\Project\21.IR_Touch\BE_FW\wmc-ctsi-0850-fe-be-app\lib/libbackend_irt650_nxp2.a(IRTP_layout.o)
                0x20009a18                BS_aarea_end_x
 .bss.BS_aarea_end_y
                0x20009a1c        0x4 D:\Project\21.IR_Touch\BE_FW\wmc-ctsi-0850-fe-be-app\lib/libbackend_irt650_nxp2.a(IRTP_layout.o)
                0x20009a1c                BS_aarea_end_y
 .bss.BS_aarea_zero_x
                0x20009a20        0x4 D:\Project\21.IR_Touch\BE_FW\wmc-ctsi-0850-fe-be-app\lib/libbackend_irt650_nxp2.a(IRTP_layout.o)
                0x20009a20                BS_aarea_zero_x
 .bss.BS_aarea_zero_y
                0x20009a24        0x4 D:\Project\21.IR_Touch\BE_FW\wmc-ctsi-0850-fe-be-app\lib/libbackend_irt650_nxp2.a(IRTP_layout.o)
                0x20009a24                BS_aarea_zero_y
 .bss.BS_half_end_x
                0x20009a28        0x4 D:\Project\21.IR_Touch\BE_FW\wmc-ctsi-0850-fe-be-app\lib/libbackend_irt650_nxp2.a(IRTP_layout.o)
                0x20009a28                BS_half_end_x
 .bss.BS_half_end_y
                0x20009a2c        0x4 D:\Project\21.IR_Touch\BE_FW\wmc-ctsi-0850-fe-be-app\lib/libbackend_irt650_nxp2.a(IRTP_layout.o)
                0x20009a2c                BS_half_end_y
 .bss.BS_large_pitch_end_x
                0x20009a30        0x4 D:\Project\21.IR_Touch\BE_FW\wmc-ctsi-0850-fe-be-app\lib/libbackend_irt650_nxp2.a(IRTP_layout.o)
                0x20009a30                BS_large_pitch_end_x
 .bss.BS_large_pitch_end_y
                0x20009a34        0x4 D:\Project\21.IR_Touch\BE_FW\wmc-ctsi-0850-fe-be-app\lib/libbackend_irt650_nxp2.a(IRTP_layout.o)
                0x20009a34                BS_large_pitch_end_y
 .bss.BS_large_pitch_zero_x
                0x20009a38        0x4 D:\Project\21.IR_Touch\BE_FW\wmc-ctsi-0850-fe-be-app\lib/libbackend_irt650_nxp2.a(IRTP_layout.o)
                0x20009a38                BS_large_pitch_zero_x
 .bss.BS_large_pitch_zero_y
                0x20009a3c        0x4 D:\Project\21.IR_Touch\BE_FW\wmc-ctsi-0850-fe-be-app\lib/libbackend_irt650_nxp2.a(IRTP_layout.o)
                0x20009a3c                BS_large_pitch_zero_y
 .bss.BS_led_pos_x
                0x20009a40        0x4 D:\Project\21.IR_Touch\BE_FW\wmc-ctsi-0850-fe-be-app\lib/libbackend_irt650_nxp2.a(IRTP_layout.o)
                0x20009a40                BS_led_pos_x
 .bss.BS_led_pos_y
                0x20009a44        0x4 D:\Project\21.IR_Touch\BE_FW\wmc-ctsi-0850-fe-be-app\lib/libbackend_irt650_nxp2.a(IRTP_layout.o)
                0x20009a44                BS_led_pos_y
 .bss.BS_maxHorPdNum
                0x20009a48        0x4 D:\Project\21.IR_Touch\BE_FW\wmc-ctsi-0850-fe-be-app\lib/libbackend_irt650_nxp2.a(IRTP_layout.o)
                0x20009a48                BS_maxHorPdNum
 .bss.BS_maxVerPdNum
                0x20009a4c        0x4 D:\Project\21.IR_Touch\BE_FW\wmc-ctsi-0850-fe-be-app\lib/libbackend_irt650_nxp2.a(IRTP_layout.o)
                0x20009a4c                BS_maxVerPdNum
 .bss.BS_pd_pos_x
                0x20009a50        0x4 D:\Project\21.IR_Touch\BE_FW\wmc-ctsi-0850-fe-be-app\lib/libbackend_irt650_nxp2.a(IRTP_layout.o)
                0x20009a50                BS_pd_pos_x
 .bss.BS_pd_pos_y
                0x20009a54        0x4 D:\Project\21.IR_Touch\BE_FW\wmc-ctsi-0850-fe-be-app\lib/libbackend_irt650_nxp2.a(IRTP_layout.o)
                0x20009a54                BS_pd_pos_y
 .bss.BS_sensor_end_x
                0x20009a58        0x4 D:\Project\21.IR_Touch\BE_FW\wmc-ctsi-0850-fe-be-app\lib/libbackend_irt650_nxp2.a(IRTP_layout.o)
                0x20009a58                BS_sensor_end_x
 .bss.BS_sensor_end_y
                0x20009a5c        0x4 D:\Project\21.IR_Touch\BE_FW\wmc-ctsi-0850-fe-be-app\lib/libbackend_irt650_nxp2.a(IRTP_layout.o)
                0x20009a5c                BS_sensor_end_y
 .bss.BS_sensor_zero_x
                0x20009a60        0x4 D:\Project\21.IR_Touch\BE_FW\wmc-ctsi-0850-fe-be-app\lib/libbackend_irt650_nxp2.a(IRTP_layout.o)
                0x20009a60                BS_sensor_zero_x
 .bss.BS_sensor_zero_y
                0x20009a64        0x4 D:\Project\21.IR_Touch\BE_FW\wmc-ctsi-0850-fe-be-app\lib/libbackend_irt650_nxp2.a(IRTP_layout.o)
                0x20009a64                BS_sensor_zero_y
 .bss.BS_inst_xy
                0x20009a68     0x4000 D:\Project\21.IR_Touch\BE_FW\wmc-ctsi-0850-fe-be-app\lib/libbackend_irt650_nxp2.a(backend_fine.o)
                0x20009a68                BS_inst_xy
 .bss.BS_inst_xy_cnt
                0x2000da68        0x4 D:\Project\21.IR_Touch\BE_FW\wmc-ctsi-0850-fe-be-app\lib/libbackend_irt650_nxp2.a(backend_fine.o)
                0x2000da68                BS_inst_xy_cnt
 .bss.BS_inst_xy_cnt_pre
                0x2000da6c        0x4 D:\Project\21.IR_Touch\BE_FW\wmc-ctsi-0850-fe-be-app\lib/libbackend_irt650_nxp2.a(backend_fine.o)
                0x2000da6c                BS_inst_xy_cnt_pre
 .bss.BS_inst_xy_grp_cnt_pre
                0x2000da70        0x4 D:\Project\21.IR_Touch\BE_FW\wmc-ctsi-0850-fe-be-app\lib/libbackend_irt650_nxp2.a(backend_fine.o)
                0x2000da70                BS_inst_xy_grp_cnt_pre
 .bss.BS_inst_xy_sen
                0x2000da74     0x1000 D:\Project\21.IR_Touch\BE_FW\wmc-ctsi-0850-fe-be-app\lib/libbackend_irt650_nxp2.a(backend_fine.o)
                0x2000da74                BS_inst_xy_sen
 .bss.BS_inst_xy_sort
                0x2000ea74      0x800 D:\Project\21.IR_Touch\BE_FW\wmc-ctsi-0850-fe-be-app\lib/libbackend_irt650_nxp2.a(backend_fine.o)
                0x2000ea74                BS_inst_xy_sort
 .bss.errno     0x2000f274        0x4 c:/nxp/mcuxpressoide_11.7.0_9198/ide/plugins/com.nxp.mcuxpresso.tools.win32_11.7.0.202209140929/tools/bin/../lib/gcc/arm-none-eabi/10.3.1/../../../../arm-none-eabi/lib/thumb/v7e-m+fp/hard\libcr_c.a(errno.o)
                0x2000f274                errno
 .bss.__end_of_heap
                0x2000f278        0x4 c:/nxp/mcuxpressoide_11.7.0_9198/ide/plugins/com.nxp.mcuxpresso.tools.win32_11.7.0.202209140929/tools/bin/../lib/gcc/arm-none-eabi/10.3.1/../../../../arm-none-eabi/lib/thumb/v7e-m+fp/hard\libcr_c.a(__init_alloc.o)
                0x2000f278                __end_of_heap
 .bss.__heaps   0x2000f27c        0x4 c:/nxp/mcuxpressoide_11.7.0_9198/ide/plugins/com.nxp.mcuxpresso.tools.win32_11.7.0.202209140929/tools/bin/../lib/gcc/arm-none-eabi/10.3.1/../../../../arm-none-eabi/lib/thumb/v7e-m+fp/hard\libcr_c.a(__init_alloc.o)
                0x2000f27c                __heaps
 .bss.__Ciob    0x2000f280       0xb4 c:/nxp/mcuxpressoide_11.7.0_9198/ide/plugins/com.nxp.mcuxpresso.tools.win32_11.7.0.202209140929/tools/bin/../lib/gcc/arm-none-eabi/10.3.1/../../../../arm-none-eabi/lib/thumb/v7e-m+fp/hard\libcr_nohost_nf.a(__ciob.o)
                0x2000f280                __Ciob
 .bss.agcTryCnt
                0x2000f334        0x2 ./source/Scan.o
 .bss.gCurrentStartTotalPdIdx
                0x2000f336        0x2 ./source/Scan.o
                0x2000f336                gCurrentStartTotalPdIdx
 .bss.gCurrentTotalLedIdx
                0x2000f338        0x2 ./source/Scan.o
                0x2000f338                gCurrentTotalLedIdx
 .bss.procExtLightNoiseCnt
                0x2000f33a        0x2 ./source/Scan.o
                0x2000f33a                procExtLightNoiseCnt
 .bss.shiftClkCnt
                0x2000f33c        0x2 ./source/Scan.o
                0x2000f33c                shiftClkCnt
 .bss.thresholdAvgCnt
                0x2000f33e        0x2 ./source/Scan.o
 .bss.xBlockedLineCnt
                0x2000f340        0x2 ./source/Scan.o
                0x2000f340                xBlockedLineCnt
 .bss.xSubBlockedLineCnt
                0x2000f342        0x2 ./source/Scan.o
                0x2000f342                xSubBlockedLineCnt
 .bss.yBlockedLineCnt
                0x2000f344        0x2 ./source/Scan.o
                0x2000f344                yBlockedLineCnt
 .bss.ySubBlockedLineCnt
                0x2000f346        0x2 ./source/Scan.o
                0x2000f346                ySubBlockedLineCnt
 .bss.Brush_Eraser_xSize
                0x2000f348        0x2 ./source/backend_postp.o
 .bss.Brush_Eraser_ySize
                0x2000f34a        0x2 ./source/backend_postp.o
 .bss.preXCord  0x2000f34c        0x2 ./source/backend_postp.o
 .bss.preYCord  0x2000f34e        0x2 ./source/backend_postp.o
 .bss.s_debugConsoleReadWaitSemaphore
                0x2000f350        0x1 ./utilities/fsl_debug_console.o
 .bss.myUsbSpeed
                0x2000f351        0x1 ./usb/device/source/ehci/usb_device_ehci.o
 .bss.dltThresholdEnbale
                0x2000f352        0x1 ./source/Scan.o
                0x2000f352                dltThresholdEnbale
 .bss.gCurrentLedBoardIndex
                0x2000f353        0x1 ./source/Scan.o
                0x2000f353                gCurrentLedBoardIndex
 .bss.gCurrentLedGroupIndex
                0x2000f354        0x1 ./source/Scan.o
                0x2000f354                gCurrentLedGroupIndex
 .bss.gLedShift1stTime
                0x2000f355        0x1 ./source/Scan.o
                0x2000f355                gLedShift1stTime
 .bss.gLedShiftOption
                0x2000f356        0x1 ./source/Scan.o
                0x2000f356                gLedShiftOption
 .bss.partialScanEntryCnt
                0x2000f357        0x1 ./source/Scan.o
                0x2000f357                partialScanEntryCnt
 .bss.partialScanExecCnt
                0x2000f358        0x1 ./source/Scan.o
                0x2000f358                partialScanExecCnt
 .bss.pdGrpIdx  0x2000f359        0x1 ./source/Scan.o
                0x2000f359                pdGrpIdx
 .bss.pdGrpIdxPrev
                0x2000f35a        0x1 ./source/Scan.o
                0x2000f35a                pdGrpIdxPrev
 .bss.scanTaskPowerOnInitCnt
                0x2000f35b        0x1 ./source/Scan.o
                0x2000f35b                scanTaskPowerOnInitCnt
 .bss.subThresholdDropPercent
                0x2000f35c        0x1 ./source/Scan.o
                0x2000f35c                subThresholdDropPercent
 .bss.xAxisExtLightDelayUsec
                0x2000f35d        0x1 ./source/Scan.o
                0x2000f35d                xAxisExtLightDelayUsec
 .bss.xAxisPdShiftDelayUsec
                0x2000f35e        0x1 ./source/Scan.o
                0x2000f35e                xAxisPdShiftDelayUsec
 .bss.xLedDeadCellCnt
                0x2000f35f        0x1 ./source/Scan.o
                0x2000f35f                xLedDeadCellCnt
 .bss.xPdDeadCellCnt
                0x2000f360        0x1 ./source/Scan.o
                0x2000f360                xPdDeadCellCnt
 .bss.yAxisExtLightDelayUsec
                0x2000f361        0x1 ./source/Scan.o
                0x2000f361                yAxisExtLightDelayUsec
 .bss.yAxisPdShiftDelayUsec
                0x2000f362        0x1 ./source/Scan.o
                0x2000f362                yAxisPdShiftDelayUsec
 .bss.yLedDeadCellCnt
                0x2000f363        0x1 ./source/Scan.o
                0x2000f363                yLedDeadCellCnt
 .bss.yPdDeadCellCnt
                0x2000f364        0x1 ./source/Scan.o
                0x2000f364                yPdDeadCellCnt
 .bss.appCurrMode
                0x2000f365        0x1 ./source/app.o
 .bss.appMode   0x2000f366        0x1 ./source/app.o
 .bss.appNextMode
                0x2000f367        0x1 ./source/app.o
 .bss.appRunState
                0x2000f368        0x1 ./source/app.o
                0x2000f368                appRunState
 .bss.backendRunState
                0x2000f369        0x1 ./source/app.o
                0x2000f369                backendRunState
 .bss.contError
                0x2000f36a        0x1 ./source/app.o
                0x2000f36a                contError
 .bss.contTouch
                0x2000f36b        0x1 ./source/app.o
                0x2000f36b                contTouch
 .bss.contTouch2
                0x2000f36c        0x1 ./source/app.o
                0x2000f36c                contTouch2
 .bss.scan_status
                0x2000f36d        0x1 ./source/app.o
                0x2000f36d                scan_status
 .bss.touchMode
                0x2000f36e        0x1 ./source/app.o
                0x2000f36e                touchMode
 .bss.touchModePrev
                0x2000f36f        0x1 ./source/app.o
                0x2000f36f                touchModePrev
 .bss.Brush_Process
                0x2000f370        0x1 ./source/backend_postp.o
                0x2000f370                Brush_Process
 .bss.Brush_Size_Status
                0x2000f371        0x1 ./source/backend_postp.o
                0x2000f371                Brush_Size_Status
 .bss.Move_Status
                0x2000f372        0x1 ./source/backend_postp.o
                0x2000f372                Move_Status
 .bss.preBrush_Size_Status
                0x2000f373        0x1 ./source/backend_postp.o
                0x2000f373                preBrush_Size_Status
 .bss.preMove_Status
                0x2000f374        0x1 ./source/backend_postp.o
                0x2000f374                preMove_Status
 .bss.s_Brush_Release_Cnt
                0x2000f375        0x1 ./source/backend_postp.o
 .bss.BS_max_p1_p2_ve
                0x2000f376        0x1 D:\Project\21.IR_Touch\BE_FW\wmc-ctsi-0850-fe-be-app\lib/libbackend_irt650_nxp2.a(backend_utils.o)
                0x2000f376                BS_max_p1_p2_ve
 *(SORT_BY_ALIGNMENT(COMMON))
                0x2000f378                . = ALIGN (0x4)
 *fill*         0x2000f377        0x1 
                0x2000f378                _ebss = .
                [!provide]                PROVIDE (end = .)

.noinit_RAM2    0x00019020        0x0
                0x00019020                . = ALIGN (0x4)
 *(SORT_BY_ALIGNMENT(.noinit.$RAM2))
 *(SORT_BY_ALIGNMENT(.noinit.$SRAM_ITC))
 *(SORT_BY_ALIGNMENT(.noinit.$RAM2.*))
 *(SORT_BY_ALIGNMENT(.noinit.$SRAM_ITC.*))
                0x00019020                . = ALIGN (0x4)

.noinit_RAM3    0x2026d7d4        0x0
                0x2026d7d4                . = ALIGN (0x4)
 *(SORT_BY_ALIGNMENT(.noinit.$RAM3))
 *(SORT_BY_ALIGNMENT(.noinit.$SRAM_OC))
 *(SORT_BY_ALIGNMENT(.noinit.$RAM3.*))
 *(SORT_BY_ALIGNMENT(.noinit.$SRAM_OC.*))
                0x2026d7d4                . = ALIGN (0x4)

.noinit         0x2000f378        0x0
                0x2000f378                . = ALIGN (0x4)
                0x2000f378                _noinit = .
 *(SORT_BY_ALIGNMENT(.noinit*))
                0x2000f378                . = ALIGN (0x4)
                0x2000f378                _end_noinit = .
                0x00002000                _HeapSize = 0x2000

.heap           0x2000f378     0x2000
                0x2000f378                _pvHeapStart = .
                0x20011378                . = (. + _HeapSize)
 *fill*         0x2000f378     0x2000 
                0x20011378                . = ALIGN (0x4)
                0x20011378                _pvHeapLimit = .
                0x00004000                _StackSize = 0x4000

.heap2stackfill
                0x20011378     0x4000
                0x20015378                . = (. + _StackSize)
 *fill*         0x20011378     0x4000 

.stack          0x2001c000        0x0
                0x2001c000                _vStackBase = .
                0x2001c000                . = ALIGN (0x4)
                0x20020000                _vStackTop = (. + _StackSize)
                0x70022000                _image_start = LOADADDR (.text)
                0x70050f9c                _image_end = (LOADADDR (.data) + SIZEOF (.data))
                0x0002ef9c                _image_size = (_image_end - _image_start)
OUTPUT(wmc-ctsi-0850-fe-be-app.axf elf32-littlearm)
LOAD linker stubs

.debug_info     0x00000000    0x5f2b2
 .debug_info    0x00000000      0x84a ./xip/evkmimxrt1064_flexspi_nor_config.o
 .debug_info    0x0000084a      0x46b ./xip/fsl_flexspi_nor_boot.o
 .debug_info    0x00000cb5     0x1641 ./utilities/fsl_debug_console.o
 .debug_info    0x000022f6      0x83f ./usb/phy/usb_phy.o
 .debug_info    0x00002b35     0x22ca ./usb/device/source/ehci/usb_device_ehci.o
 .debug_info    0x00004dff     0x1ff8 ./usb/device/source/usb_device_ch9.o
 .debug_info    0x00006df7     0x202d ./usb/device/source/usb_device_dci.o
 .debug_info    0x00008e24     0x14ca ./usb/device/class/hid/usb_device_hid.o
 .debug_info    0x0000a2ee     0x1342 ./usb/device/class/usb_device_class.o
 .debug_info    0x0000b630     0x15de ./startup/startup_mimxrt1064.o
 .debug_info    0x0000cc0e     0x5291 ./source/Scan.o
 .debug_info    0x00011e9f      0x3d0 ./source/adc.o
 .debug_info    0x0001226f     0x424b ./source/app.o
 .debug_info    0x000164ba     0x3384 ./source/backend_postp.o
 .debug_info    0x0001983e       0xf5 ./source/bezier.o
 .debug_info    0x00019933     0x1c34 ./source/composite.o
 .debug_info    0x0001b567     0x1b99 ./source/dlt.o
 .debug_info    0x0001d100      0x8da ./source/hid_generic.o
 .debug_info    0x0001d9da      0x8e7 ./source/hid_mouse.o
 .debug_info    0x0001e2c1      0x497 ./source/pitch_table.o
 .debug_info    0x0001e758      0x524 ./source/scan_table.o
 .debug_info    0x0001ec7c       0x38 ./source/semihost_hardfault.o
 .debug_info    0x0001ecb4     0x1168 ./source/usb_device_descriptor.o
 .debug_info    0x0001fe1c     0x1593 ./drivers/fsl_adc.o
 .debug_info    0x000213af     0x59bc ./drivers/fsl_clock.o
 .debug_info    0x00026d6b      0xfab ./drivers/fsl_gpio.o
 .debug_info    0x00027d16      0xff6 ./drivers/fsl_gpt.o
 .debug_info    0x00028d0c     0x3cd1 ./drivers/fsl_lpuart.o
 .debug_info    0x0002c9dd     0x184b ./drivers/fsl_qtmr.o
 .debug_info    0x0002e228     0x1738 ./drivers/fsl_wdog.o
 .debug_info    0x0002f960     0x1ddc ./drivers/fsl_xbara.o
 .debug_info    0x0003173c      0xca0 ./device/system_MIMXRT1064.o
 .debug_info    0x000323dc      0xc5e ./component/uart/fsl_adapter_lpuart.o
 .debug_info    0x0003303a     0x1296 ./component/serial_manager/fsl_component_serial_manager.o
 .debug_info    0x000342d0      0x5ae ./component/serial_manager/fsl_component_serial_port_uart.o
 .debug_info    0x0003487e     0x1dc4 ./component/osa/fsl_os_abstraction_bm.o
 .debug_info    0x00036642     0x1202 ./board/board.o
 .debug_info    0x00037844     0x9334 ./board/clock_config.o
 .debug_info    0x00040b78     0x1f8f ./board/peripherals.o
 .debug_info    0x00042b07     0x42ae ./board/pin_mux.o
 .debug_info    0x00046db5     0x3a8c D:\Project\21.IR_Touch\BE_FW\wmc-ctsi-0850-fe-be-app\lib/libbackend_irt650_nxp2.a(backend_main.o)
 .debug_info    0x0004a841     0x64c8 D:\Project\21.IR_Touch\BE_FW\wmc-ctsi-0850-fe-be-app\lib/libbackend_irt650_nxp2.a(backend_multi.o)
 .debug_info    0x00050d09     0x353f D:\Project\21.IR_Touch\BE_FW\wmc-ctsi-0850-fe-be-app\lib/libbackend_irt650_nxp2.a(backend_utils.o)
 .debug_info    0x00054248      0x2a1 D:\Project\21.IR_Touch\BE_FW\wmc-ctsi-0850-fe-be-app\lib/libbackend_irt650_nxp2.a(IRTP_layout.o)
 .debug_info    0x000544e9       0xff D:\Project\21.IR_Touch\BE_FW\wmc-ctsi-0850-fe-be-app\lib/libbackend_irt650_nxp2.a(backend_debug.o)
 .debug_info    0x000545e8     0xacca D:\Project\21.IR_Touch\BE_FW\wmc-ctsi-0850-fe-be-app\lib/libbackend_irt650_nxp2.a(backend_fine.o)

.debug_abbrev   0x00000000     0x8812
 .debug_abbrev  0x00000000      0x107 ./xip/evkmimxrt1064_flexspi_nor_config.o
 .debug_abbrev  0x00000107       0xdf ./xip/fsl_flexspi_nor_boot.o
 .debug_abbrev  0x000001e6      0x3c1 ./utilities/fsl_debug_console.o
 .debug_abbrev  0x000005a7      0x21c ./usb/phy/usb_phy.o
 .debug_abbrev  0x000007c3      0x508 ./usb/device/source/ehci/usb_device_ehci.o
 .debug_abbrev  0x00000ccb      0x359 ./usb/device/source/usb_device_ch9.o
 .debug_abbrev  0x00001024      0x35f ./usb/device/source/usb_device_dci.o
 .debug_abbrev  0x00001383      0x364 ./usb/device/class/hid/usb_device_hid.o
 .debug_abbrev  0x000016e7      0x2c2 ./usb/device/class/usb_device_class.o
 .debug_abbrev  0x000019a9      0x1b5 ./startup/startup_mimxrt1064.o
 .debug_abbrev  0x00001b5e      0x4f4 ./source/Scan.o
 .debug_abbrev  0x00002052      0x1ce ./source/adc.o
 .debug_abbrev  0x00002220      0x5ba ./source/app.o
 .debug_abbrev  0x000027da      0x4cc ./source/backend_postp.o
 .debug_abbrev  0x00002ca6       0xaf ./source/bezier.o
 .debug_abbrev  0x00002d55      0x476 ./source/composite.o
 .debug_abbrev  0x000031cb      0x3bc ./source/dlt.o
 .debug_abbrev  0x00003587      0x1e7 ./source/hid_generic.o
 .debug_abbrev  0x0000376e      0x242 ./source/hid_mouse.o
 .debug_abbrev  0x000039b0       0x96 ./source/pitch_table.o
 .debug_abbrev  0x00003a46       0xec ./source/scan_table.o
 .debug_abbrev  0x00003b32       0x2e ./source/semihost_hardfault.o
 .debug_abbrev  0x00003b60      0x213 ./source/usb_device_descriptor.o
 .debug_abbrev  0x00003d73      0x377 ./drivers/fsl_adc.o
 .debug_abbrev  0x000040ea      0x4c0 ./drivers/fsl_clock.o
 .debug_abbrev  0x000045aa      0x315 ./drivers/fsl_gpio.o
 .debug_abbrev  0x000048bf      0x2b1 ./drivers/fsl_gpt.o
 .debug_abbrev  0x00004b70      0x4c3 ./drivers/fsl_lpuart.o
 .debug_abbrev  0x00005033      0x3a2 ./drivers/fsl_qtmr.o
 .debug_abbrev  0x000053d5      0x38d ./drivers/fsl_wdog.o
 .debug_abbrev  0x00005762      0x30a ./drivers/fsl_xbara.o
 .debug_abbrev  0x00005a6c      0x192 ./device/system_MIMXRT1064.o
 .debug_abbrev  0x00005bfe      0x27d ./component/uart/fsl_adapter_lpuart.o
 .debug_abbrev  0x00005e7b      0x303 ./component/serial_manager/fsl_component_serial_manager.o
 .debug_abbrev  0x0000617e      0x1bd ./component/serial_manager/fsl_component_serial_port_uart.o
 .debug_abbrev  0x0000633b      0x437 ./component/osa/fsl_os_abstraction_bm.o
 .debug_abbrev  0x00006772      0x30f ./board/board.o
 .debug_abbrev  0x00006a81      0x3b2 ./board/clock_config.o
 .debug_abbrev  0x00006e33      0x305 ./board/peripherals.o
 .debug_abbrev  0x00007138      0x335 ./board/pin_mux.o
 .debug_abbrev  0x0000746d      0x4aa D:\Project\21.IR_Touch\BE_FW\wmc-ctsi-0850-fe-be-app\lib/libbackend_irt650_nxp2.a(backend_main.o)
 .debug_abbrev  0x00007917      0x4ab D:\Project\21.IR_Touch\BE_FW\wmc-ctsi-0850-fe-be-app\lib/libbackend_irt650_nxp2.a(backend_multi.o)
 .debug_abbrev  0x00007dc2      0x4cb D:\Project\21.IR_Touch\BE_FW\wmc-ctsi-0850-fe-be-app\lib/libbackend_irt650_nxp2.a(backend_utils.o)
 .debug_abbrev  0x0000828d       0x6d D:\Project\21.IR_Touch\BE_FW\wmc-ctsi-0850-fe-be-app\lib/libbackend_irt650_nxp2.a(IRTP_layout.o)
 .debug_abbrev  0x000082fa       0x64 D:\Project\21.IR_Touch\BE_FW\wmc-ctsi-0850-fe-be-app\lib/libbackend_irt650_nxp2.a(backend_debug.o)
 .debug_abbrev  0x0000835e      0x4b4 D:\Project\21.IR_Touch\BE_FW\wmc-ctsi-0850-fe-be-app\lib/libbackend_irt650_nxp2.a(backend_fine.o)

.debug_aranges  0x00000000     0x19a0
 .debug_aranges
                0x00000000       0x18 ./xip/evkmimxrt1064_flexspi_nor_config.o
 .debug_aranges
                0x00000018       0x18 ./xip/fsl_flexspi_nor_boot.o
 .debug_aranges
                0x00000030       0xa8 ./utilities/fsl_debug_console.o
 .debug_aranges
                0x000000d8       0x40 ./usb/phy/usb_phy.o
 .debug_aranges
                0x00000118       0x78 ./usb/device/source/ehci/usb_device_ehci.o
 .debug_aranges
                0x00000190       0x70 ./usb/device/source/usb_device_ch9.o
 .debug_aranges
                0x00000200       0x90 ./usb/device/source/usb_device_dci.o
 .debug_aranges
                0x00000290       0x58 ./usb/device/class/hid/usb_device_hid.o
 .debug_aranges
                0x000002e8       0x48 ./usb/device/class/usb_device_class.o
 .debug_aranges
                0x00000330      0x570 ./startup/startup_mimxrt1064.o
 .debug_aranges
                0x000008a0      0x188 ./source/Scan.o
 .debug_aranges
                0x00000a28       0x38 ./source/adc.o
 .debug_aranges
                0x00000a60      0x118 ./source/app.o
 .debug_aranges
                0x00000b78       0xb8 ./source/backend_postp.o
 .debug_aranges
                0x00000c30       0x28 ./source/bezier.o
 .debug_aranges
                0x00000c58       0x50 ./source/composite.o
 .debug_aranges
                0x00000ca8       0x88 ./source/dlt.o
 .debug_aranges
                0x00000d30       0x40 ./source/hid_generic.o
 .debug_aranges
                0x00000d70       0x48 ./source/hid_mouse.o
 .debug_aranges
                0x00000db8       0x18 ./source/pitch_table.o
 .debug_aranges
                0x00000dd0       0x18 ./source/scan_table.o
 .debug_aranges
                0x00000de8       0x20 ./source/semihost_hardfault.o
 .debug_aranges
                0x00000e08       0x48 ./source/usb_device_descriptor.o
 .debug_aranges
                0x00000e50       0x60 ./drivers/fsl_adc.o
 .debug_aranges
                0x00000eb0      0x180 ./drivers/fsl_clock.o
 .debug_aranges
                0x00001030       0x30 ./drivers/fsl_gpio.o
 .debug_aranges
                0x00001060       0x30 ./drivers/fsl_gpt.o
 .debug_aranges
                0x00001090      0x128 ./drivers/fsl_lpuart.o
 .debug_aranges
                0x000011b8       0xa0 ./drivers/fsl_qtmr.o
 .debug_aranges
                0x00001258       0x48 ./drivers/fsl_wdog.o
 .debug_aranges
                0x000012a0       0x48 ./drivers/fsl_xbara.o
 .debug_aranges
                0x000012e8       0x30 ./device/system_MIMXRT1064.o
 .debug_aranges
                0x00001318       0x40 ./component/uart/fsl_adapter_lpuart.o
 .debug_aranges
                0x00001358       0x70 ./component/serial_manager/fsl_component_serial_manager.o
 .debug_aranges
                0x000013c8       0x48 ./component/serial_manager/fsl_component_serial_port_uart.o
 .debug_aranges
                0x00001410      0x128 ./component/osa/fsl_os_abstraction_bm.o
 .debug_aranges
                0x00001538       0x30 ./board/board.o
 .debug_aranges
                0x00001568       0x30 ./board/clock_config.o
 .debug_aranges
                0x00001598       0x28 ./board/peripherals.o
 .debug_aranges
                0x000015c0       0x38 ./board/pin_mux.o
 .debug_aranges
                0x000015f8       0xa8 D:\Project\21.IR_Touch\BE_FW\wmc-ctsi-0850-fe-be-app\lib/libbackend_irt650_nxp2.a(backend_main.o)
 .debug_aranges
                0x000016a0       0xc8 D:\Project\21.IR_Touch\BE_FW\wmc-ctsi-0850-fe-be-app\lib/libbackend_irt650_nxp2.a(backend_multi.o)
 .debug_aranges
                0x00001768      0x110 D:\Project\21.IR_Touch\BE_FW\wmc-ctsi-0850-fe-be-app\lib/libbackend_irt650_nxp2.a(backend_utils.o)
 .debug_aranges
                0x00001878       0x18 D:\Project\21.IR_Touch\BE_FW\wmc-ctsi-0850-fe-be-app\lib/libbackend_irt650_nxp2.a(IRTP_layout.o)
 .debug_aranges
                0x00001890       0x18 D:\Project\21.IR_Touch\BE_FW\wmc-ctsi-0850-fe-be-app\lib/libbackend_irt650_nxp2.a(backend_debug.o)
 .debug_aranges
                0x000018a8       0xf8 D:\Project\21.IR_Touch\BE_FW\wmc-ctsi-0850-fe-be-app\lib/libbackend_irt650_nxp2.a(backend_fine.o)

.debug_line     0x00000000    0x43b80
 .debug_line    0x00000000      0x13e ./xip/evkmimxrt1064_flexspi_nor_config.o
 .debug_line    0x0000013e      0x126 ./xip/fsl_flexspi_nor_boot.o
 .debug_line    0x00000264      0xb56 ./utilities/fsl_debug_console.o
 .debug_line    0x00000dba      0x50f ./usb/phy/usb_phy.o
 .debug_line    0x000012c9     0x1bd3 ./usb/device/source/ehci/usb_device_ehci.o
 .debug_line    0x00002e9c      0xde3 ./usb/device/source/usb_device_ch9.o
 .debug_line    0x00003c7f     0x1032 ./usb/device/source/usb_device_dci.o
 .debug_line    0x00004cb1      0xc87 ./usb/device/class/hid/usb_device_hid.o
 .debug_line    0x00005938      0x8d6 ./usb/device/class/usb_device_class.o
 .debug_line    0x0000620e     0x17c8 ./startup/startup_mimxrt1064.o
 .debug_line    0x000079d6     0xb075 ./source/Scan.o
 .debug_line    0x00012a4b      0x335 ./source/adc.o
 .debug_line    0x00012d80     0x4297 ./source/app.o
 .debug_line    0x00017017     0x3d3f ./source/backend_postp.o
 .debug_line    0x0001ad56       0xd0 ./source/bezier.o
 .debug_line    0x0001ae26      0x872 ./source/composite.o
 .debug_line    0x0001b698     0x16d3 ./source/dlt.o
 .debug_line    0x0001cd6b      0x464 ./source/hid_generic.o
 .debug_line    0x0001d1cf      0x3c0 ./source/hid_mouse.o
 .debug_line    0x0001d58f       0x96 ./source/pitch_table.o
 .debug_line    0x0001d625      0x137 ./source/scan_table.o
 .debug_line    0x0001d75c       0x59 ./source/semihost_hardfault.o
 .debug_line    0x0001d7b5      0x42e ./source/usb_device_descriptor.o
 .debug_line    0x0001dbe3      0x6e6 ./drivers/fsl_adc.o
 .debug_line    0x0001e2c9     0x3b07 ./drivers/fsl_clock.o
 .debug_line    0x00021dd0      0x449 ./drivers/fsl_gpio.o
 .debug_line    0x00022219      0x45e ./drivers/fsl_gpt.o
 .debug_line    0x00022677     0x22fe ./drivers/fsl_lpuart.o
 .debug_line    0x00024975      0xae5 ./drivers/fsl_qtmr.o
 .debug_line    0x0002545a      0x51e ./drivers/fsl_wdog.o
 .debug_line    0x00025978      0x422 ./drivers/fsl_xbara.o
 .debug_line    0x00025d9a      0x44e ./device/system_MIMXRT1064.o
 .debug_line    0x000261e8      0x400 ./component/uart/fsl_adapter_lpuart.o
 .debug_line    0x000265e8      0x766 ./component/serial_manager/fsl_component_serial_manager.o
 .debug_line    0x00026d4e      0x23c ./component/serial_manager/fsl_component_serial_port_uart.o
 .debug_line    0x00026f8a      0xffa ./component/osa/fsl_os_abstraction_bm.o
 .debug_line    0x00027f84      0x870 ./board/board.o
 .debug_line    0x000287f4     0x334f ./board/clock_config.o
 .debug_line    0x0002bb43      0x435 ./board/peripherals.o
 .debug_line    0x0002bf78      0xdea ./board/pin_mux.o
 .debug_line    0x0002cd62     0x2ea4 D:\Project\21.IR_Touch\BE_FW\wmc-ctsi-0850-fe-be-app\lib/libbackend_irt650_nxp2.a(backend_main.o)
 .debug_line    0x0002fc06     0x6a96 D:\Project\21.IR_Touch\BE_FW\wmc-ctsi-0850-fe-be-app\lib/libbackend_irt650_nxp2.a(backend_multi.o)
 .debug_line    0x0003669c     0x33a2 D:\Project\21.IR_Touch\BE_FW\wmc-ctsi-0850-fe-be-app\lib/libbackend_irt650_nxp2.a(backend_utils.o)
 .debug_line    0x00039a3e       0x6b D:\Project\21.IR_Touch\BE_FW\wmc-ctsi-0850-fe-be-app\lib/libbackend_irt650_nxp2.a(IRTP_layout.o)
 .debug_line    0x00039aa9       0x5d D:\Project\21.IR_Touch\BE_FW\wmc-ctsi-0850-fe-be-app\lib/libbackend_irt650_nxp2.a(backend_debug.o)
 .debug_line    0x00039b06     0xa07a D:\Project\21.IR_Touch\BE_FW\wmc-ctsi-0850-fe-be-app\lib/libbackend_irt650_nxp2.a(backend_fine.o)

.debug_str      0x00000000    0x17178
 .debug_str     0x00000000     0x121f ./xip/evkmimxrt1064_flexspi_nor_config.o
                               0x1249 (size before relaxing)
 .debug_str     0x0000121f       0x83 ./xip/fsl_flexspi_nor_boot.o
                                0xbb1 (size before relaxing)
 .debug_str     0x000012a2      0x97e ./utilities/fsl_debug_console.o
                               0x14f4 (size before relaxing)
 .debug_str     0x00001c20      0x635 ./usb/phy/usb_phy.o
                                0x828 (size before relaxing)
 .debug_str     0x00002255     0x10f5 ./usb/device/source/ehci/usb_device_ehci.o
                               0x20d9 (size before relaxing)
 .debug_str     0x0000334a     0x11bb ./usb/device/source/usb_device_ch9.o
                               0x22e0 (size before relaxing)
 .debug_str     0x00004505      0x208 ./usb/device/source/usb_device_dci.o
                               0x1f2b (size before relaxing)
 .debug_str     0x0000470d      0x433 ./usb/device/class/hid/usb_device_hid.o
                               0x1a04 (size before relaxing)
 .debug_str     0x00004b40      0x22d ./usb/device/class/usb_device_class.o
                               0x1b84 (size before relaxing)
 .debug_str     0x00004d6d      0xe04 ./startup/startup_mimxrt1064.o
                                0xf3c (size before relaxing)
 .debug_str     0x00005b71     0x185e ./source/Scan.o
                               0x24db (size before relaxing)
 .debug_str     0x000073cf      0x12f ./source/adc.o
                                0x309 (size before relaxing)
 .debug_str     0x000074fe     0x14b3 ./source/app.o
                               0x2495 (size before relaxing)
 .debug_str     0x000089b1      0xb87 ./source/backend_postp.o
                               0x1b55 (size before relaxing)
 .debug_str     0x00009538       0x3c ./source/bezier.o
                                0x18b (size before relaxing)
 .debug_str     0x00009574      0xd8f ./source/composite.o
                               0x2942 (size before relaxing)
 .debug_str     0x0000a303      0x2ca ./source/dlt.o
                               0x13b3 (size before relaxing)
 .debug_str     0x0000a5cd       0xa2 ./source/hid_generic.o
                               0x126d (size before relaxing)
 .debug_str     0x0000a66f       0xaf ./source/hid_mouse.o
                               0x119f (size before relaxing)
 .debug_str     0x0000a71e       0x18 ./source/pitch_table.o
                                0xc7a (size before relaxing)
 .debug_str     0x0000a736       0x17 ./source/scan_table.o
                                0xcb1 (size before relaxing)
 .debug_str     0x0000a74d       0x1f ./source/semihost_hardfault.o
                                0x14c (size before relaxing)
 .debug_str     0x0000a76c      0x66f ./source/usb_device_descriptor.o
                               0x1ba9 (size before relaxing)
 .debug_str     0x0000addb      0xf8e ./drivers/fsl_adc.o
                               0x1cab (size before relaxing)
 .debug_str     0x0000bd69     0x1762 ./drivers/fsl_clock.o
                               0x26ce (size before relaxing)
 .debug_str     0x0000d4cb      0x1dd ./drivers/fsl_gpio.o
                               0x15ac (size before relaxing)
 .debug_str     0x0000d6a8       0xad ./drivers/fsl_gpt.o
                               0x1594 (size before relaxing)
 .debug_str     0x0000d755     0x1141 ./drivers/fsl_lpuart.o
                               0x3079 (size before relaxing)
 .debug_str     0x0000e896      0x8e0 ./drivers/fsl_qtmr.o
                               0x1e0c (size before relaxing)
 .debug_str     0x0000f176       0x7b ./drivers/fsl_wdog.o
                               0x20e5 (size before relaxing)
 .debug_str     0x0000f1f1     0x2ca0 ./drivers/fsl_xbara.o
                               0x4052 (size before relaxing)
 .debug_str     0x00011e91       0xa5 ./device/system_MIMXRT1064.o
                                0x79b (size before relaxing)
 .debug_str     0x00011f36      0x2f7 ./component/uart/fsl_adapter_lpuart.o
                               0x13a7 (size before relaxing)
 .debug_str     0x0001222d      0x33b ./component/serial_manager/fsl_component_serial_manager.o
                               0x13b9 (size before relaxing)
 .debug_str     0x00012568       0x92 ./component/serial_manager/fsl_component_serial_port_uart.o
                                0x717 (size before relaxing)
 .debug_str     0x000125fa      0x5be ./component/osa/fsl_os_abstraction_bm.o
                               0x1255 (size before relaxing)
 .debug_str     0x00012bb8      0x113 ./board/board.o
                                0xbc5 (size before relaxing)
 .debug_str     0x00012ccb      0x3fc ./board/clock_config.o
                               0x220e (size before relaxing)
 .debug_str     0x000130c7      0x1b1 ./board/peripherals.o
                               0x2881 (size before relaxing)
 .debug_str     0x00013278      0x30e ./board/pin_mux.o
                               0x39f5 (size before relaxing)
 .debug_str     0x00013586     0x147a D:\Project\21.IR_Touch\BE_FW\wmc-ctsi-0850-fe-be-app\lib/libbackend_irt650_nxp2.a(backend_main.o)
                               0x199c (size before relaxing)
 .debug_str     0x00014a00      0xd9f D:\Project\21.IR_Touch\BE_FW\wmc-ctsi-0850-fe-be-app\lib/libbackend_irt650_nxp2.a(backend_multi.o)
                               0x197f (size before relaxing)
 .debug_str     0x0001579f      0x478 D:\Project\21.IR_Touch\BE_FW\wmc-ctsi-0850-fe-be-app\lib/libbackend_irt650_nxp2.a(backend_utils.o)
                                0xc1c (size before relaxing)
 .debug_str     0x00015c17       0x15 D:\Project\21.IR_Touch\BE_FW\wmc-ctsi-0850-fe-be-app\lib/libbackend_irt650_nxp2.a(IRTP_layout.o)
                                0x304 (size before relaxing)
 .debug_str     0x00015c2c       0x17 D:\Project\21.IR_Touch\BE_FW\wmc-ctsi-0850-fe-be-app\lib/libbackend_irt650_nxp2.a(backend_debug.o)
                                0x1f2 (size before relaxing)
 .debug_str     0x00015c43     0x1535 D:\Project\21.IR_Touch\BE_FW\wmc-ctsi-0850-fe-be-app\lib/libbackend_irt650_nxp2.a(backend_fine.o)
                               0x22b5 (size before relaxing)

.comment        0x00000000       0x49
 .comment       0x00000000       0x49 ./xip/evkmimxrt1064_flexspi_nor_config.o
                                 0x4a (size before relaxing)
 .comment       0x00000049       0x4a ./xip/fsl_flexspi_nor_boot.o
 .comment       0x00000049       0x4a ./utilities/fsl_debug_console.o
 .comment       0x00000049       0x4a ./usb/phy/usb_phy.o
 .comment       0x00000049       0x4a ./usb/device/source/ehci/usb_device_ehci.o
 .comment       0x00000049       0x4a ./usb/device/source/usb_device_ch9.o
 .comment       0x00000049       0x4a ./usb/device/source/usb_device_dci.o
 .comment       0x00000049       0x4a ./usb/device/class/hid/usb_device_hid.o
 .comment       0x00000049       0x4a ./usb/device/class/usb_device_class.o
 .comment       0x00000049       0x4a ./startup/startup_mimxrt1064.o
 .comment       0x00000049       0x4a ./source/Scan.o
 .comment       0x00000049       0x4a ./source/adc.o
 .comment       0x00000049       0x4a ./source/app.o
 .comment       0x00000049       0x4a ./source/backend_postp.o
 .comment       0x00000049       0x4a ./source/bezier.o
 .comment       0x00000049       0x4a ./source/composite.o
 .comment       0x00000049       0x4a ./source/dlt.o
 .comment       0x00000049       0x4a ./source/hid_generic.o
 .comment       0x00000049       0x4a ./source/hid_mouse.o
 .comment       0x00000049       0x4a ./source/pitch_table.o
 .comment       0x00000049       0x4a ./source/scan_table.o
 .comment       0x00000049       0x4a ./source/semihost_hardfault.o
 .comment       0x00000049       0x4a ./source/usb_device_descriptor.o
 .comment       0x00000049       0x4a ./drivers/fsl_adc.o
 .comment       0x00000049       0x4a ./drivers/fsl_clock.o
 .comment       0x00000049       0x4a ./drivers/fsl_gpio.o
 .comment       0x00000049       0x4a ./drivers/fsl_gpt.o
 .comment       0x00000049       0x4a ./drivers/fsl_lpuart.o
 .comment       0x00000049       0x4a ./drivers/fsl_qtmr.o
 .comment       0x00000049       0x4a ./drivers/fsl_wdog.o
 .comment       0x00000049       0x4a ./drivers/fsl_xbara.o
 .comment       0x00000049       0x4a ./device/system_MIMXRT1064.o
 .comment       0x00000049       0x4a ./component/uart/fsl_adapter_lpuart.o
 .comment       0x00000049       0x4a ./component/serial_manager/fsl_component_serial_manager.o
 .comment       0x00000049       0x4a ./component/serial_manager/fsl_component_serial_port_uart.o
 .comment       0x00000049       0x4a ./component/osa/fsl_os_abstraction_bm.o
 .comment       0x00000049       0x4a ./board/board.o
 .comment       0x00000049       0x4a ./board/clock_config.o
 .comment       0x00000049       0x4a ./board/peripherals.o
 .comment       0x00000049       0x4a ./board/pin_mux.o
 .comment       0x00000049       0x4a D:\Project\21.IR_Touch\BE_FW\wmc-ctsi-0850-fe-be-app\lib/libbackend_irt650_nxp2.a(backend_main.o)
 .comment       0x00000049       0x4a D:\Project\21.IR_Touch\BE_FW\wmc-ctsi-0850-fe-be-app\lib/libbackend_irt650_nxp2.a(backend_multi.o)
 .comment       0x00000049       0x4a D:\Project\21.IR_Touch\BE_FW\wmc-ctsi-0850-fe-be-app\lib/libbackend_irt650_nxp2.a(backend_utils.o)
 .comment       0x00000049       0x4a D:\Project\21.IR_Touch\BE_FW\wmc-ctsi-0850-fe-be-app\lib/libbackend_irt650_nxp2.a(IRTP_layout.o)
 .comment       0x00000049       0x4a D:\Project\21.IR_Touch\BE_FW\wmc-ctsi-0850-fe-be-app\lib/libbackend_irt650_nxp2.a(backend_debug.o)
 .comment       0x00000049       0x4a D:\Project\21.IR_Touch\BE_FW\wmc-ctsi-0850-fe-be-app\lib/libbackend_irt650_nxp2.a(backend_fine.o)
 .comment       0x00000049       0x4a c:/nxp/mcuxpressoide_11.7.0_9198/ide/plugins/com.nxp.mcuxpresso.tools.win32_11.7.0.202209140929/tools/bin/../lib/gcc/arm-none-eabi/10.3.1/../../../../arm-none-eabi/lib/thumb/v7e-m+fp/hard\libcr_nohost_nf.a(_cr__main.o)
 .comment       0x00000049       0x4a c:/nxp/mcuxpressoide_11.7.0_9198/ide/plugins/com.nxp.mcuxpresso.tools.win32_11.7.0.202209140929/tools/bin/../lib/gcc/arm-none-eabi/10.3.1/../../../../arm-none-eabi/lib/thumb/v7e-m+fp/hard\libcr_c.a(memcpy.o)
 .comment       0x00000049       0x4a c:/nxp/mcuxpressoide_11.7.0_9198/ide/plugins/com.nxp.mcuxpresso.tools.win32_11.7.0.202209140929/tools/bin/../lib/gcc/arm-none-eabi/10.3.1/../../../../arm-none-eabi/lib/thumb/v7e-m+fp/hard\libcr_c.a(memset.o)
 .comment       0x00000049       0x4a c:/nxp/mcuxpressoide_11.7.0_9198/ide/plugins/com.nxp.mcuxpresso.tools.win32_11.7.0.202209140929/tools/bin/../lib/gcc/arm-none-eabi/10.3.1/../../../../arm-none-eabi/lib/thumb/v7e-m+fp/hard\libcr_c.a(alloc.o)
 .comment       0x00000049       0x4a c:/nxp/mcuxpressoide_11.7.0_9198/ide/plugins/com.nxp.mcuxpresso.tools.win32_11.7.0.202209140929/tools/bin/../lib/gcc/arm-none-eabi/10.3.1/../../../../arm-none-eabi/lib/thumb/v7e-m+fp/hard\libcr_c.a(errno.o)
 .comment       0x00000049       0x4a c:/nxp/mcuxpressoide_11.7.0_9198/ide/plugins/com.nxp.mcuxpresso.tools.win32_11.7.0.202209140929/tools/bin/../lib/gcc/arm-none-eabi/10.3.1/../../../../arm-none-eabi/lib/thumb/v7e-m+fp/hard\libcr_c.a(initio.o)
 .comment       0x00000049       0x4a c:/nxp/mcuxpressoide_11.7.0_9198/ide/plugins/com.nxp.mcuxpresso.tools.win32_11.7.0.202209140929/tools/bin/../lib/gcc/arm-none-eabi/10.3.1/../../../../arm-none-eabi/lib/thumb/v7e-m+fp/hard\libcr_c.a(printf.o)
 .comment       0x00000049       0x4a c:/nxp/mcuxpressoide_11.7.0_9198/ide/plugins/com.nxp.mcuxpresso.tools.win32_11.7.0.202209140929/tools/bin/../lib/gcc/arm-none-eabi/10.3.1/../../../../arm-none-eabi/lib/thumb/v7e-m+fp/hard\libcr_c.a(scanf.o)
 .comment       0x00000049       0x4a c:/nxp/mcuxpressoide_11.7.0_9198/ide/plugins/com.nxp.mcuxpresso.tools.win32_11.7.0.202209140929/tools/bin/../lib/gcc/arm-none-eabi/10.3.1/../../../../arm-none-eabi/lib/thumb/v7e-m+fp/hard\libcr_c.a(setvbuf.o)
 .comment       0x00000049       0x4a c:/nxp/mcuxpressoide_11.7.0_9198/ide/plugins/com.nxp.mcuxpresso.tools.win32_11.7.0.202209140929/tools/bin/../lib/gcc/arm-none-eabi/10.3.1/../../../../arm-none-eabi/lib/thumb/v7e-m+fp/hard\libcr_c.a(strchr.o)
 .comment       0x00000049       0x4a c:/nxp/mcuxpressoide_11.7.0_9198/ide/plugins/com.nxp.mcuxpresso.tools.win32_11.7.0.202209140929/tools/bin/../lib/gcc/arm-none-eabi/10.3.1/../../../../arm-none-eabi/lib/thumb/v7e-m+fp/hard\libcr_c.a(strlen.o)
 .comment       0x00000049       0x4a c:/nxp/mcuxpressoide_11.7.0_9198/ide/plugins/com.nxp.mcuxpresso.tools.win32_11.7.0.202209140929/tools/bin/../lib/gcc/arm-none-eabi/10.3.1/../../../../arm-none-eabi/lib/thumb/v7e-m+fp/hard\libcr_c.a(__init_alloc.o)
 .comment       0x00000049       0x4a c:/nxp/mcuxpressoide_11.7.0_9198/ide/plugins/com.nxp.mcuxpresso.tools.win32_11.7.0.202209140929/tools/bin/../lib/gcc/arm-none-eabi/10.3.1/../../../../arm-none-eabi/lib/thumb/v7e-m+fp/hard\libcr_c.a(_cr_sbrk.o)
 .comment       0x00000049       0x4a c:/nxp/mcuxpressoide_11.7.0_9198/ide/plugins/com.nxp.mcuxpresso.tools.win32_11.7.0.202209140929/tools/bin/../lib/gcc/arm-none-eabi/10.3.1/../../../../arm-none-eabi/lib/thumb/v7e-m+fp/hard\libcr_c.a(_deferredlazyseek.o)
 .comment       0x00000049       0x4a c:/nxp/mcuxpressoide_11.7.0_9198/ide/plugins/com.nxp.mcuxpresso.tools.win32_11.7.0.202209140929/tools/bin/../lib/gcc/arm-none-eabi/10.3.1/../../../../arm-none-eabi/lib/thumb/v7e-m+fp/hard\libcr_c.a(_fdopen.o)
 .comment       0x00000049       0x4a c:/nxp/mcuxpressoide_11.7.0_9198/ide/plugins/com.nxp.mcuxpresso.tools.win32_11.7.0.202209140929/tools/bin/../lib/gcc/arm-none-eabi/10.3.1/../../../../arm-none-eabi/lib/thumb/v7e-m+fp/hard\libcr_c.a(_fflush.o)
 .comment       0x00000049       0x4a c:/nxp/mcuxpressoide_11.7.0_9198/ide/plugins/com.nxp.mcuxpresso.tools.win32_11.7.0.202209140929/tools/bin/../lib/gcc/arm-none-eabi/10.3.1/../../../../arm-none-eabi/lib/thumb/v7e-m+fp/hard\libcr_c.a(_writebuf.o)
 .comment       0x00000049       0x4a c:/nxp/mcuxpressoide_11.7.0_9198/ide/plugins/com.nxp.mcuxpresso.tools.win32_11.7.0.202209140929/tools/bin/../lib/gcc/arm-none-eabi/10.3.1/../../../../arm-none-eabi/lib/thumb/v7e-m+fp/hard\libcr_c.a(ctype.o)
 .comment       0x00000049       0x4a c:/nxp/mcuxpressoide_11.7.0_9198/ide/plugins/com.nxp.mcuxpresso.tools.win32_11.7.0.202209140929/tools/bin/../lib/gcc/arm-none-eabi/10.3.1/../../../../arm-none-eabi/lib/thumb/v7e-m+fp/hard\libcr_c.a(fclose.o)
 .comment       0x00000049       0x4a c:/nxp/mcuxpressoide_11.7.0_9198/ide/plugins/com.nxp.mcuxpresso.tools.win32_11.7.0.202209140929/tools/bin/../lib/gcc/arm-none-eabi/10.3.1/../../../../arm-none-eabi/lib/thumb/v7e-m+fp/hard\libcr_c.a(fflush.o)
 .comment       0x00000049       0x4a c:/nxp/mcuxpressoide_11.7.0_9198/ide/plugins/com.nxp.mcuxpresso.tools.win32_11.7.0.202209140929/tools/bin/../lib/gcc/arm-none-eabi/10.3.1/../../../../arm-none-eabi/lib/thumb/v7e-m+fp/hard\libcr_c.a(fseek.o)
 .comment       0x00000049       0x4a c:/nxp/mcuxpressoide_11.7.0_9198/ide/plugins/com.nxp.mcuxpresso.tools.win32_11.7.0.202209140929/tools/bin/../lib/gcc/arm-none-eabi/10.3.1/../../../../arm-none-eabi/lib/thumb/v7e-m+fp/hard\libcr_c.a(ftell.o)
 .comment       0x00000049       0x4a c:/nxp/mcuxpressoide_11.7.0_9198/ide/plugins/com.nxp.mcuxpresso.tools.win32_11.7.0.202209140929/tools/bin/../lib/gcc/arm-none-eabi/10.3.1/../../../../arm-none-eabi/lib/thumb/v7e-m+fp/hard\libcr_c.a(remove.o)
 .comment       0x00000049       0x4a c:/nxp/mcuxpressoide_11.7.0_9198/ide/plugins/com.nxp.mcuxpresso.tools.win32_11.7.0.202209140929/tools/bin/../lib/gcc/arm-none-eabi/10.3.1/../../../../arm-none-eabi/lib/thumb/v7e-m+fp/hard\libcr_c.a(_cr_check_heap.o)
 .comment       0x00000049       0x4a c:/nxp/mcuxpressoide_11.7.0_9198/ide/plugins/com.nxp.mcuxpresso.tools.win32_11.7.0.202209140929/tools/bin/../lib/gcc/arm-none-eabi/10.3.1/../../../../arm-none-eabi/lib/thumb/v7e-m+fp/hard\libcr_c.a(_do_fflush.o)
 .comment       0x00000049       0x4a c:/nxp/mcuxpressoide_11.7.0_9198/ide/plugins/com.nxp.mcuxpresso.tools.win32_11.7.0.202209140929/tools/bin/../lib/gcc/arm-none-eabi/10.3.1/thumb/v7e-m+fp/hard\libcr_eabihelpers.a(double.o)
 .comment       0x00000049       0x4a c:/nxp/mcuxpressoide_11.7.0_9198/ide/plugins/com.nxp.mcuxpresso.tools.win32_11.7.0.202209140929/tools/bin/../lib/gcc/arm-none-eabi/10.3.1/../../../../arm-none-eabi/lib/thumb/v7e-m+fp/hard\libcr_nohost_nf.a(__ciob.o)
 .comment       0x00000049       0x4a c:/nxp/mcuxpressoide_11.7.0_9198/ide/plugins/com.nxp.mcuxpresso.tools.win32_11.7.0.202209140929/tools/bin/../lib/gcc/arm-none-eabi/10.3.1/../../../../arm-none-eabi/lib/thumb/v7e-m+fp/hard\libcr_nohost_nf.a(__sys_appexit.o)
 .comment       0x00000049       0x4a c:/nxp/mcuxpressoide_11.7.0_9198/ide/plugins/com.nxp.mcuxpresso.tools.win32_11.7.0.202209140929/tools/bin/../lib/gcc/arm-none-eabi/10.3.1/../../../../arm-none-eabi/lib/thumb/v7e-m+fp/hard\libcr_nohost_nf.a(__sys_close.o)
 .comment       0x00000049       0x4a c:/nxp/mcuxpressoide_11.7.0_9198/ide/plugins/com.nxp.mcuxpresso.tools.win32_11.7.0.202209140929/tools/bin/../lib/gcc/arm-none-eabi/10.3.1/../../../../arm-none-eabi/lib/thumb/v7e-m+fp/hard\libcr_nohost_nf.a(__sys_flen.o)
 .comment       0x00000049       0x4a c:/nxp/mcuxpressoide_11.7.0_9198/ide/plugins/com.nxp.mcuxpresso.tools.win32_11.7.0.202209140929/tools/bin/../lib/gcc/arm-none-eabi/10.3.1/../../../../arm-none-eabi/lib/thumb/v7e-m+fp/hard\libcr_nohost_nf.a(__sys_istty.o)
 .comment       0x00000049       0x4a c:/nxp/mcuxpressoide_11.7.0_9198/ide/plugins/com.nxp.mcuxpresso.tools.win32_11.7.0.202209140929/tools/bin/../lib/gcc/arm-none-eabi/10.3.1/../../../../arm-none-eabi/lib/thumb/v7e-m+fp/hard\libcr_nohost_nf.a(__sys_remove.o)
 .comment       0x00000049       0x4a c:/nxp/mcuxpressoide_11.7.0_9198/ide/plugins/com.nxp.mcuxpresso.tools.win32_11.7.0.202209140929/tools/bin/../lib/gcc/arm-none-eabi/10.3.1/../../../../arm-none-eabi/lib/thumb/v7e-m+fp/hard\libcr_nohost_nf.a(__sys_seek.o)
 .comment       0x00000049       0x4a c:/nxp/mcuxpressoide_11.7.0_9198/ide/plugins/com.nxp.mcuxpresso.tools.win32_11.7.0.202209140929/tools/bin/../lib/gcc/arm-none-eabi/10.3.1/../../../../arm-none-eabi/lib/thumb/v7e-m+fp/hard\libcr_nohost_nf.a(__sys_tmpnam.o)
 .comment       0x00000049       0x4a c:/nxp/mcuxpressoide_11.7.0_9198/ide/plugins/com.nxp.mcuxpresso.tools.win32_11.7.0.202209140929/tools/bin/../lib/gcc/arm-none-eabi/10.3.1/../../../../arm-none-eabi/lib/thumb/v7e-m+fp/hard\libcr_nohost_nf.a(__sys_write.o)

.ARM.attributes
                0x00000000       0x32
 .ARM.attributes
                0x00000000       0x34 ./xip/evkmimxrt1064_flexspi_nor_config.o
 .ARM.attributes
                0x00000034       0x34 ./xip/fsl_flexspi_nor_boot.o
 .ARM.attributes
                0x00000068       0x34 ./utilities/fsl_debug_console.o
 .ARM.attributes
                0x0000009c       0x34 ./usb/phy/usb_phy.o
 .ARM.attributes
                0x000000d0       0x34 ./usb/device/source/ehci/usb_device_ehci.o
 .ARM.attributes
                0x00000104       0x34 ./usb/device/source/usb_device_ch9.o
 .ARM.attributes
                0x00000138       0x34 ./usb/device/source/usb_device_dci.o
 .ARM.attributes
                0x0000016c       0x34 ./usb/device/class/hid/usb_device_hid.o
 .ARM.attributes
                0x000001a0       0x34 ./usb/device/class/usb_device_class.o
 .ARM.attributes
                0x000001d4       0x34 ./startup/startup_mimxrt1064.o
 .ARM.attributes
                0x00000208       0x34 ./source/Scan.o
 .ARM.attributes
                0x0000023c       0x34 ./source/adc.o
 .ARM.attributes
                0x00000270       0x34 ./source/app.o
 .ARM.attributes
                0x000002a4       0x34 ./source/backend_postp.o
 .ARM.attributes
                0x000002d8       0x34 ./source/bezier.o
 .ARM.attributes
                0x0000030c       0x34 ./source/composite.o
 .ARM.attributes
                0x00000340       0x34 ./source/dlt.o
 .ARM.attributes
                0x00000374       0x34 ./source/hid_generic.o
 .ARM.attributes
                0x000003a8       0x34 ./source/hid_mouse.o
 .ARM.attributes
                0x000003dc       0x34 ./source/pitch_table.o
 .ARM.attributes
                0x00000410       0x34 ./source/scan_table.o
 .ARM.attributes
                0x00000444       0x34 ./source/semihost_hardfault.o
 .ARM.attributes
                0x00000478       0x34 ./source/usb_device_descriptor.o
 .ARM.attributes
                0x000004ac       0x34 ./drivers/fsl_adc.o
 .ARM.attributes
                0x000004e0       0x34 ./drivers/fsl_clock.o
 .ARM.attributes
                0x00000514       0x34 ./drivers/fsl_gpio.o
 .ARM.attributes
                0x00000548       0x34 ./drivers/fsl_gpt.o
 .ARM.attributes
                0x0000057c       0x34 ./drivers/fsl_lpuart.o
 .ARM.attributes
                0x000005b0       0x34 ./drivers/fsl_qtmr.o
 .ARM.attributes
                0x000005e4       0x34 ./drivers/fsl_wdog.o
 .ARM.attributes
                0x00000618       0x34 ./drivers/fsl_xbara.o
 .ARM.attributes
                0x0000064c       0x34 ./device/system_MIMXRT1064.o
 .ARM.attributes
                0x00000680       0x34 ./component/uart/fsl_adapter_lpuart.o
 .ARM.attributes
                0x000006b4       0x34 ./component/serial_manager/fsl_component_serial_manager.o
 .ARM.attributes
                0x000006e8       0x34 ./component/serial_manager/fsl_component_serial_port_uart.o
 .ARM.attributes
                0x0000071c       0x34 ./component/osa/fsl_os_abstraction_bm.o
 .ARM.attributes
                0x00000750       0x34 ./board/board.o
 .ARM.attributes
                0x00000784       0x34 ./board/clock_config.o
 .ARM.attributes
                0x000007b8       0x34 ./board/peripherals.o
 .ARM.attributes
                0x000007ec       0x34 ./board/pin_mux.o
 .ARM.attributes
                0x00000820       0x34 D:\Project\21.IR_Touch\BE_FW\wmc-ctsi-0850-fe-be-app\lib/libbackend_irt650_nxp2.a(backend_main.o)
 .ARM.attributes
                0x00000854       0x34 D:\Project\21.IR_Touch\BE_FW\wmc-ctsi-0850-fe-be-app\lib/libbackend_irt650_nxp2.a(backend_multi.o)
 .ARM.attributes
                0x00000888       0x34 D:\Project\21.IR_Touch\BE_FW\wmc-ctsi-0850-fe-be-app\lib/libbackend_irt650_nxp2.a(backend_utils.o)
 .ARM.attributes
                0x000008bc       0x34 D:\Project\21.IR_Touch\BE_FW\wmc-ctsi-0850-fe-be-app\lib/libbackend_irt650_nxp2.a(IRTP_layout.o)
 .ARM.attributes
                0x000008f0       0x34 D:\Project\21.IR_Touch\BE_FW\wmc-ctsi-0850-fe-be-app\lib/libbackend_irt650_nxp2.a(backend_debug.o)
 .ARM.attributes
                0x00000924       0x34 D:\Project\21.IR_Touch\BE_FW\wmc-ctsi-0850-fe-be-app\lib/libbackend_irt650_nxp2.a(backend_fine.o)
 .ARM.attributes
                0x00000958       0x34 c:/nxp/mcuxpressoide_11.7.0_9198/ide/plugins/com.nxp.mcuxpresso.tools.win32_11.7.0.202209140929/tools/bin/../lib/gcc/arm-none-eabi/10.3.1/../../../../arm-none-eabi/lib/thumb/v7e-m+fp/hard\libcr_nohost_nf.a(_cr__main.o)
 .ARM.attributes
                0x0000098c       0x34 c:/nxp/mcuxpressoide_11.7.0_9198/ide/plugins/com.nxp.mcuxpresso.tools.win32_11.7.0.202209140929/tools/bin/../lib/gcc/arm-none-eabi/10.3.1/../../../../arm-none-eabi/lib/thumb/v7e-m+fp/hard\libcr_c.a(memcpy.o)
 .ARM.attributes
                0x000009c0       0x34 c:/nxp/mcuxpressoide_11.7.0_9198/ide/plugins/com.nxp.mcuxpresso.tools.win32_11.7.0.202209140929/tools/bin/../lib/gcc/arm-none-eabi/10.3.1/../../../../arm-none-eabi/lib/thumb/v7e-m+fp/hard\libcr_c.a(memset.o)
 .ARM.attributes
                0x000009f4       0x34 c:/nxp/mcuxpressoide_11.7.0_9198/ide/plugins/com.nxp.mcuxpresso.tools.win32_11.7.0.202209140929/tools/bin/../lib/gcc/arm-none-eabi/10.3.1/../../../../arm-none-eabi/lib/thumb/v7e-m+fp/hard\libcr_c.a(alloc.o)
 .ARM.attributes
                0x00000a28       0x34 c:/nxp/mcuxpressoide_11.7.0_9198/ide/plugins/com.nxp.mcuxpresso.tools.win32_11.7.0.202209140929/tools/bin/../lib/gcc/arm-none-eabi/10.3.1/../../../../arm-none-eabi/lib/thumb/v7e-m+fp/hard\libcr_c.a(errno.o)
 .ARM.attributes
                0x00000a5c       0x34 c:/nxp/mcuxpressoide_11.7.0_9198/ide/plugins/com.nxp.mcuxpresso.tools.win32_11.7.0.202209140929/tools/bin/../lib/gcc/arm-none-eabi/10.3.1/../../../../arm-none-eabi/lib/thumb/v7e-m+fp/hard\libcr_c.a(initio.o)
 .ARM.attributes
                0x00000a90       0x34 c:/nxp/mcuxpressoide_11.7.0_9198/ide/plugins/com.nxp.mcuxpresso.tools.win32_11.7.0.202209140929/tools/bin/../lib/gcc/arm-none-eabi/10.3.1/../../../../arm-none-eabi/lib/thumb/v7e-m+fp/hard\libcr_c.a(printf.o)
 .ARM.attributes
                0x00000ac4       0x34 c:/nxp/mcuxpressoide_11.7.0_9198/ide/plugins/com.nxp.mcuxpresso.tools.win32_11.7.0.202209140929/tools/bin/../lib/gcc/arm-none-eabi/10.3.1/../../../../arm-none-eabi/lib/thumb/v7e-m+fp/hard\libcr_c.a(scanf.o)
 .ARM.attributes
                0x00000af8       0x34 c:/nxp/mcuxpressoide_11.7.0_9198/ide/plugins/com.nxp.mcuxpresso.tools.win32_11.7.0.202209140929/tools/bin/../lib/gcc/arm-none-eabi/10.3.1/../../../../arm-none-eabi/lib/thumb/v7e-m+fp/hard\libcr_c.a(setvbuf.o)
 .ARM.attributes
                0x00000b2c       0x34 c:/nxp/mcuxpressoide_11.7.0_9198/ide/plugins/com.nxp.mcuxpresso.tools.win32_11.7.0.202209140929/tools/bin/../lib/gcc/arm-none-eabi/10.3.1/../../../../arm-none-eabi/lib/thumb/v7e-m+fp/hard\libcr_c.a(strchr.o)
 .ARM.attributes
                0x00000b60       0x34 c:/nxp/mcuxpressoide_11.7.0_9198/ide/plugins/com.nxp.mcuxpresso.tools.win32_11.7.0.202209140929/tools/bin/../lib/gcc/arm-none-eabi/10.3.1/../../../../arm-none-eabi/lib/thumb/v7e-m+fp/hard\libcr_c.a(strlen.o)
 .ARM.attributes
                0x00000b94       0x34 c:/nxp/mcuxpressoide_11.7.0_9198/ide/plugins/com.nxp.mcuxpresso.tools.win32_11.7.0.202209140929/tools/bin/../lib/gcc/arm-none-eabi/10.3.1/../../../../arm-none-eabi/lib/thumb/v7e-m+fp/hard\libcr_c.a(__init_alloc.o)
 .ARM.attributes
                0x00000bc8       0x34 c:/nxp/mcuxpressoide_11.7.0_9198/ide/plugins/com.nxp.mcuxpresso.tools.win32_11.7.0.202209140929/tools/bin/../lib/gcc/arm-none-eabi/10.3.1/../../../../arm-none-eabi/lib/thumb/v7e-m+fp/hard\libcr_c.a(_cr_sbrk.o)
 .ARM.attributes
                0x00000bfc       0x34 c:/nxp/mcuxpressoide_11.7.0_9198/ide/plugins/com.nxp.mcuxpresso.tools.win32_11.7.0.202209140929/tools/bin/../lib/gcc/arm-none-eabi/10.3.1/../../../../arm-none-eabi/lib/thumb/v7e-m+fp/hard\libcr_c.a(_deferredlazyseek.o)
 .ARM.attributes
                0x00000c30       0x34 c:/nxp/mcuxpressoide_11.7.0_9198/ide/plugins/com.nxp.mcuxpresso.tools.win32_11.7.0.202209140929/tools/bin/../lib/gcc/arm-none-eabi/10.3.1/../../../../arm-none-eabi/lib/thumb/v7e-m+fp/hard\libcr_c.a(_fdopen.o)
 .ARM.attributes
                0x00000c64       0x34 c:/nxp/mcuxpressoide_11.7.0_9198/ide/plugins/com.nxp.mcuxpresso.tools.win32_11.7.0.202209140929/tools/bin/../lib/gcc/arm-none-eabi/10.3.1/../../../../arm-none-eabi/lib/thumb/v7e-m+fp/hard\libcr_c.a(_fflush.o)
 .ARM.attributes
                0x00000c98       0x34 c:/nxp/mcuxpressoide_11.7.0_9198/ide/plugins/com.nxp.mcuxpresso.tools.win32_11.7.0.202209140929/tools/bin/../lib/gcc/arm-none-eabi/10.3.1/../../../../arm-none-eabi/lib/thumb/v7e-m+fp/hard\libcr_c.a(_writebuf.o)
 .ARM.attributes
                0x00000ccc       0x34 c:/nxp/mcuxpressoide_11.7.0_9198/ide/plugins/com.nxp.mcuxpresso.tools.win32_11.7.0.202209140929/tools/bin/../lib/gcc/arm-none-eabi/10.3.1/../../../../arm-none-eabi/lib/thumb/v7e-m+fp/hard\libcr_c.a(ctype.o)
 .ARM.attributes
                0x00000d00       0x34 c:/nxp/mcuxpressoide_11.7.0_9198/ide/plugins/com.nxp.mcuxpresso.tools.win32_11.7.0.202209140929/tools/bin/../lib/gcc/arm-none-eabi/10.3.1/../../../../arm-none-eabi/lib/thumb/v7e-m+fp/hard\libcr_c.a(fclose.o)
 .ARM.attributes
                0x00000d34       0x34 c:/nxp/mcuxpressoide_11.7.0_9198/ide/plugins/com.nxp.mcuxpresso.tools.win32_11.7.0.202209140929/tools/bin/../lib/gcc/arm-none-eabi/10.3.1/../../../../arm-none-eabi/lib/thumb/v7e-m+fp/hard\libcr_c.a(fflush.o)
 .ARM.attributes
                0x00000d68       0x34 c:/nxp/mcuxpressoide_11.7.0_9198/ide/plugins/com.nxp.mcuxpresso.tools.win32_11.7.0.202209140929/tools/bin/../lib/gcc/arm-none-eabi/10.3.1/../../../../arm-none-eabi/lib/thumb/v7e-m+fp/hard\libcr_c.a(fseek.o)
 .ARM.attributes
                0x00000d9c       0x34 c:/nxp/mcuxpressoide_11.7.0_9198/ide/plugins/com.nxp.mcuxpresso.tools.win32_11.7.0.202209140929/tools/bin/../lib/gcc/arm-none-eabi/10.3.1/../../../../arm-none-eabi/lib/thumb/v7e-m+fp/hard\libcr_c.a(ftell.o)
 .ARM.attributes
                0x00000dd0       0x34 c:/nxp/mcuxpressoide_11.7.0_9198/ide/plugins/com.nxp.mcuxpresso.tools.win32_11.7.0.202209140929/tools/bin/../lib/gcc/arm-none-eabi/10.3.1/../../../../arm-none-eabi/lib/thumb/v7e-m+fp/hard\libcr_c.a(remove.o)
 .ARM.attributes
                0x00000e04       0x34 c:/nxp/mcuxpressoide_11.7.0_9198/ide/plugins/com.nxp.mcuxpresso.tools.win32_11.7.0.202209140929/tools/bin/../lib/gcc/arm-none-eabi/10.3.1/../../../../arm-none-eabi/lib/thumb/v7e-m+fp/hard\libcr_c.a(_cr_check_heap.o)
 .ARM.attributes
                0x00000e38       0x34 c:/nxp/mcuxpressoide_11.7.0_9198/ide/plugins/com.nxp.mcuxpresso.tools.win32_11.7.0.202209140929/tools/bin/../lib/gcc/arm-none-eabi/10.3.1/../../../../arm-none-eabi/lib/thumb/v7e-m+fp/hard\libcr_c.a(_do_fflush.o)
 .ARM.attributes
                0x00000e6c       0x20 c:/nxp/mcuxpressoide_11.7.0_9198/ide/plugins/com.nxp.mcuxpresso.tools.win32_11.7.0.202209140929/tools/bin/../lib/gcc/arm-none-eabi/10.3.1/thumb/v7e-m+fp/hard\libcr_eabihelpers.a(division_64.o)
 .ARM.attributes
                0x00000e8c       0x20 c:/nxp/mcuxpressoide_11.7.0_9198/ide/plugins/com.nxp.mcuxpresso.tools.win32_11.7.0.202209140929/tools/bin/../lib/gcc/arm-none-eabi/10.3.1/thumb/v7e-m+fp/hard\libcr_eabihelpers.a(division_idiv0.o)
 .ARM.attributes
                0x00000eac       0x34 c:/nxp/mcuxpressoide_11.7.0_9198/ide/plugins/com.nxp.mcuxpresso.tools.win32_11.7.0.202209140929/tools/bin/../lib/gcc/arm-none-eabi/10.3.1/thumb/v7e-m+fp/hard\libcr_eabihelpers.a(double.o)
 .ARM.attributes
                0x00000ee0       0x20 c:/nxp/mcuxpressoide_11.7.0_9198/ide/plugins/com.nxp.mcuxpresso.tools.win32_11.7.0.202209140929/tools/bin/../lib/gcc/arm-none-eabi/10.3.1/thumb/v7e-m+fp/hard\libcr_eabihelpers.a(memcpy.o)
 .ARM.attributes
                0x00000f00       0x34 c:/nxp/mcuxpressoide_11.7.0_9198/ide/plugins/com.nxp.mcuxpresso.tools.win32_11.7.0.202209140929/tools/bin/../lib/gcc/arm-none-eabi/10.3.1/../../../../arm-none-eabi/lib/thumb/v7e-m+fp/hard\libcr_nohost_nf.a(__ciob.o)
 .ARM.attributes
                0x00000f34       0x34 c:/nxp/mcuxpressoide_11.7.0_9198/ide/plugins/com.nxp.mcuxpresso.tools.win32_11.7.0.202209140929/tools/bin/../lib/gcc/arm-none-eabi/10.3.1/../../../../arm-none-eabi/lib/thumb/v7e-m+fp/hard\libcr_nohost_nf.a(__sys_appexit.o)
 .ARM.attributes
                0x00000f68       0x34 c:/nxp/mcuxpressoide_11.7.0_9198/ide/plugins/com.nxp.mcuxpresso.tools.win32_11.7.0.202209140929/tools/bin/../lib/gcc/arm-none-eabi/10.3.1/../../../../arm-none-eabi/lib/thumb/v7e-m+fp/hard\libcr_nohost_nf.a(__sys_close.o)
 .ARM.attributes
                0x00000f9c       0x34 c:/nxp/mcuxpressoide_11.7.0_9198/ide/plugins/com.nxp.mcuxpresso.tools.win32_11.7.0.202209140929/tools/bin/../lib/gcc/arm-none-eabi/10.3.1/../../../../arm-none-eabi/lib/thumb/v7e-m+fp/hard\libcr_nohost_nf.a(__sys_flen.o)
 .ARM.attributes
                0x00000fd0       0x34 c:/nxp/mcuxpressoide_11.7.0_9198/ide/plugins/com.nxp.mcuxpresso.tools.win32_11.7.0.202209140929/tools/bin/../lib/gcc/arm-none-eabi/10.3.1/../../../../arm-none-eabi/lib/thumb/v7e-m+fp/hard\libcr_nohost_nf.a(__sys_istty.o)
 .ARM.attributes
                0x00001004       0x34 c:/nxp/mcuxpressoide_11.7.0_9198/ide/plugins/com.nxp.mcuxpresso.tools.win32_11.7.0.202209140929/tools/bin/../lib/gcc/arm-none-eabi/10.3.1/../../../../arm-none-eabi/lib/thumb/v7e-m+fp/hard\libcr_nohost_nf.a(__sys_remove.o)
 .ARM.attributes
                0x00001038       0x34 c:/nxp/mcuxpressoide_11.7.0_9198/ide/plugins/com.nxp.mcuxpresso.tools.win32_11.7.0.202209140929/tools/bin/../lib/gcc/arm-none-eabi/10.3.1/../../../../arm-none-eabi/lib/thumb/v7e-m+fp/hard\libcr_nohost_nf.a(__sys_seek.o)
 .ARM.attributes
                0x0000106c       0x34 c:/nxp/mcuxpressoide_11.7.0_9198/ide/plugins/com.nxp.mcuxpresso.tools.win32_11.7.0.202209140929/tools/bin/../lib/gcc/arm-none-eabi/10.3.1/../../../../arm-none-eabi/lib/thumb/v7e-m+fp/hard\libcr_nohost_nf.a(__sys_tmpnam.o)
 .ARM.attributes
                0x000010a0       0x34 c:/nxp/mcuxpressoide_11.7.0_9198/ide/plugins/com.nxp.mcuxpresso.tools.win32_11.7.0.202209140929/tools/bin/../lib/gcc/arm-none-eabi/10.3.1/../../../../arm-none-eabi/lib/thumb/v7e-m+fp/hard\libcr_nohost_nf.a(__sys_write.o)

.debug_loc      0x00000000    0x5d4e4
 .debug_loc     0x00000000      0xd8e ./utilities/fsl_debug_console.o
 .debug_loc     0x00000d8e      0x42e ./usb/phy/usb_phy.o
 .debug_loc     0x000011bc     0x2148 ./usb/device/source/ehci/usb_device_ehci.o
 .debug_loc     0x00003304     0x1112 ./usb/device/source/usb_device_ch9.o
 .debug_loc     0x00004416     0x2fdd ./usb/device/source/usb_device_dci.o
 .debug_loc     0x000073f3     0x13f0 ./usb/device/class/hid/usb_device_hid.o
 .debug_loc     0x000087e3      0xa9e ./usb/device/class/usb_device_class.o
 .debug_loc     0x00009281      0x7e0 ./startup/startup_mimxrt1064.o
 .debug_loc     0x00009a61     0x848f ./source/Scan.o
 .debug_loc     0x00011ef0       0xc0 ./source/adc.o
 .debug_loc     0x00011fb0     0x4a42 ./source/app.o
 .debug_loc     0x000169f2     0x4a0a ./source/backend_postp.o
 .debug_loc     0x0001b3fc       0xfe ./source/bezier.o
 .debug_loc     0x0001b4fa      0x946 ./source/composite.o
 .debug_loc     0x0001be40     0x2360 ./source/dlt.o
 .debug_loc     0x0001e1a0      0x387 ./source/hid_generic.o
 .debug_loc     0x0001e527      0x262 ./source/hid_mouse.o
 .debug_loc     0x0001e789      0x1d7 ./source/usb_device_descriptor.o
 .debug_loc     0x0001e960      0x5b9 ./drivers/fsl_adc.o
 .debug_loc     0x0001ef19     0x52a0 ./drivers/fsl_clock.o
 .debug_loc     0x000241b9      0x59e ./drivers/fsl_gpio.o
 .debug_loc     0x00024757      0x30d ./drivers/fsl_gpt.o
 .debug_loc     0x00024a64     0x2a07 ./drivers/fsl_lpuart.o
 .debug_loc     0x0002746b      0xdae ./drivers/fsl_qtmr.o
 .debug_loc     0x00028219      0x309 ./drivers/fsl_wdog.o
 .debug_loc     0x00028522      0x452 ./drivers/fsl_xbara.o
 .debug_loc     0x00028974       0xce ./device/system_MIMXRT1064.o
 .debug_loc     0x00028a42      0x307 ./component/uart/fsl_adapter_lpuart.o
 .debug_loc     0x00028d49      0xc3b ./component/serial_manager/fsl_component_serial_manager.o
 .debug_loc     0x00029984      0x275 ./component/serial_manager/fsl_component_serial_port_uart.o
 .debug_loc     0x00029bf9     0x1418 ./component/osa/fsl_os_abstraction_bm.o
 .debug_loc     0x0002b011      0x18d ./board/board.o
 .debug_loc     0x0002b19e     0x5a92 ./board/clock_config.o
 .debug_loc     0x00030c30      0x165 ./board/peripherals.o
 .debug_loc     0x00030d95     0x2358 ./board/pin_mux.o
 .debug_loc     0x000330ed     0x4780 D:\Project\21.IR_Touch\BE_FW\wmc-ctsi-0850-fe-be-app\lib/libbackend_irt650_nxp2.a(backend_main.o)
 .debug_loc     0x0003786d     0xadc7 D:\Project\21.IR_Touch\BE_FW\wmc-ctsi-0850-fe-be-app\lib/libbackend_irt650_nxp2.a(backend_multi.o)
 .debug_loc     0x00042634     0x8b94 D:\Project\21.IR_Touch\BE_FW\wmc-ctsi-0850-fe-be-app\lib/libbackend_irt650_nxp2.a(backend_utils.o)
 .debug_loc     0x0004b1c8    0x1231c D:\Project\21.IR_Touch\BE_FW\wmc-ctsi-0850-fe-be-app\lib/libbackend_irt650_nxp2.a(backend_fine.o)

.debug_ranges   0x00000000     0xa6e8
 .debug_ranges  0x00000000      0x268 ./utilities/fsl_debug_console.o
 .debug_ranges  0x00000268       0xf0 ./usb/phy/usb_phy.o
 .debug_ranges  0x00000358      0x1e8 ./usb/device/source/ehci/usb_device_ehci.o
 .debug_ranges  0x00000540       0xc8 ./usb/device/source/usb_device_ch9.o
 .debug_ranges  0x00000608      0x3e8 ./usb/device/source/usb_device_dci.o
 .debug_ranges  0x000009f0      0x1e8 ./usb/device/class/hid/usb_device_hid.o
 .debug_ranges  0x00000bd8      0x1d8 ./usb/device/class/usb_device_class.o
 .debug_ranges  0x00000db0      0x5a0 ./startup/startup_mimxrt1064.o
 .debug_ranges  0x00001350      0xbc8 ./source/Scan.o
 .debug_ranges  0x00001f18       0x70 ./source/adc.o
 .debug_ranges  0x00001f88      0xea8 ./source/app.o
 .debug_ranges  0x00002e30      0x400 ./source/backend_postp.o
 .debug_ranges  0x00003230       0x18 ./source/bezier.o
 .debug_ranges  0x00003248       0x78 ./source/composite.o
 .debug_ranges  0x000032c0      0x380 ./source/dlt.o
 .debug_ranges  0x00003640       0x50 ./source/hid_generic.o
 .debug_ranges  0x00003690       0xa8 ./source/hid_mouse.o
 .debug_ranges  0x00003738       0x10 ./source/semihost_hardfault.o
 .debug_ranges  0x00003748       0x60 ./source/usb_device_descriptor.o
 .debug_ranges  0x000037a8      0x158 ./drivers/fsl_adc.o
 .debug_ranges  0x00003900     0x1610 ./drivers/fsl_clock.o
 .debug_ranges  0x00004f10       0x98 ./drivers/fsl_gpio.o
 .debug_ranges  0x00004fa8      0x108 ./drivers/fsl_gpt.o
 .debug_ranges  0x000050b0      0x5f8 ./drivers/fsl_lpuart.o
 .debug_ranges  0x000056a8      0x148 ./drivers/fsl_qtmr.o
 .debug_ranges  0x000057f0       0xd0 ./drivers/fsl_wdog.o
 .debug_ranges  0x000058c0       0xd8 ./drivers/fsl_xbara.o
 .debug_ranges  0x00005998       0x20 ./device/system_MIMXRT1064.o
 .debug_ranges  0x000059b8       0x88 ./component/uart/fsl_adapter_lpuart.o
 .debug_ranges  0x00005a40      0x1e8 ./component/serial_manager/fsl_component_serial_manager.o
 .debug_ranges  0x00005c28       0x38 ./component/serial_manager/fsl_component_serial_port_uart.o
 .debug_ranges  0x00005c60      0x498 ./component/osa/fsl_os_abstraction_bm.o
 .debug_ranges  0x000060f8       0xd0 ./board/board.o
 .debug_ranges  0x000061c8     0x12f0 ./board/clock_config.o
 .debug_ranges  0x000074b8      0x1b8 ./board/peripherals.o
 .debug_ranges  0x00007670      0x1c0 ./board/pin_mux.o
 .debug_ranges  0x00007830      0x348 D:\Project\21.IR_Touch\BE_FW\wmc-ctsi-0850-fe-be-app\lib/libbackend_irt650_nxp2.a(backend_main.o)
 .debug_ranges  0x00007b78      0xd88 D:\Project\21.IR_Touch\BE_FW\wmc-ctsi-0850-fe-be-app\lib/libbackend_irt650_nxp2.a(backend_multi.o)
 .debug_ranges  0x00008900      0x7c0 D:\Project\21.IR_Touch\BE_FW\wmc-ctsi-0850-fe-be-app\lib/libbackend_irt650_nxp2.a(backend_utils.o)
 .debug_ranges  0x000090c0     0x1628 D:\Project\21.IR_Touch\BE_FW\wmc-ctsi-0850-fe-be-app\lib/libbackend_irt650_nxp2.a(backend_fine.o)

.debug_frame    0x00000000     0x5388
 .debug_frame   0x00000000      0x280 ./utilities/fsl_debug_console.o
 .debug_frame   0x00000280       0xc8 ./usb/phy/usb_phy.o
 .debug_frame   0x00000348      0x208 ./usb/device/source/ehci/usb_device_ehci.o
 .debug_frame   0x00000550      0x1f4 ./usb/device/source/usb_device_ch9.o
 .debug_frame   0x00000744      0x26c ./usb/device/source/usb_device_dci.o
 .debug_frame   0x000009b0      0x180 ./usb/device/class/hid/usb_device_hid.o
 .debug_frame   0x00000b30      0x13c ./usb/device/class/usb_device_class.o
 .debug_frame   0x00000c6c      0xfd0 ./startup/startup_mimxrt1064.o
 .debug_frame   0x00001c3c      0x5f0 ./source/Scan.o
 .debug_frame   0x0000222c       0x64 ./source/adc.o
 .debug_frame   0x00002290      0x408 ./source/app.o
 .debug_frame   0x00002698      0x364 ./source/backend_postp.o
 .debug_frame   0x000029fc       0x30 ./source/bezier.o
 .debug_frame   0x00002a2c      0x114 ./source/composite.o
 .debug_frame   0x00002b40      0x1ac ./source/dlt.o
 .debug_frame   0x00002cec       0x9c ./source/hid_generic.o
 .debug_frame   0x00002d88       0x94 ./source/hid_mouse.o
 .debug_frame   0x00002e1c       0x20 ./source/semihost_hardfault.o
 .debug_frame   0x00002e3c       0xa0 ./source/usb_device_descriptor.o
 .debug_frame   0x00002edc       0xc8 ./drivers/fsl_adc.o
 .debug_frame   0x00002fa4      0x410 ./drivers/fsl_clock.o
 .debug_frame   0x000033b4       0x78 ./drivers/fsl_gpio.o
 .debug_frame   0x0000342c       0x58 ./drivers/fsl_gpt.o
 .debug_frame   0x00003484      0x38c ./drivers/fsl_lpuart.o
 .debug_frame   0x00003810      0x170 ./drivers/fsl_qtmr.o
 .debug_frame   0x00003980       0x80 ./drivers/fsl_wdog.o
 .debug_frame   0x00003a00       0x8c ./drivers/fsl_xbara.o
 .debug_frame   0x00003a8c       0x54 ./device/system_MIMXRT1064.o
 .debug_frame   0x00003ae0       0xa0 ./component/uart/fsl_adapter_lpuart.o
 .debug_frame   0x00003b80      0x10c ./component/serial_manager/fsl_component_serial_manager.o
 .debug_frame   0x00003c8c       0x88 ./component/serial_manager/fsl_component_serial_port_uart.o
 .debug_frame   0x00003d14      0x2ac ./component/osa/fsl_os_abstraction_bm.o
 .debug_frame   0x00003fc0       0x68 ./board/board.o
 .debug_frame   0x00004028       0x58 ./board/clock_config.o
 .debug_frame   0x00004080       0x48 ./board/peripherals.o
 .debug_frame   0x000040c8       0xcc ./board/pin_mux.o
 .debug_frame   0x00004194      0x288 D:\Project\21.IR_Touch\BE_FW\wmc-ctsi-0850-fe-be-app\lib/libbackend_irt650_nxp2.a(backend_main.o)
 .debug_frame   0x0000441c      0x468 D:\Project\21.IR_Touch\BE_FW\wmc-ctsi-0850-fe-be-app\lib/libbackend_irt650_nxp2.a(backend_multi.o)
 .debug_frame   0x00004884      0x3b0 D:\Project\21.IR_Touch\BE_FW\wmc-ctsi-0850-fe-be-app\lib/libbackend_irt650_nxp2.a(backend_utils.o)
 .debug_frame   0x00004c34      0x754 D:\Project\21.IR_Touch\BE_FW\wmc-ctsi-0850-fe-be-app\lib/libbackend_irt650_nxp2.a(backend_fine.o)

Cross Reference Table

Symbol                                            File
ACMP1_DriverIRQHandler                            ./startup/startup_mimxrt1064.o
ACMP1_IRQHandler                                  ./startup/startup_mimxrt1064.o
ACMP2_DriverIRQHandler                            ./startup/startup_mimxrt1064.o
ACMP2_IRQHandler                                  ./startup/startup_mimxrt1064.o
ACMP3_DriverIRQHandler                            ./startup/startup_mimxrt1064.o
ACMP3_IRQHandler                                  ./startup/startup_mimxrt1064.o
ACMP4_DriverIRQHandler                            ./startup/startup_mimxrt1064.o
ACMP4_IRQHandler                                  ./startup/startup_mimxrt1064.o
ADC1_DriverIRQHandler                             ./startup/startup_mimxrt1064.o
ADC1_IRQHandler                                   ./startup/startup_mimxrt1064.o
ADC2_DriverIRQHandler                             ./startup/startup_mimxrt1064.o
ADC2_IRQHandler                                   ./startup/startup_mimxrt1064.o
ADC_ClearStatusFlags                              ./drivers/fsl_adc.o
ADC_Conversion_State_Flag                         ./source/adc.o
ADC_Deinit                                        ./drivers/fsl_adc.o
ADC_DoAutoCalibration                             ./drivers/fsl_adc.o
                                                  ./board/peripherals.o
ADC_ETC_ERROR_IRQ_DriverIRQHandler                ./startup/startup_mimxrt1064.o
ADC_ETC_ERROR_IRQ_IRQHandler                      ./startup/startup_mimxrt1064.o
ADC_ETC_IRQ0_DriverIRQHandler                     ./startup/startup_mimxrt1064.o
ADC_ETC_IRQ0_IRQHandler                           ./startup/startup_mimxrt1064.o
ADC_ETC_IRQ1_DriverIRQHandler                     ./startup/startup_mimxrt1064.o
ADC_ETC_IRQ1_IRQHandler                           ./startup/startup_mimxrt1064.o
ADC_ETC_IRQ2_DriverIRQHandler                     ./startup/startup_mimxrt1064.o
ADC_ETC_IRQ2_IRQHandler                           ./startup/startup_mimxrt1064.o
ADC_GetDefaultConfig                              ./drivers/fsl_adc.o
ADC_Init                                          ./drivers/fsl_adc.o
                                                  ./board/peripherals.o
ADC_SamplesRead                                   ./source/adc.o
ADC_SamplesStart                                  ./source/adc.o
                                                  ./source/Scan.o
ADC_SamplesStop                                   ./source/adc.o
                                                  ./source/Scan.o
ADC_SetChannelConfig                              ./drivers/fsl_adc.o
                                                  ./source/adc.o
ADC_SetHardwareAverageConfig                      ./drivers/fsl_adc.o
ADC_SetHardwareCompareConfig                      ./drivers/fsl_adc.o
ADC_SetOffsetConfig                               ./drivers/fsl_adc.o
AES_ECB_decrypt                                   ./source/aes.o
AES_ECB_encrypt                                   ./source/aes.o
AES_init_ctx                                      ./source/aes.o
APP_Init                                          ./source/app.o
APP_Tasks                                         ./source/app.o
BEE_DriverIRQHandler                              ./startup/startup_mimxrt1064.o
BEE_IRQHandler                                    ./startup/startup_mimxrt1064.o
BG_calDistSquare                                  D:\Project\21.IR_Touch\BE_FW\wmc-ctsi-0850-fe-be-app\lib/libbackend_irt650_nxp2.a(backend_utils.o)
                                                  D:\Project\21.IR_Touch\BE_FW\wmc-ctsi-0850-fe-be-app\lib/libbackend_irt650_nxp2.a(backend_fine.o)
                                                  D:\Project\21.IR_Touch\BE_FW\wmc-ctsi-0850-fe-be-app\lib/libbackend_irt650_nxp2.a(backend_multi.o)
BG_call_backend2                                  D:\Project\21.IR_Touch\BE_FW\wmc-ctsi-0850-fe-be-app\lib/libbackend_irt650_nxp2.a(backend_main.o)
                                                  ./source/app.o
BG_clipping_fine5                                 D:\Project\21.IR_Touch\BE_FW\wmc-ctsi-0850-fe-be-app\lib/libbackend_irt650_nxp2.a(backend_fine.o)
                                                  D:\Project\21.IR_Touch\BE_FW\wmc-ctsi-0850-fe-be-app\lib/libbackend_irt650_nxp2.a(backend_main.o)
BG_clipping_multi                                 D:\Project\21.IR_Touch\BE_FW\wmc-ctsi-0850-fe-be-app\lib/libbackend_irt650_nxp2.a(backend_multi.o)
                                                  D:\Project\21.IR_Touch\BE_FW\wmc-ctsi-0850-fe-be-app\lib/libbackend_irt650_nxp2.a(backend_main.o)
BG_clipping_multi_initial4                        D:\Project\21.IR_Touch\BE_FW\wmc-ctsi-0850-fe-be-app\lib/libbackend_irt650_nxp2.a(backend_multi.o)
                                                  D:\Project\21.IR_Touch\BE_FW\wmc-ctsi-0850-fe-be-app\lib/libbackend_irt650_nxp2.a(backend_main.o)
BG_clipping_multi_post                            D:\Project\21.IR_Touch\BE_FW\wmc-ctsi-0850-fe-be-app\lib/libbackend_irt650_nxp2.a(backend_multi.o)
                                                  D:\Project\21.IR_Touch\BE_FW\wmc-ctsi-0850-fe-be-app\lib/libbackend_irt650_nxp2.a(backend_main.o)
BG_debug_flag                                     D:\Project\21.IR_Touch\BE_FW\wmc-ctsi-0850-fe-be-app\lib/libbackend_irt650_nxp2.a(backend_main.o)
BG_debug_flag2                                    D:\Project\21.IR_Touch\BE_FW\wmc-ctsi-0850-fe-be-app\lib/libbackend_irt650_nxp2.a(backend_main.o)
BG_debug_misc                                     D:\Project\21.IR_Touch\BE_FW\wmc-ctsi-0850-fe-be-app\lib/libbackend_irt650_nxp2.a(backend_main.o)
BG_debug_pause                                    D:\Project\21.IR_Touch\BE_FW\wmc-ctsi-0850-fe-be-app\lib/libbackend_irt650_nxp2.a(backend_main.o)
BG_edge_pattern                                   D:\Project\21.IR_Touch\BE_FW\wmc-ctsi-0850-fe-be-app\lib/libbackend_irt650_nxp2.a(backend_multi.o)
                                                  D:\Project\21.IR_Touch\BE_FW\wmc-ctsi-0850-fe-be-app\lib/libbackend_irt650_nxp2.a(backend_main.o)
BG_edge_pattern_cnt_x                             D:\Project\21.IR_Touch\BE_FW\wmc-ctsi-0850-fe-be-app\lib/libbackend_irt650_nxp2.a(backend_multi.o)
                                                  D:\Project\21.IR_Touch\BE_FW\wmc-ctsi-0850-fe-be-app\lib/libbackend_irt650_nxp2.a(backend_main.o)
BG_edge_pattern_cnt_y                             D:\Project\21.IR_Touch\BE_FW\wmc-ctsi-0850-fe-be-app\lib/libbackend_irt650_nxp2.a(backend_multi.o)
                                                  D:\Project\21.IR_Touch\BE_FW\wmc-ctsi-0850-fe-be-app\lib/libbackend_irt650_nxp2.a(backend_main.o)
BG_edge_pattern_dz                                D:\Project\21.IR_Touch\BE_FW\wmc-ctsi-0850-fe-be-app\lib/libbackend_irt650_nxp2.a(backend_multi.o)
BG_edge_pattern_virtual_cnt                       D:\Project\21.IR_Touch\BE_FW\wmc-ctsi-0850-fe-be-app\lib/libbackend_irt650_nxp2.a(backend_multi.o)
BG_epaInit                                        D:\Project\21.IR_Touch\BE_FW\wmc-ctsi-0850-fe-be-app\lib/libbackend_irt650_nxp2.a(backend_multi.o)
                                                  D:\Project\21.IR_Touch\BE_FW\wmc-ctsi-0850-fe-be-app\lib/libbackend_irt650_nxp2.a(backend_main.o)
BG_frame_no                                       D:\Project\21.IR_Touch\BE_FW\wmc-ctsi-0850-fe-be-app\lib/libbackend_irt650_nxp2.a(backend_main.o)
BG_init_backend                                   D:\Project\21.IR_Touch\BE_FW\wmc-ctsi-0850-fe-be-app\lib/libbackend_irt650_nxp2.a(backend_main.o)
                                                  ./source/app.o
BG_multi_fine                                     D:\Project\21.IR_Touch\BE_FW\wmc-ctsi-0850-fe-be-app\lib/libbackend_irt650_nxp2.a(backend_main.o)
                                                  D:\Project\21.IR_Touch\BE_FW\wmc-ctsi-0850-fe-be-app\lib/libbackend_irt650_nxp2.a(backend_fine.o)
                                                  D:\Project\21.IR_Touch\BE_FW\wmc-ctsi-0850-fe-be-app\lib/libbackend_irt650_nxp2.a(backend_multi.o)
BG_show_debug                                     D:\Project\21.IR_Touch\BE_FW\wmc-ctsi-0850-fe-be-app\lib/libbackend_irt650_nxp2.a(backend_main.o)
BG_show_debug_max                                 D:\Project\21.IR_Touch\BE_FW\wmc-ctsi-0850-fe-be-app\lib/libbackend_irt650_nxp2.a(backend_main.o)
BG_show_ep                                        D:\Project\21.IR_Touch\BE_FW\wmc-ctsi-0850-fe-be-app\lib/libbackend_irt650_nxp2.a(backend_main.o)
BG_show_line_all                                  D:\Project\21.IR_Touch\BE_FW\wmc-ctsi-0850-fe-be-app\lib/libbackend_irt650_nxp2.a(backend_main.o)
BG_show_line_init                                 D:\Project\21.IR_Touch\BE_FW\wmc-ctsi-0850-fe-be-app\lib/libbackend_irt650_nxp2.a(backend_main.o)
BG_show_line_rem                                  D:\Project\21.IR_Touch\BE_FW\wmc-ctsi-0850-fe-be-app\lib/libbackend_irt650_nxp2.a(backend_main.o)
BG_show_line_th10                                 D:\Project\21.IR_Touch\BE_FW\wmc-ctsi-0850-fe-be-app\lib/libbackend_irt650_nxp2.a(backend_main.o)
BG_show_line_x                                    D:\Project\21.IR_Touch\BE_FW\wmc-ctsi-0850-fe-be-app\lib/libbackend_irt650_nxp2.a(backend_main.o)
BG_show_line_y                                    D:\Project\21.IR_Touch\BE_FW\wmc-ctsi-0850-fe-be-app\lib/libbackend_irt650_nxp2.a(backend_main.o)
BG_touch_area                                     D:\Project\21.IR_Touch\BE_FW\wmc-ctsi-0850-fe-be-app\lib/libbackend_irt650_nxp2.a(backend_main.o)
                                                  D:\Project\21.IR_Touch\BE_FW\wmc-ctsi-0850-fe-be-app\lib/libbackend_irt650_nxp2.a(backend_fine.o)
                                                  D:\Project\21.IR_Touch\BE_FW\wmc-ctsi-0850-fe-be-app\lib/libbackend_irt650_nxp2.a(backend_multi.o)
BG_touch_count                                    D:\Project\21.IR_Touch\BE_FW\wmc-ctsi-0850-fe-be-app\lib/libbackend_irt650_nxp2.a(backend_main.o)
                                                  D:\Project\21.IR_Touch\BE_FW\wmc-ctsi-0850-fe-be-app\lib/libbackend_irt650_nxp2.a(backend_fine.o)
                                                  D:\Project\21.IR_Touch\BE_FW\wmc-ctsi-0850-fe-be-app\lib/libbackend_irt650_nxp2.a(backend_utils.o)
                                                  D:\Project\21.IR_Touch\BE_FW\wmc-ctsi-0850-fe-be-app\lib/libbackend_irt650_nxp2.a(backend_multi.o)
BG_touch_count_fine                               D:\Project\21.IR_Touch\BE_FW\wmc-ctsi-0850-fe-be-app\lib/libbackend_irt650_nxp2.a(backend_main.o)
                                                  D:\Project\21.IR_Touch\BE_FW\wmc-ctsi-0850-fe-be-app\lib/libbackend_irt650_nxp2.a(backend_fine.o)
BG_touch_count_multi                              D:\Project\21.IR_Touch\BE_FW\wmc-ctsi-0850-fe-be-app\lib/libbackend_irt650_nxp2.a(backend_main.o)
                                                  D:\Project\21.IR_Touch\BE_FW\wmc-ctsi-0850-fe-be-app\lib/libbackend_irt650_nxp2.a(backend_multi.o)
BG_touch_data                                     D:\Project\21.IR_Touch\BE_FW\wmc-ctsi-0850-fe-be-app\lib/libbackend_irt650_nxp2.a(backend_main.o)
                                                  D:\Project\21.IR_Touch\BE_FW\wmc-ctsi-0850-fe-be-app\lib/libbackend_irt650_nxp2.a(backend_fine.o)
                                                  D:\Project\21.IR_Touch\BE_FW\wmc-ctsi-0850-fe-be-app\lib/libbackend_irt650_nxp2.a(backend_utils.o)
                                                  D:\Project\21.IR_Touch\BE_FW\wmc-ctsi-0850-fe-be-app\lib/libbackend_irt650_nxp2.a(backend_multi.o)
BG_touch_data_edge                                D:\Project\21.IR_Touch\BE_FW\wmc-ctsi-0850-fe-be-app\lib/libbackend_irt650_nxp2.a(backend_main.o)
                                                  D:\Project\21.IR_Touch\BE_FW\wmc-ctsi-0850-fe-be-app\lib/libbackend_irt650_nxp2.a(backend_fine.o)
                                                  D:\Project\21.IR_Touch\BE_FW\wmc-ctsi-0850-fe-be-app\lib/libbackend_irt650_nxp2.a(backend_utils.o)
                                                  D:\Project\21.IR_Touch\BE_FW\wmc-ctsi-0850-fe-be-app\lib/libbackend_irt650_nxp2.a(backend_multi.o)
BG_touch_lineCnt                                  D:\Project\21.IR_Touch\BE_FW\wmc-ctsi-0850-fe-be-app\lib/libbackend_irt650_nxp2.a(backend_main.o)
                                                  D:\Project\21.IR_Touch\BE_FW\wmc-ctsi-0850-fe-be-app\lib/libbackend_irt650_nxp2.a(backend_fine.o)
                                                  D:\Project\21.IR_Touch\BE_FW\wmc-ctsi-0850-fe-be-app\lib/libbackend_irt650_nxp2.a(backend_multi.o)
BG_touch_misc                                     D:\Project\21.IR_Touch\BE_FW\wmc-ctsi-0850-fe-be-app\lib/libbackend_irt650_nxp2.a(backend_main.o)
BG_touch_size                                     D:\Project\21.IR_Touch\BE_FW\wmc-ctsi-0850-fe-be-app\lib/libbackend_irt650_nxp2.a(backend_main.o)
                                                  D:\Project\21.IR_Touch\BE_FW\wmc-ctsi-0850-fe-be-app\lib/libbackend_irt650_nxp2.a(backend_fine.o)
                                                  D:\Project\21.IR_Touch\BE_FW\wmc-ctsi-0850-fe-be-app\lib/libbackend_irt650_nxp2.a(backend_utils.o)
                                                  D:\Project\21.IR_Touch\BE_FW\wmc-ctsi-0850-fe-be-app\lib/libbackend_irt650_nxp2.a(backend_multi.o)
BOARD_ADC1_channels_config                        ./board/peripherals.o
                                                  ./source/adc.o
BOARD_ADC1_config                                 ./board/peripherals.o
BOARD_ADC2_channels_config                        ./board/peripherals.o
                                                  ./source/adc.o
BOARD_ADC2_config                                 ./board/peripherals.o
BOARD_BootClockRUN                                ./board/clock_config.o
                                                  ./source/app.o
BOARD_BootClockRUN_528M                           ./board/clock_config.o
BOARD_ConfigMPU                                   ./board/board.o
                                                  ./source/app.o
BOARD_DebugConsoleSrcFreq                         ./board/board.o
BOARD_GPT1_config                                 ./board/peripherals.o
BOARD_GPT2_config                                 ./board/peripherals.o
BOARD_InitBootClocks                              ./board/clock_config.o
BOARD_InitBootPeripherals                         ./board/peripherals.o
                                                  ./source/app.o
BOARD_InitBootPins                                ./board/pin_mux.o
BOARD_InitCAN                                     ./board/pin_mux.o
BOARD_InitCSI                                     ./board/pin_mux.o
BOARD_InitDEBUG_UART                              ./board/pin_mux.o
BOARD_InitDebugConsole                            ./board/board.o
                                                  ./source/app.o
BOARD_InitENET                                    ./board/pin_mux.o
BOARD_InitHyperFlash                              ./board/pin_mux.o
BOARD_InitLCD                                     ./board/pin_mux.o
BOARD_InitPeripherals                             ./board/peripherals.o
BOARD_InitPins                                    ./board/pin_mux.o
                                                  ./source/app.o
BOARD_InitSDRAM                                   ./board/pin_mux.o
BOARD_InitUSDHC                                   ./board/pin_mux.o
BOARD_LPUART1_config                              ./board/peripherals.o
BOARD_TMR1_Channel_0_config                       ./board/peripherals.o
BOARD_TMR2_Channel_3_config                       ./board/peripherals.o
BOARD_TMR3_Channel_0_config                       ./board/peripherals.o
BOARD_TMR4_Channel_3_config                       ./board/peripherals.o
BOARD_WDOG1_config                                ./board/peripherals.o
BS_3point_angle                                   D:\Project\21.IR_Touch\BE_FW\wmc-ctsi-0850-fe-be-app\lib/libbackend_irt650_nxp2.a(backend_utils.o)
BS_aarea_end_x                                    D:\Project\21.IR_Touch\BE_FW\wmc-ctsi-0850-fe-be-app\lib/libbackend_irt650_nxp2.a(IRTP_layout.o)
                                                  D:\Project\21.IR_Touch\BE_FW\wmc-ctsi-0850-fe-be-app\lib/libbackend_irt650_nxp2.a(backend_fine.o)
                                                  D:\Project\21.IR_Touch\BE_FW\wmc-ctsi-0850-fe-be-app\lib/libbackend_irt650_nxp2.a(backend_utils.o)
                                                  D:\Project\21.IR_Touch\BE_FW\wmc-ctsi-0850-fe-be-app\lib/libbackend_irt650_nxp2.a(backend_multi.o)
                                                  D:\Project\21.IR_Touch\BE_FW\wmc-ctsi-0850-fe-be-app\lib/libbackend_irt650_nxp2.a(backend_main.o)
BS_aarea_end_y                                    D:\Project\21.IR_Touch\BE_FW\wmc-ctsi-0850-fe-be-app\lib/libbackend_irt650_nxp2.a(IRTP_layout.o)
                                                  D:\Project\21.IR_Touch\BE_FW\wmc-ctsi-0850-fe-be-app\lib/libbackend_irt650_nxp2.a(backend_fine.o)
                                                  D:\Project\21.IR_Touch\BE_FW\wmc-ctsi-0850-fe-be-app\lib/libbackend_irt650_nxp2.a(backend_utils.o)
                                                  D:\Project\21.IR_Touch\BE_FW\wmc-ctsi-0850-fe-be-app\lib/libbackend_irt650_nxp2.a(backend_multi.o)
                                                  D:\Project\21.IR_Touch\BE_FW\wmc-ctsi-0850-fe-be-app\lib/libbackend_irt650_nxp2.a(backend_main.o)
BS_aarea_zero_x                                   D:\Project\21.IR_Touch\BE_FW\wmc-ctsi-0850-fe-be-app\lib/libbackend_irt650_nxp2.a(IRTP_layout.o)
                                                  D:\Project\21.IR_Touch\BE_FW\wmc-ctsi-0850-fe-be-app\lib/libbackend_irt650_nxp2.a(backend_fine.o)
                                                  D:\Project\21.IR_Touch\BE_FW\wmc-ctsi-0850-fe-be-app\lib/libbackend_irt650_nxp2.a(backend_utils.o)
                                                  D:\Project\21.IR_Touch\BE_FW\wmc-ctsi-0850-fe-be-app\lib/libbackend_irt650_nxp2.a(backend_multi.o)
                                                  D:\Project\21.IR_Touch\BE_FW\wmc-ctsi-0850-fe-be-app\lib/libbackend_irt650_nxp2.a(backend_main.o)
BS_aarea_zero_y                                   D:\Project\21.IR_Touch\BE_FW\wmc-ctsi-0850-fe-be-app\lib/libbackend_irt650_nxp2.a(IRTP_layout.o)
                                                  D:\Project\21.IR_Touch\BE_FW\wmc-ctsi-0850-fe-be-app\lib/libbackend_irt650_nxp2.a(backend_fine.o)
                                                  D:\Project\21.IR_Touch\BE_FW\wmc-ctsi-0850-fe-be-app\lib/libbackend_irt650_nxp2.a(backend_utils.o)
                                                  D:\Project\21.IR_Touch\BE_FW\wmc-ctsi-0850-fe-be-app\lib/libbackend_irt650_nxp2.a(backend_multi.o)
                                                  D:\Project\21.IR_Touch\BE_FW\wmc-ctsi-0850-fe-be-app\lib/libbackend_irt650_nxp2.a(backend_main.o)
BS_addEpaPosMulti                                 D:\Project\21.IR_Touch\BE_FW\wmc-ctsi-0850-fe-be-app\lib/libbackend_irt650_nxp2.a(backend_main.o)
                                                  D:\Project\21.IR_Touch\BE_FW\wmc-ctsi-0850-fe-be-app\lib/libbackend_irt650_nxp2.a(backend_multi.o)
BS_add_epf_used                                   D:\Project\21.IR_Touch\BE_FW\wmc-ctsi-0850-fe-be-app\lib/libbackend_irt650_nxp2.a(backend_main.o)
                                                  D:\Project\21.IR_Touch\BE_FW\wmc-ctsi-0850-fe-be-app\lib/libbackend_irt650_nxp2.a(backend_fine.o)
BS_adj_used_lines_tp                              D:\Project\21.IR_Touch\BE_FW\wmc-ctsi-0850-fe-be-app\lib/libbackend_irt650_nxp2.a(backend_utils.o)
                                                  D:\Project\21.IR_Touch\BE_FW\wmc-ctsi-0850-fe-be-app\lib/libbackend_irt650_nxp2.a(backend_fine.o)
                                                  D:\Project\21.IR_Touch\BE_FW\wmc-ctsi-0850-fe-be-app\lib/libbackend_irt650_nxp2.a(backend_multi.o)
                                                  D:\Project\21.IR_Touch\BE_FW\wmc-ctsi-0850-fe-be-app\lib/libbackend_irt650_nxp2.a(backend_main.o)
BS_brushMode                                      D:\Project\21.IR_Touch\BE_FW\wmc-ctsi-0850-fe-be-app\lib/libbackend_irt650_nxp2.a(backend_main.o)
                                                  D:\Project\21.IR_Touch\BE_FW\wmc-ctsi-0850-fe-be-app\lib/libbackend_irt650_nxp2.a(backend_fine.o)
                                                  D:\Project\21.IR_Touch\BE_FW\wmc-ctsi-0850-fe-be-app\lib/libbackend_irt650_nxp2.a(backend_utils.o)
                                                  D:\Project\21.IR_Touch\BE_FW\wmc-ctsi-0850-fe-be-app\lib/libbackend_irt650_nxp2.a(backend_multi.o)
BS_calMinMaxSen                                   D:\Project\21.IR_Touch\BE_FW\wmc-ctsi-0850-fe-be-app\lib/libbackend_irt650_nxp2.a(backend_utils.o)
                                                  D:\Project\21.IR_Touch\BE_FW\wmc-ctsi-0850-fe-be-app\lib/libbackend_irt650_nxp2.a(backend_fine.o)
                                                  D:\Project\21.IR_Touch\BE_FW\wmc-ctsi-0850-fe-be-app\lib/libbackend_irt650_nxp2.a(backend_multi.o)
BS_clipping_range_info                            D:\Project\21.IR_Touch\BE_FW\wmc-ctsi-0850-fe-be-app\lib/libbackend_irt650_nxp2.a(backend_utils.o)
                                                  D:\Project\21.IR_Touch\BE_FW\wmc-ctsi-0850-fe-be-app\lib/libbackend_irt650_nxp2.a(backend_fine.o)
                                                  D:\Project\21.IR_Touch\BE_FW\wmc-ctsi-0850-fe-be-app\lib/libbackend_irt650_nxp2.a(backend_multi.o)
BS_debug_nop                                      D:\Project\21.IR_Touch\BE_FW\wmc-ctsi-0850-fe-be-app\lib/libbackend_irt650_nxp2.a(backend_main.o)
BS_edge_pattern_deadzone                          D:\Project\21.IR_Touch\BE_FW\wmc-ctsi-0850-fe-be-app\lib/libbackend_irt650_nxp2.a(backend_main.o)
                                                  D:\Project\21.IR_Touch\BE_FW\wmc-ctsi-0850-fe-be-app\lib/libbackend_irt650_nxp2.a(backend_multi.o)
BS_edge_pattern_dz_ep                             D:\Project\21.IR_Touch\BE_FW\wmc-ctsi-0850-fe-be-app\lib/libbackend_irt650_nxp2.a(backend_multi.o)
BS_edge_pattern_dz_poly                           D:\Project\21.IR_Touch\BE_FW\wmc-ctsi-0850-fe-be-app\lib/libbackend_irt650_nxp2.a(backend_multi.o)
BS_edge_pattern_ep                                D:\Project\21.IR_Touch\BE_FW\wmc-ctsi-0850-fe-be-app\lib/libbackend_irt650_nxp2.a(backend_main.o)
                                                  D:\Project\21.IR_Touch\BE_FW\wmc-ctsi-0850-fe-be-app\lib/libbackend_irt650_nxp2.a(backend_fine.o)
                                                  D:\Project\21.IR_Touch\BE_FW\wmc-ctsi-0850-fe-be-app\lib/libbackend_irt650_nxp2.a(backend_multi.o)
BS_edge_pattern_ep_cnt                            D:\Project\21.IR_Touch\BE_FW\wmc-ctsi-0850-fe-be-app\lib/libbackend_irt650_nxp2.a(backend_main.o)
                                                  D:\Project\21.IR_Touch\BE_FW\wmc-ctsi-0850-fe-be-app\lib/libbackend_irt650_nxp2.a(backend_multi.o)
BS_edge_pattern_virtul_ep                         D:\Project\21.IR_Touch\BE_FW\wmc-ctsi-0850-fe-be-app\lib/libbackend_irt650_nxp2.a(backend_multi.o)
BS_edge_pattern_virtul_poly                       D:\Project\21.IR_Touch\BE_FW\wmc-ctsi-0850-fe-be-app\lib/libbackend_irt650_nxp2.a(backend_multi.o)
BS_edge_pattern_x                                 D:\Project\21.IR_Touch\BE_FW\wmc-ctsi-0850-fe-be-app\lib/libbackend_irt650_nxp2.a(backend_multi.o)
                                                  D:\Project\21.IR_Touch\BE_FW\wmc-ctsi-0850-fe-be-app\lib/libbackend_irt650_nxp2.a(backend_main.o)
BS_edge_pattern_y                                 D:\Project\21.IR_Touch\BE_FW\wmc-ctsi-0850-fe-be-app\lib/libbackend_irt650_nxp2.a(backend_multi.o)
                                                  D:\Project\21.IR_Touch\BE_FW\wmc-ctsi-0850-fe-be-app\lib/libbackend_irt650_nxp2.a(backend_main.o)
BS_end_of_heap                                    D:\Project\21.IR_Touch\BE_FW\wmc-ctsi-0850-fe-be-app\lib/libbackend_irt650_nxp2.a(backend_utils.o)
BS_epaInitMulti                                   D:\Project\21.IR_Touch\BE_FW\wmc-ctsi-0850-fe-be-app\lib/libbackend_irt650_nxp2.a(backend_multi.o)
BS_epaInit_fine                                   D:\Project\21.IR_Touch\BE_FW\wmc-ctsi-0850-fe-be-app\lib/libbackend_irt650_nxp2.a(backend_main.o)
BS_epa_x_sort                                     D:\Project\21.IR_Touch\BE_FW\wmc-ctsi-0850-fe-be-app\lib/libbackend_irt650_nxp2.a(backend_fine.o)
BS_fine_add_remained_touch_brush                  D:\Project\21.IR_Touch\BE_FW\wmc-ctsi-0850-fe-be-app\lib/libbackend_irt650_nxp2.a(backend_fine.o)
                                                  D:\Project\21.IR_Touch\BE_FW\wmc-ctsi-0850-fe-be-app\lib/libbackend_irt650_nxp2.a(backend_main.o)
BS_fine_add_remained_touch_brush2                 D:\Project\21.IR_Touch\BE_FW\wmc-ctsi-0850-fe-be-app\lib/libbackend_irt650_nxp2.a(backend_fine.o)
                                                  D:\Project\21.IR_Touch\BE_FW\wmc-ctsi-0850-fe-be-app\lib/libbackend_irt650_nxp2.a(backend_main.o)
BS_fine_add_remained_touch_edge_x                 D:\Project\21.IR_Touch\BE_FW\wmc-ctsi-0850-fe-be-app\lib/libbackend_irt650_nxp2.a(backend_fine.o)
                                                  D:\Project\21.IR_Touch\BE_FW\wmc-ctsi-0850-fe-be-app\lib/libbackend_irt650_nxp2.a(backend_main.o)
BS_fine_add_remained_touch_edge_y                 D:\Project\21.IR_Touch\BE_FW\wmc-ctsi-0850-fe-be-app\lib/libbackend_irt650_nxp2.a(backend_fine.o)
                                                  D:\Project\21.IR_Touch\BE_FW\wmc-ctsi-0850-fe-be-app\lib/libbackend_irt650_nxp2.a(backend_main.o)
BS_fine_add_remained_touch_shadow                 D:\Project\21.IR_Touch\BE_FW\wmc-ctsi-0850-fe-be-app\lib/libbackend_irt650_nxp2.a(backend_fine.o)
                                                  D:\Project\21.IR_Touch\BE_FW\wmc-ctsi-0850-fe-be-app\lib/libbackend_irt650_nxp2.a(backend_main.o)
BS_fine_add_remained_touch_xy                     D:\Project\21.IR_Touch\BE_FW\wmc-ctsi-0850-fe-be-app\lib/libbackend_irt650_nxp2.a(backend_fine.o)
                                                  D:\Project\21.IR_Touch\BE_FW\wmc-ctsi-0850-fe-be-app\lib/libbackend_irt650_nxp2.a(backend_main.o)
BS_fine_get_crossed_lines                         D:\Project\21.IR_Touch\BE_FW\wmc-ctsi-0850-fe-be-app\lib/libbackend_irt650_nxp2.a(backend_fine.o)
BS_fine_get_initial_ep5                           D:\Project\21.IR_Touch\BE_FW\wmc-ctsi-0850-fe-be-app\lib/libbackend_irt650_nxp2.a(backend_fine.o)
                                                  D:\Project\21.IR_Touch\BE_FW\wmc-ctsi-0850-fe-be-app\lib/libbackend_irt650_nxp2.a(backend_main.o)
BS_fine_malloc                                    D:\Project\21.IR_Touch\BE_FW\wmc-ctsi-0850-fe-be-app\lib/libbackend_irt650_nxp2.a(backend_fine.o)
                                                  D:\Project\21.IR_Touch\BE_FW\wmc-ctsi-0850-fe-be-app\lib/libbackend_irt650_nxp2.a(backend_main.o)
BS_getLinePosInBuf                                D:\Project\21.IR_Touch\BE_FW\wmc-ctsi-0850-fe-be-app\lib/libbackend_irt650_nxp2.a(backend_utils.o)
                                                  D:\Project\21.IR_Touch\BE_FW\wmc-ctsi-0850-fe-be-app\lib/libbackend_irt650_nxp2.a(backend_fine.o)
BS_getLinePosInBufSen                             D:\Project\21.IR_Touch\BE_FW\wmc-ctsi-0850-fe-be-app\lib/libbackend_irt650_nxp2.a(backend_utils.o)
                                                  D:\Project\21.IR_Touch\BE_FW\wmc-ctsi-0850-fe-be-app\lib/libbackend_irt650_nxp2.a(backend_fine.o)
BS_getPosSen                                      D:\Project\21.IR_Touch\BE_FW\wmc-ctsi-0850-fe-be-app\lib/libbackend_irt650_nxp2.a(backend_utils.o)
BS_getSenInBuf                                    D:\Project\21.IR_Touch\BE_FW\wmc-ctsi-0850-fe-be-app\lib/libbackend_irt650_nxp2.a(backend_utils.o)
                                                  D:\Project\21.IR_Touch\BE_FW\wmc-ctsi-0850-fe-be-app\lib/libbackend_irt650_nxp2.a(backend_fine.o)
                                                  D:\Project\21.IR_Touch\BE_FW\wmc-ctsi-0850-fe-be-app\lib/libbackend_irt650_nxp2.a(backend_main.o)
BS_getSenNumPos                                   D:\Project\21.IR_Touch\BE_FW\wmc-ctsi-0850-fe-be-app\lib/libbackend_irt650_nxp2.a(backend_utils.o)
                                                  D:\Project\21.IR_Touch\BE_FW\wmc-ctsi-0850-fe-be-app\lib/libbackend_irt650_nxp2.a(backend_fine.o)
                                                  D:\Project\21.IR_Touch\BE_FW\wmc-ctsi-0850-fe-be-app\lib/libbackend_irt650_nxp2.a(backend_multi.o)
                                                  D:\Project\21.IR_Touch\BE_FW\wmc-ctsi-0850-fe-be-app\lib/libbackend_irt650_nxp2.a(backend_main.o)
BS_getSideFromPos                                 D:\Project\21.IR_Touch\BE_FW\wmc-ctsi-0850-fe-be-app\lib/libbackend_irt650_nxp2.a(backend_multi.o)
                                                  D:\Project\21.IR_Touch\BE_FW\wmc-ctsi-0850-fe-be-app\lib/libbackend_irt650_nxp2.a(backend_main.o)
BS_getSlopeInBuf                                  D:\Project\21.IR_Touch\BE_FW\wmc-ctsi-0850-fe-be-app\lib/libbackend_irt650_nxp2.a(backend_utils.o)
BS_getTouchArea                                   D:\Project\21.IR_Touch\BE_FW\wmc-ctsi-0850-fe-be-app\lib/libbackend_irt650_nxp2.a(backend_utils.o)
                                                  D:\Project\21.IR_Touch\BE_FW\wmc-ctsi-0850-fe-be-app\lib/libbackend_irt650_nxp2.a(backend_multi.o)
BS_get_clipping_range                             D:\Project\21.IR_Touch\BE_FW\wmc-ctsi-0850-fe-be-app\lib/libbackend_irt650_nxp2.a(backend_utils.o)
                                                  D:\Project\21.IR_Touch\BE_FW\wmc-ctsi-0850-fe-be-app\lib/libbackend_irt650_nxp2.a(backend_fine.o)
                                                  D:\Project\21.IR_Touch\BE_FW\wmc-ctsi-0850-fe-be-app\lib/libbackend_irt650_nxp2.a(backend_multi.o)
BS_get_max4_float                                 D:\Project\21.IR_Touch\BE_FW\wmc-ctsi-0850-fe-be-app\lib/libbackend_irt650_nxp2.a(backend_utils.o)
BS_get_max4_int                                   D:\Project\21.IR_Touch\BE_FW\wmc-ctsi-0850-fe-be-app\lib/libbackend_irt650_nxp2.a(backend_utils.o)
BS_get_pos_on_line                                D:\Project\21.IR_Touch\BE_FW\wmc-ctsi-0850-fe-be-app\lib/libbackend_irt650_nxp2.a(backend_utils.o)
BS_get_remained_line                              D:\Project\21.IR_Touch\BE_FW\wmc-ctsi-0850-fe-be-app\lib/libbackend_irt650_nxp2.a(backend_main.o)
BS_get_sensor_via_p2                              D:\Project\21.IR_Touch\BE_FW\wmc-ctsi-0850-fe-be-app\lib/libbackend_irt650_nxp2.a(backend_utils.o)
BS_get_slope_sign                                 D:\Project\21.IR_Touch\BE_FW\wmc-ctsi-0850-fe-be-app\lib/libbackend_irt650_nxp2.a(backend_utils.o)
BS_get_virtual_range                              D:\Project\21.IR_Touch\BE_FW\wmc-ctsi-0850-fe-be-app\lib/libbackend_irt650_nxp2.a(backend_utils.o)
                                                  D:\Project\21.IR_Touch\BE_FW\wmc-ctsi-0850-fe-be-app\lib/libbackend_irt650_nxp2.a(backend_fine.o)
                                                  D:\Project\21.IR_Touch\BE_FW\wmc-ctsi-0850-fe-be-app\lib/libbackend_irt650_nxp2.a(backend_multi.o)
BS_grid_line_cnt                                  D:\Project\21.IR_Touch\BE_FW\wmc-ctsi-0850-fe-be-app\lib/libbackend_irt650_nxp2.a(backend_fine.o)
BS_grid_line_cur                                  D:\Project\21.IR_Touch\BE_FW\wmc-ctsi-0850-fe-be-app\lib/libbackend_irt650_nxp2.a(backend_fine.o)
BS_grid_line_end                                  D:\Project\21.IR_Touch\BE_FW\wmc-ctsi-0850-fe-be-app\lib/libbackend_irt650_nxp2.a(backend_fine.o)
BS_grid_line_org                                  D:\Project\21.IR_Touch\BE_FW\wmc-ctsi-0850-fe-be-app\lib/libbackend_irt650_nxp2.a(backend_fine.o)
BS_grid_line_start                                D:\Project\21.IR_Touch\BE_FW\wmc-ctsi-0850-fe-be-app\lib/libbackend_irt650_nxp2.a(backend_fine.o)
BS_half_end_x                                     D:\Project\21.IR_Touch\BE_FW\wmc-ctsi-0850-fe-be-app\lib/libbackend_irt650_nxp2.a(IRTP_layout.o)
                                                  D:\Project\21.IR_Touch\BE_FW\wmc-ctsi-0850-fe-be-app\lib/libbackend_irt650_nxp2.a(backend_multi.o)
                                                  D:\Project\21.IR_Touch\BE_FW\wmc-ctsi-0850-fe-be-app\lib/libbackend_irt650_nxp2.a(backend_main.o)
BS_half_end_y                                     D:\Project\21.IR_Touch\BE_FW\wmc-ctsi-0850-fe-be-app\lib/libbackend_irt650_nxp2.a(IRTP_layout.o)
                                                  D:\Project\21.IR_Touch\BE_FW\wmc-ctsi-0850-fe-be-app\lib/libbackend_irt650_nxp2.a(backend_multi.o)
                                                  D:\Project\21.IR_Touch\BE_FW\wmc-ctsi-0850-fe-be-app\lib/libbackend_irt650_nxp2.a(backend_main.o)
BS_heap                                           D:\Project\21.IR_Touch\BE_FW\wmc-ctsi-0850-fe-be-app\lib/libbackend_irt650_nxp2.a(backend_utils.o)
BS_inBuf                                          D:\Project\21.IR_Touch\BE_FW\wmc-ctsi-0850-fe-be-app\lib/libbackend_irt650_nxp2.a(backend_main.o)
                                                  D:\Project\21.IR_Touch\BE_FW\wmc-ctsi-0850-fe-be-app\lib/libbackend_irt650_nxp2.a(backend_utils.o)
BS_inValidTblLenXled                              D:\Project\21.IR_Touch\BE_FW\wmc-ctsi-0850-fe-be-app\lib/libbackend_irt650_nxp2.a(backend_main.o)
                                                  D:\Project\21.IR_Touch\BE_FW\wmc-ctsi-0850-fe-be-app\lib/libbackend_irt650_nxp2.a(backend_multi.o)
BS_inValidTblLenXpd                               D:\Project\21.IR_Touch\BE_FW\wmc-ctsi-0850-fe-be-app\lib/libbackend_irt650_nxp2.a(backend_main.o)
                                                  D:\Project\21.IR_Touch\BE_FW\wmc-ctsi-0850-fe-be-app\lib/libbackend_irt650_nxp2.a(backend_multi.o)
BS_inValidTblLenYled                              D:\Project\21.IR_Touch\BE_FW\wmc-ctsi-0850-fe-be-app\lib/libbackend_irt650_nxp2.a(backend_main.o)
                                                  D:\Project\21.IR_Touch\BE_FW\wmc-ctsi-0850-fe-be-app\lib/libbackend_irt650_nxp2.a(backend_multi.o)
BS_inValidTblLenYpd                               D:\Project\21.IR_Touch\BE_FW\wmc-ctsi-0850-fe-be-app\lib/libbackend_irt650_nxp2.a(backend_main.o)
                                                  D:\Project\21.IR_Touch\BE_FW\wmc-ctsi-0850-fe-be-app\lib/libbackend_irt650_nxp2.a(backend_multi.o)
BS_inValidTblXled                                 D:\Project\21.IR_Touch\BE_FW\wmc-ctsi-0850-fe-be-app\lib/libbackend_irt650_nxp2.a(backend_main.o)
                                                  D:\Project\21.IR_Touch\BE_FW\wmc-ctsi-0850-fe-be-app\lib/libbackend_irt650_nxp2.a(backend_multi.o)
BS_inValidTblXpd                                  D:\Project\21.IR_Touch\BE_FW\wmc-ctsi-0850-fe-be-app\lib/libbackend_irt650_nxp2.a(backend_main.o)
BS_inValidTblYled                                 D:\Project\21.IR_Touch\BE_FW\wmc-ctsi-0850-fe-be-app\lib/libbackend_irt650_nxp2.a(backend_main.o)
                                                  D:\Project\21.IR_Touch\BE_FW\wmc-ctsi-0850-fe-be-app\lib/libbackend_irt650_nxp2.a(backend_multi.o)
BS_inValidTblYpd                                  D:\Project\21.IR_Touch\BE_FW\wmc-ctsi-0850-fe-be-app\lib/libbackend_irt650_nxp2.a(backend_main.o)
BS_init_max4_float                                D:\Project\21.IR_Touch\BE_FW\wmc-ctsi-0850-fe-be-app\lib/libbackend_irt650_nxp2.a(backend_utils.o)
BS_init_max4_int                                  D:\Project\21.IR_Touch\BE_FW\wmc-ctsi-0850-fe-be-app\lib/libbackend_irt650_nxp2.a(backend_utils.o)
BS_initial_lineNo                                 D:\Project\21.IR_Touch\BE_FW\wmc-ctsi-0850-fe-be-app\lib/libbackend_irt650_nxp2.a(backend_main.o)
BS_initial_line_a_x                               D:\Project\21.IR_Touch\BE_FW\wmc-ctsi-0850-fe-be-app\lib/libbackend_irt650_nxp2.a(backend_fine.o)
                                                  D:\Project\21.IR_Touch\BE_FW\wmc-ctsi-0850-fe-be-app\lib/libbackend_irt650_nxp2.a(backend_main.o)
BS_initial_line_a_x2                              D:\Project\21.IR_Touch\BE_FW\wmc-ctsi-0850-fe-be-app\lib/libbackend_irt650_nxp2.a(backend_fine.o)
BS_initial_line_a_x_cnt                           D:\Project\21.IR_Touch\BE_FW\wmc-ctsi-0850-fe-be-app\lib/libbackend_irt650_nxp2.a(backend_fine.o)
                                                  D:\Project\21.IR_Touch\BE_FW\wmc-ctsi-0850-fe-be-app\lib/libbackend_irt650_nxp2.a(backend_main.o)
BS_initial_line_a_x_slope                         D:\Project\21.IR_Touch\BE_FW\wmc-ctsi-0850-fe-be-app\lib/libbackend_irt650_nxp2.a(backend_fine.o)
BS_initial_line_a_x_y                             D:\Project\21.IR_Touch\BE_FW\wmc-ctsi-0850-fe-be-app\lib/libbackend_irt650_nxp2.a(backend_fine.o)
BS_initial_line_a_y                               D:\Project\21.IR_Touch\BE_FW\wmc-ctsi-0850-fe-be-app\lib/libbackend_irt650_nxp2.a(backend_fine.o)
                                                  D:\Project\21.IR_Touch\BE_FW\wmc-ctsi-0850-fe-be-app\lib/libbackend_irt650_nxp2.a(backend_main.o)
BS_initial_line_a_y_cnt                           D:\Project\21.IR_Touch\BE_FW\wmc-ctsi-0850-fe-be-app\lib/libbackend_irt650_nxp2.a(backend_fine.o)
                                                  D:\Project\21.IR_Touch\BE_FW\wmc-ctsi-0850-fe-be-app\lib/libbackend_irt650_nxp2.a(backend_main.o)
BS_initial_line_a_y_slope                         D:\Project\21.IR_Touch\BE_FW\wmc-ctsi-0850-fe-be-app\lib/libbackend_irt650_nxp2.a(backend_fine.o)
BS_initial_line_grp                               D:\Project\21.IR_Touch\BE_FW\wmc-ctsi-0850-fe-be-app\lib/libbackend_irt650_nxp2.a(backend_fine.o)
BS_initial_line_grp_cnt                           D:\Project\21.IR_Touch\BE_FW\wmc-ctsi-0850-fe-be-app\lib/libbackend_irt650_nxp2.a(backend_fine.o)
BS_initial_line_x                                 D:\Project\21.IR_Touch\BE_FW\wmc-ctsi-0850-fe-be-app\lib/libbackend_irt650_nxp2.a(backend_fine.o)
BS_initial_line_x_cnt                             D:\Project\21.IR_Touch\BE_FW\wmc-ctsi-0850-fe-be-app\lib/libbackend_irt650_nxp2.a(backend_fine.o)
BS_initial_line_y                                 D:\Project\21.IR_Touch\BE_FW\wmc-ctsi-0850-fe-be-app\lib/libbackend_irt650_nxp2.a(backend_fine.o)
BS_initial_line_y_cnt                             D:\Project\21.IR_Touch\BE_FW\wmc-ctsi-0850-fe-be-app\lib/libbackend_irt650_nxp2.a(backend_fine.o)
BS_initial_minMax                                 D:\Project\21.IR_Touch\BE_FW\wmc-ctsi-0850-fe-be-app\lib/libbackend_irt650_nxp2.a(backend_main.o)
BS_initial_polygon                                D:\Project\21.IR_Touch\BE_FW\wmc-ctsi-0850-fe-be-app\lib/libbackend_irt650_nxp2.a(backend_multi.o)
                                                  D:\Project\21.IR_Touch\BE_FW\wmc-ctsi-0850-fe-be-app\lib/libbackend_irt650_nxp2.a(backend_main.o)
BS_initial_polygon_cnt                            D:\Project\21.IR_Touch\BE_FW\wmc-ctsi-0850-fe-be-app\lib/libbackend_irt650_nxp2.a(backend_multi.o)
                                                  D:\Project\21.IR_Touch\BE_FW\wmc-ctsi-0850-fe-be-app\lib/libbackend_irt650_nxp2.a(backend_main.o)
BS_inlineBuf_x_led                                D:\Project\21.IR_Touch\BE_FW\wmc-ctsi-0850-fe-be-app\lib/libbackend_irt650_nxp2.a(backend_multi.o)
                                                  D:\Project\21.IR_Touch\BE_FW\wmc-ctsi-0850-fe-be-app\lib/libbackend_irt650_nxp2.a(backend_fine.o)
                                                  D:\Project\21.IR_Touch\BE_FW\wmc-ctsi-0850-fe-be-app\lib/libbackend_irt650_nxp2.a(backend_main.o)
BS_inlineBuf_x_pd                                 D:\Project\21.IR_Touch\BE_FW\wmc-ctsi-0850-fe-be-app\lib/libbackend_irt650_nxp2.a(backend_multi.o)
                                                  D:\Project\21.IR_Touch\BE_FW\wmc-ctsi-0850-fe-be-app\lib/libbackend_irt650_nxp2.a(backend_fine.o)
                                                  D:\Project\21.IR_Touch\BE_FW\wmc-ctsi-0850-fe-be-app\lib/libbackend_irt650_nxp2.a(backend_main.o)
BS_inlineBuf_y_led                                D:\Project\21.IR_Touch\BE_FW\wmc-ctsi-0850-fe-be-app\lib/libbackend_irt650_nxp2.a(backend_multi.o)
                                                  D:\Project\21.IR_Touch\BE_FW\wmc-ctsi-0850-fe-be-app\lib/libbackend_irt650_nxp2.a(backend_fine.o)
                                                  D:\Project\21.IR_Touch\BE_FW\wmc-ctsi-0850-fe-be-app\lib/libbackend_irt650_nxp2.a(backend_main.o)
BS_inlineBuf_y_pd                                 D:\Project\21.IR_Touch\BE_FW\wmc-ctsi-0850-fe-be-app\lib/libbackend_irt650_nxp2.a(backend_multi.o)
                                                  D:\Project\21.IR_Touch\BE_FW\wmc-ctsi-0850-fe-be-app\lib/libbackend_irt650_nxp2.a(backend_fine.o)
                                                  D:\Project\21.IR_Touch\BE_FW\wmc-ctsi-0850-fe-be-app\lib/libbackend_irt650_nxp2.a(backend_main.o)
BS_inlineUsed2_x_pd                               D:\Project\21.IR_Touch\BE_FW\wmc-ctsi-0850-fe-be-app\lib/libbackend_irt650_nxp2.a(backend_multi.o)
                                                  D:\Project\21.IR_Touch\BE_FW\wmc-ctsi-0850-fe-be-app\lib/libbackend_irt650_nxp2.a(backend_main.o)
BS_inlineUsed2_y_pd                               D:\Project\21.IR_Touch\BE_FW\wmc-ctsi-0850-fe-be-app\lib/libbackend_irt650_nxp2.a(backend_multi.o)
                                                  D:\Project\21.IR_Touch\BE_FW\wmc-ctsi-0850-fe-be-app\lib/libbackend_irt650_nxp2.a(backend_main.o)
BS_inst_xy                                        D:\Project\21.IR_Touch\BE_FW\wmc-ctsi-0850-fe-be-app\lib/libbackend_irt650_nxp2.a(backend_fine.o)
BS_inst_xy_cnt                                    D:\Project\21.IR_Touch\BE_FW\wmc-ctsi-0850-fe-be-app\lib/libbackend_irt650_nxp2.a(backend_fine.o)
BS_inst_xy_cnt_pre                                D:\Project\21.IR_Touch\BE_FW\wmc-ctsi-0850-fe-be-app\lib/libbackend_irt650_nxp2.a(backend_fine.o)
BS_inst_xy_grp                                    D:\Project\21.IR_Touch\BE_FW\wmc-ctsi-0850-fe-be-app\lib/libbackend_irt650_nxp2.a(backend_fine.o)
BS_inst_xy_grp_cnt                                D:\Project\21.IR_Touch\BE_FW\wmc-ctsi-0850-fe-be-app\lib/libbackend_irt650_nxp2.a(backend_fine.o)
BS_inst_xy_grp_cnt_pre                            D:\Project\21.IR_Touch\BE_FW\wmc-ctsi-0850-fe-be-app\lib/libbackend_irt650_nxp2.a(backend_fine.o)
BS_inst_xy_sen                                    D:\Project\21.IR_Touch\BE_FW\wmc-ctsi-0850-fe-be-app\lib/libbackend_irt650_nxp2.a(backend_fine.o)
BS_inst_xy_sort                                   D:\Project\21.IR_Touch\BE_FW\wmc-ctsi-0850-fe-be-app\lib/libbackend_irt650_nxp2.a(backend_fine.o)
BS_int_sect_group2_epf_used                       D:\Project\21.IR_Touch\BE_FW\wmc-ctsi-0850-fe-be-app\lib/libbackend_irt650_nxp2.a(backend_main.o)
BS_int_sect_group2_epf_used_cnt                   D:\Project\21.IR_Touch\BE_FW\wmc-ctsi-0850-fe-be-app\lib/libbackend_irt650_nxp2.a(backend_main.o)
                                                  D:\Project\21.IR_Touch\BE_FW\wmc-ctsi-0850-fe-be-app\lib/libbackend_irt650_nxp2.a(backend_fine.o)
BS_is_dead_cell                                   D:\Project\21.IR_Touch\BE_FW\wmc-ctsi-0850-fe-be-app\lib/libbackend_irt650_nxp2.a(backend_main.o)
                                                  D:\Project\21.IR_Touch\BE_FW\wmc-ctsi-0850-fe-be-app\lib/libbackend_irt650_nxp2.a(backend_multi.o)
BS_is_dead_cell_pos                               D:\Project\21.IR_Touch\BE_FW\wmc-ctsi-0850-fe-be-app\lib/libbackend_irt650_nxp2.a(backend_main.o)
                                                  D:\Project\21.IR_Touch\BE_FW\wmc-ctsi-0850-fe-be-app\lib/libbackend_irt650_nxp2.a(backend_multi.o)
BS_is_edge                                        D:\Project\21.IR_Touch\BE_FW\wmc-ctsi-0850-fe-be-app\lib/libbackend_irt650_nxp2.a(backend_utils.o)
                                                  D:\Project\21.IR_Touch\BE_FW\wmc-ctsi-0850-fe-be-app\lib/libbackend_irt650_nxp2.a(backend_fine.o)
                                                  D:\Project\21.IR_Touch\BE_FW\wmc-ctsi-0850-fe-be-app\lib/libbackend_irt650_nxp2.a(backend_multi.o)
                                                  D:\Project\21.IR_Touch\BE_FW\wmc-ctsi-0850-fe-be-app\lib/libbackend_irt650_nxp2.a(backend_main.o)
BS_is_epf_used                                    D:\Project\21.IR_Touch\BE_FW\wmc-ctsi-0850-fe-be-app\lib/libbackend_irt650_nxp2.a(backend_main.o)
                                                  D:\Project\21.IR_Touch\BE_FW\wmc-ctsi-0850-fe-be-app\lib/libbackend_irt650_nxp2.a(backend_fine.o)
BS_is_large_pitch                                 D:\Project\21.IR_Touch\BE_FW\wmc-ctsi-0850-fe-be-app\lib/libbackend_irt650_nxp2.a(backend_main.o)
                                                  D:\Project\21.IR_Touch\BE_FW\wmc-ctsi-0850-fe-be-app\lib/libbackend_irt650_nxp2.a(backend_multi.o)
BS_is_near_dead                                   D:\Project\21.IR_Touch\BE_FW\wmc-ctsi-0850-fe-be-app\lib/libbackend_irt650_nxp2.a(backend_main.o)
                                                  D:\Project\21.IR_Touch\BE_FW\wmc-ctsi-0850-fe-be-app\lib/libbackend_irt650_nxp2.a(backend_multi.o)
BS_is_set_line_buffer                             D:\Project\21.IR_Touch\BE_FW\wmc-ctsi-0850-fe-be-app\lib/libbackend_irt650_nxp2.a(backend_main.o)
                                                  D:\Project\21.IR_Touch\BE_FW\wmc-ctsi-0850-fe-be-app\lib/libbackend_irt650_nxp2.a(backend_fine.o)
                                                  D:\Project\21.IR_Touch\BE_FW\wmc-ctsi-0850-fe-be-app\lib/libbackend_irt650_nxp2.a(backend_multi.o)
BS_is_set_threshold                               D:\Project\21.IR_Touch\BE_FW\wmc-ctsi-0850-fe-be-app\lib/libbackend_irt650_nxp2.a(backend_main.o)
                                                  D:\Project\21.IR_Touch\BE_FW\wmc-ctsi-0850-fe-be-app\lib/libbackend_irt650_nxp2.a(backend_fine.o)
                                                  D:\Project\21.IR_Touch\BE_FW\wmc-ctsi-0850-fe-be-app\lib/libbackend_irt650_nxp2.a(backend_multi.o)
BS_is_used_line_buffer                            D:\Project\21.IR_Touch\BE_FW\wmc-ctsi-0850-fe-be-app\lib/libbackend_irt650_nxp2.a(backend_main.o)
                                                  D:\Project\21.IR_Touch\BE_FW\wmc-ctsi-0850-fe-be-app\lib/libbackend_irt650_nxp2.a(backend_fine.o)
BS_large_pitch_end_x                              D:\Project\21.IR_Touch\BE_FW\wmc-ctsi-0850-fe-be-app\lib/libbackend_irt650_nxp2.a(IRTP_layout.o)
                                                  D:\Project\21.IR_Touch\BE_FW\wmc-ctsi-0850-fe-be-app\lib/libbackend_irt650_nxp2.a(backend_multi.o)
                                                  D:\Project\21.IR_Touch\BE_FW\wmc-ctsi-0850-fe-be-app\lib/libbackend_irt650_nxp2.a(backend_main.o)
BS_large_pitch_end_y                              D:\Project\21.IR_Touch\BE_FW\wmc-ctsi-0850-fe-be-app\lib/libbackend_irt650_nxp2.a(IRTP_layout.o)
                                                  D:\Project\21.IR_Touch\BE_FW\wmc-ctsi-0850-fe-be-app\lib/libbackend_irt650_nxp2.a(backend_multi.o)
                                                  D:\Project\21.IR_Touch\BE_FW\wmc-ctsi-0850-fe-be-app\lib/libbackend_irt650_nxp2.a(backend_main.o)
BS_large_pitch_tbl_x_led                          D:\Project\21.IR_Touch\BE_FW\wmc-ctsi-0850-fe-be-app\lib/libbackend_irt650_nxp2.a(backend_main.o)
BS_large_pitch_tbl_x_led_cnt                      D:\Project\21.IR_Touch\BE_FW\wmc-ctsi-0850-fe-be-app\lib/libbackend_irt650_nxp2.a(backend_main.o)
                                                  D:\Project\21.IR_Touch\BE_FW\wmc-ctsi-0850-fe-be-app\lib/libbackend_irt650_nxp2.a(backend_multi.o)
BS_large_pitch_tbl_x_pd                           D:\Project\21.IR_Touch\BE_FW\wmc-ctsi-0850-fe-be-app\lib/libbackend_irt650_nxp2.a(backend_main.o)
BS_large_pitch_tbl_x_pd_cnt                       D:\Project\21.IR_Touch\BE_FW\wmc-ctsi-0850-fe-be-app\lib/libbackend_irt650_nxp2.a(backend_main.o)
                                                  D:\Project\21.IR_Touch\BE_FW\wmc-ctsi-0850-fe-be-app\lib/libbackend_irt650_nxp2.a(backend_multi.o)
BS_large_pitch_tbl_y_led                          D:\Project\21.IR_Touch\BE_FW\wmc-ctsi-0850-fe-be-app\lib/libbackend_irt650_nxp2.a(backend_main.o)
BS_large_pitch_tbl_y_led_cnt                      D:\Project\21.IR_Touch\BE_FW\wmc-ctsi-0850-fe-be-app\lib/libbackend_irt650_nxp2.a(backend_main.o)
                                                  D:\Project\21.IR_Touch\BE_FW\wmc-ctsi-0850-fe-be-app\lib/libbackend_irt650_nxp2.a(backend_multi.o)
BS_large_pitch_tbl_y_pd                           D:\Project\21.IR_Touch\BE_FW\wmc-ctsi-0850-fe-be-app\lib/libbackend_irt650_nxp2.a(backend_main.o)
BS_large_pitch_tbl_y_pd_cnt                       D:\Project\21.IR_Touch\BE_FW\wmc-ctsi-0850-fe-be-app\lib/libbackend_irt650_nxp2.a(backend_main.o)
                                                  D:\Project\21.IR_Touch\BE_FW\wmc-ctsi-0850-fe-be-app\lib/libbackend_irt650_nxp2.a(backend_multi.o)
BS_large_pitch_zero_x                             D:\Project\21.IR_Touch\BE_FW\wmc-ctsi-0850-fe-be-app\lib/libbackend_irt650_nxp2.a(IRTP_layout.o)
                                                  D:\Project\21.IR_Touch\BE_FW\wmc-ctsi-0850-fe-be-app\lib/libbackend_irt650_nxp2.a(backend_multi.o)
                                                  D:\Project\21.IR_Touch\BE_FW\wmc-ctsi-0850-fe-be-app\lib/libbackend_irt650_nxp2.a(backend_main.o)
BS_large_pitch_zero_y                             D:\Project\21.IR_Touch\BE_FW\wmc-ctsi-0850-fe-be-app\lib/libbackend_irt650_nxp2.a(IRTP_layout.o)
                                                  D:\Project\21.IR_Touch\BE_FW\wmc-ctsi-0850-fe-be-app\lib/libbackend_irt650_nxp2.a(backend_multi.o)
                                                  D:\Project\21.IR_Touch\BE_FW\wmc-ctsi-0850-fe-be-app\lib/libbackend_irt650_nxp2.a(backend_main.o)
BS_large_touch_idx                                D:\Project\21.IR_Touch\BE_FW\wmc-ctsi-0850-fe-be-app\lib/libbackend_irt650_nxp2.a(backend_main.o)
BS_large_touch_idx_cnt                            D:\Project\21.IR_Touch\BE_FW\wmc-ctsi-0850-fe-be-app\lib/libbackend_irt650_nxp2.a(backend_main.o)
BS_large_touch_idx_cnt_prev                       D:\Project\21.IR_Touch\BE_FW\wmc-ctsi-0850-fe-be-app\lib/libbackend_irt650_nxp2.a(backend_main.o)
BS_large_touch_idx_prev                           D:\Project\21.IR_Touch\BE_FW\wmc-ctsi-0850-fe-be-app\lib/libbackend_irt650_nxp2.a(backend_main.o)
BS_led_pos_x                                      D:\Project\21.IR_Touch\BE_FW\wmc-ctsi-0850-fe-be-app\lib/libbackend_irt650_nxp2.a(IRTP_layout.o)
                                                  D:\Project\21.IR_Touch\BE_FW\wmc-ctsi-0850-fe-be-app\lib/libbackend_irt650_nxp2.a(backend_fine.o)
                                                  D:\Project\21.IR_Touch\BE_FW\wmc-ctsi-0850-fe-be-app\lib/libbackend_irt650_nxp2.a(backend_utils.o)
                                                  D:\Project\21.IR_Touch\BE_FW\wmc-ctsi-0850-fe-be-app\lib/libbackend_irt650_nxp2.a(backend_multi.o)
                                                  D:\Project\21.IR_Touch\BE_FW\wmc-ctsi-0850-fe-be-app\lib/libbackend_irt650_nxp2.a(backend_main.o)
BS_led_pos_y                                      D:\Project\21.IR_Touch\BE_FW\wmc-ctsi-0850-fe-be-app\lib/libbackend_irt650_nxp2.a(IRTP_layout.o)
                                                  D:\Project\21.IR_Touch\BE_FW\wmc-ctsi-0850-fe-be-app\lib/libbackend_irt650_nxp2.a(backend_fine.o)
                                                  D:\Project\21.IR_Touch\BE_FW\wmc-ctsi-0850-fe-be-app\lib/libbackend_irt650_nxp2.a(backend_utils.o)
                                                  D:\Project\21.IR_Touch\BE_FW\wmc-ctsi-0850-fe-be-app\lib/libbackend_irt650_nxp2.a(backend_multi.o)
                                                  D:\Project\21.IR_Touch\BE_FW\wmc-ctsi-0850-fe-be-app\lib/libbackend_irt650_nxp2.a(backend_main.o)
BS_left_of                                        D:\Project\21.IR_Touch\BE_FW\wmc-ctsi-0850-fe-be-app\lib/libbackend_irt650_nxp2.a(backend_utils.o)
                                                  D:\Project\21.IR_Touch\BE_FW\wmc-ctsi-0850-fe-be-app\lib/libbackend_irt650_nxp2.a(backend_fine.o)
BS_line_intersection                              D:\Project\21.IR_Touch\BE_FW\wmc-ctsi-0850-fe-be-app\lib/libbackend_irt650_nxp2.a(backend_utils.o)
                                                  D:\Project\21.IR_Touch\BE_FW\wmc-ctsi-0850-fe-be-app\lib/libbackend_irt650_nxp2.a(backend_fine.o)
                                                  D:\Project\21.IR_Touch\BE_FW\wmc-ctsi-0850-fe-be-app\lib/libbackend_irt650_nxp2.a(backend_multi.o)
                                                  D:\Project\21.IR_Touch\BE_FW\wmc-ctsi-0850-fe-be-app\lib/libbackend_irt650_nxp2.a(backend_main.o)
BS_line_intersection_test                         D:\Project\21.IR_Touch\BE_FW\wmc-ctsi-0850-fe-be-app\lib/libbackend_irt650_nxp2.a(backend_utils.o)
BS_logical_max_x                                  D:\Project\21.IR_Touch\BE_FW\wmc-ctsi-0850-fe-be-app\lib/libbackend_irt650_nxp2.a(backend_main.o)
BS_logical_max_y                                  D:\Project\21.IR_Touch\BE_FW\wmc-ctsi-0850-fe-be-app\lib/libbackend_irt650_nxp2.a(backend_main.o)
BS_malloc                                         D:\Project\21.IR_Touch\BE_FW\wmc-ctsi-0850-fe-be-app\lib/libbackend_irt650_nxp2.a(backend_utils.o)
                                                  D:\Project\21.IR_Touch\BE_FW\wmc-ctsi-0850-fe-be-app\lib/libbackend_irt650_nxp2.a(backend_fine.o)
                                                  D:\Project\21.IR_Touch\BE_FW\wmc-ctsi-0850-fe-be-app\lib/libbackend_irt650_nxp2.a(backend_multi.o)
                                                  D:\Project\21.IR_Touch\BE_FW\wmc-ctsi-0850-fe-be-app\lib/libbackend_irt650_nxp2.a(backend_main.o)
BS_malloc_init                                    D:\Project\21.IR_Touch\BE_FW\wmc-ctsi-0850-fe-be-app\lib/libbackend_irt650_nxp2.a(backend_utils.o)
                                                  D:\Project\21.IR_Touch\BE_FW\wmc-ctsi-0850-fe-be-app\lib/libbackend_irt650_nxp2.a(backend_main.o)
BS_malloc_uint8_t2                                D:\Project\21.IR_Touch\BE_FW\wmc-ctsi-0850-fe-be-app\lib/libbackend_irt650_nxp2.a(backend_utils.o)
                                                  D:\Project\21.IR_Touch\BE_FW\wmc-ctsi-0850-fe-be-app\lib/libbackend_irt650_nxp2.a(backend_multi.o)
BS_maxHorPdNum                                    D:\Project\21.IR_Touch\BE_FW\wmc-ctsi-0850-fe-be-app\lib/libbackend_irt650_nxp2.a(IRTP_layout.o)
                                                  D:\Project\21.IR_Touch\BE_FW\wmc-ctsi-0850-fe-be-app\lib/libbackend_irt650_nxp2.a(backend_fine.o)
                                                  D:\Project\21.IR_Touch\BE_FW\wmc-ctsi-0850-fe-be-app\lib/libbackend_irt650_nxp2.a(backend_utils.o)
                                                  D:\Project\21.IR_Touch\BE_FW\wmc-ctsi-0850-fe-be-app\lib/libbackend_irt650_nxp2.a(backend_multi.o)
                                                  D:\Project\21.IR_Touch\BE_FW\wmc-ctsi-0850-fe-be-app\lib/libbackend_irt650_nxp2.a(backend_main.o)
BS_maxVerPdNum                                    D:\Project\21.IR_Touch\BE_FW\wmc-ctsi-0850-fe-be-app\lib/libbackend_irt650_nxp2.a(IRTP_layout.o)
                                                  D:\Project\21.IR_Touch\BE_FW\wmc-ctsi-0850-fe-be-app\lib/libbackend_irt650_nxp2.a(backend_fine.o)
                                                  D:\Project\21.IR_Touch\BE_FW\wmc-ctsi-0850-fe-be-app\lib/libbackend_irt650_nxp2.a(backend_utils.o)
                                                  D:\Project\21.IR_Touch\BE_FW\wmc-ctsi-0850-fe-be-app\lib/libbackend_irt650_nxp2.a(backend_multi.o)
                                                  D:\Project\21.IR_Touch\BE_FW\wmc-ctsi-0850-fe-be-app\lib/libbackend_irt650_nxp2.a(backend_main.o)
BS_max_ep_count                                   D:\Project\21.IR_Touch\BE_FW\wmc-ctsi-0850-fe-be-app\lib/libbackend_irt650_nxp2.a(backend_main.o)
                                                  D:\Project\21.IR_Touch\BE_FW\wmc-ctsi-0850-fe-be-app\lib/libbackend_irt650_nxp2.a(backend_fine.o)
                                                  D:\Project\21.IR_Touch\BE_FW\wmc-ctsi-0850-fe-be-app\lib/libbackend_irt650_nxp2.a(backend_multi.o)
BS_max_fine_rem_init_line                         D:\Project\21.IR_Touch\BE_FW\wmc-ctsi-0850-fe-be-app\lib/libbackend_irt650_nxp2.a(backend_fine.o)
BS_max_in_line_buf_led_x                          D:\Project\21.IR_Touch\BE_FW\wmc-ctsi-0850-fe-be-app\lib/libbackend_irt650_nxp2.a(backend_multi.o)
                                                  D:\Project\21.IR_Touch\BE_FW\wmc-ctsi-0850-fe-be-app\lib/libbackend_irt650_nxp2.a(backend_fine.o)
                                                  D:\Project\21.IR_Touch\BE_FW\wmc-ctsi-0850-fe-be-app\lib/libbackend_irt650_nxp2.a(backend_main.o)
BS_max_in_line_buf_led_y                          D:\Project\21.IR_Touch\BE_FW\wmc-ctsi-0850-fe-be-app\lib/libbackend_irt650_nxp2.a(backend_multi.o)
                                                  D:\Project\21.IR_Touch\BE_FW\wmc-ctsi-0850-fe-be-app\lib/libbackend_irt650_nxp2.a(backend_fine.o)
                                                  D:\Project\21.IR_Touch\BE_FW\wmc-ctsi-0850-fe-be-app\lib/libbackend_irt650_nxp2.a(backend_main.o)
BS_max_in_line_buf_pd_x                           D:\Project\21.IR_Touch\BE_FW\wmc-ctsi-0850-fe-be-app\lib/libbackend_irt650_nxp2.a(backend_multi.o)
                                                  D:\Project\21.IR_Touch\BE_FW\wmc-ctsi-0850-fe-be-app\lib/libbackend_irt650_nxp2.a(backend_main.o)
BS_max_in_line_buf_pd_y                           D:\Project\21.IR_Touch\BE_FW\wmc-ctsi-0850-fe-be-app\lib/libbackend_irt650_nxp2.a(backend_multi.o)
                                                  D:\Project\21.IR_Touch\BE_FW\wmc-ctsi-0850-fe-be-app\lib/libbackend_irt650_nxp2.a(backend_main.o)
BS_max_ini_epa_size                               D:\Project\21.IR_Touch\BE_FW\wmc-ctsi-0850-fe-be-app\lib/libbackend_irt650_nxp2.a(backend_multi.o)
                                                  D:\Project\21.IR_Touch\BE_FW\wmc-ctsi-0850-fe-be-app\lib/libbackend_irt650_nxp2.a(backend_main.o)
BS_max_large_pitch_tbl_x                          D:\Project\21.IR_Touch\BE_FW\wmc-ctsi-0850-fe-be-app\lib/libbackend_irt650_nxp2.a(backend_main.o)
BS_max_large_pitch_tbl_y                          D:\Project\21.IR_Touch\BE_FW\wmc-ctsi-0850-fe-be-app\lib/libbackend_irt650_nxp2.a(backend_main.o)
BS_max_mum_pd                                     D:\Project\21.IR_Touch\BE_FW\wmc-ctsi-0850-fe-be-app\lib/libbackend_irt650_nxp2.a(backend_main.o)
                                                  D:\Project\21.IR_Touch\BE_FW\wmc-ctsi-0850-fe-be-app\lib/libbackend_irt650_nxp2.a(backend_multi.o)
BS_max_p1_p2_ve                                   D:\Project\21.IR_Touch\BE_FW\wmc-ctsi-0850-fe-be-app\lib/libbackend_irt650_nxp2.a(backend_utils.o)
BS_max_virtual_ep_count                           D:\Project\21.IR_Touch\BE_FW\wmc-ctsi-0850-fe-be-app\lib/libbackend_irt650_nxp2.a(backend_multi.o)
BS_minmax_inst_stat                               D:\Project\21.IR_Touch\BE_FW\wmc-ctsi-0850-fe-be-app\lib/libbackend_irt650_nxp2.a(backend_main.o)
                                                  D:\Project\21.IR_Touch\BE_FW\wmc-ctsi-0850-fe-be-app\lib/libbackend_irt650_nxp2.a(backend_fine.o)
BS_minmax_inst_xy                                 D:\Project\21.IR_Touch\BE_FW\wmc-ctsi-0850-fe-be-app\lib/libbackend_irt650_nxp2.a(backend_main.o)
                                                  D:\Project\21.IR_Touch\BE_FW\wmc-ctsi-0850-fe-be-app\lib/libbackend_irt650_nxp2.a(backend_fine.o)
BS_multi_is_overlap_min_max_tp                    D:\Project\21.IR_Touch\BE_FW\wmc-ctsi-0850-fe-be-app\lib/libbackend_irt650_nxp2.a(backend_multi.o)
                                                  D:\Project\21.IR_Touch\BE_FW\wmc-ctsi-0850-fe-be-app\lib/libbackend_irt650_nxp2.a(backend_main.o)
BS_multi_malloc                                   D:\Project\21.IR_Touch\BE_FW\wmc-ctsi-0850-fe-be-app\lib/libbackend_irt650_nxp2.a(backend_multi.o)
                                                  D:\Project\21.IR_Touch\BE_FW\wmc-ctsi-0850-fe-be-app\lib/libbackend_irt650_nxp2.a(backend_main.o)
BS_offsetTblLenX                                  D:\Project\21.IR_Touch\BE_FW\wmc-ctsi-0850-fe-be-app\lib/libbackend_irt650_nxp2.a(backend_main.o)
                                                  D:\Project\21.IR_Touch\BE_FW\wmc-ctsi-0850-fe-be-app\lib/libbackend_irt650_nxp2.a(backend_fine.o)
                                                  D:\Project\21.IR_Touch\BE_FW\wmc-ctsi-0850-fe-be-app\lib/libbackend_irt650_nxp2.a(backend_utils.o)
BS_offsetTblLenY                                  D:\Project\21.IR_Touch\BE_FW\wmc-ctsi-0850-fe-be-app\lib/libbackend_irt650_nxp2.a(backend_main.o)
                                                  D:\Project\21.IR_Touch\BE_FW\wmc-ctsi-0850-fe-be-app\lib/libbackend_irt650_nxp2.a(backend_fine.o)
                                                  D:\Project\21.IR_Touch\BE_FW\wmc-ctsi-0850-fe-be-app\lib/libbackend_irt650_nxp2.a(backend_utils.o)
BS_offsetTblX                                     D:\Project\21.IR_Touch\BE_FW\wmc-ctsi-0850-fe-be-app\lib/libbackend_irt650_nxp2.a(backend_main.o)
                                                  D:\Project\21.IR_Touch\BE_FW\wmc-ctsi-0850-fe-be-app\lib/libbackend_irt650_nxp2.a(backend_utils.o)
BS_offsetTblY                                     D:\Project\21.IR_Touch\BE_FW\wmc-ctsi-0850-fe-be-app\lib/libbackend_irt650_nxp2.a(backend_main.o)
                                                  D:\Project\21.IR_Touch\BE_FW\wmc-ctsi-0850-fe-be-app\lib/libbackend_irt650_nxp2.a(backend_utils.o)
BS_packEdgePatternMulti_ind                       D:\Project\21.IR_Touch\BE_FW\wmc-ctsi-0850-fe-be-app\lib/libbackend_irt650_nxp2.a(backend_multi.o)
BS_pclipping_info                                 D:\Project\21.IR_Touch\BE_FW\wmc-ctsi-0850-fe-be-app\lib/libbackend_irt650_nxp2.a(backend_multi.o)
BS_pd_pos_x                                       D:\Project\21.IR_Touch\BE_FW\wmc-ctsi-0850-fe-be-app\lib/libbackend_irt650_nxp2.a(IRTP_layout.o)
                                                  D:\Project\21.IR_Touch\BE_FW\wmc-ctsi-0850-fe-be-app\lib/libbackend_irt650_nxp2.a(backend_fine.o)
                                                  D:\Project\21.IR_Touch\BE_FW\wmc-ctsi-0850-fe-be-app\lib/libbackend_irt650_nxp2.a(backend_utils.o)
                                                  D:\Project\21.IR_Touch\BE_FW\wmc-ctsi-0850-fe-be-app\lib/libbackend_irt650_nxp2.a(backend_multi.o)
                                                  D:\Project\21.IR_Touch\BE_FW\wmc-ctsi-0850-fe-be-app\lib/libbackend_irt650_nxp2.a(backend_main.o)
BS_pd_pos_y                                       D:\Project\21.IR_Touch\BE_FW\wmc-ctsi-0850-fe-be-app\lib/libbackend_irt650_nxp2.a(IRTP_layout.o)
                                                  D:\Project\21.IR_Touch\BE_FW\wmc-ctsi-0850-fe-be-app\lib/libbackend_irt650_nxp2.a(backend_fine.o)
                                                  D:\Project\21.IR_Touch\BE_FW\wmc-ctsi-0850-fe-be-app\lib/libbackend_irt650_nxp2.a(backend_utils.o)
                                                  D:\Project\21.IR_Touch\BE_FW\wmc-ctsi-0850-fe-be-app\lib/libbackend_irt650_nxp2.a(backend_multi.o)
                                                  D:\Project\21.IR_Touch\BE_FW\wmc-ctsi-0850-fe-be-app\lib/libbackend_irt650_nxp2.a(backend_main.o)
BS_poly_e_clip                                    D:\Project\21.IR_Touch\BE_FW\wmc-ctsi-0850-fe-be-app\lib/libbackend_irt650_nxp2.a(backend_utils.o)
                                                  D:\Project\21.IR_Touch\BE_FW\wmc-ctsi-0850-fe-be-app\lib/libbackend_irt650_nxp2.a(backend_multi.o)
BS_poly_info_multi_x                              D:\Project\21.IR_Touch\BE_FW\wmc-ctsi-0850-fe-be-app\lib/libbackend_irt650_nxp2.a(backend_multi.o)
BS_poly_info_multi_y                              D:\Project\21.IR_Touch\BE_FW\wmc-ctsi-0850-fe-be-app\lib/libbackend_irt650_nxp2.a(backend_multi.o)
BS_rem_init_line_idx_res                          D:\Project\21.IR_Touch\BE_FW\wmc-ctsi-0850-fe-be-app\lib/libbackend_irt650_nxp2.a(backend_fine.o)
BS_rem_init_line_slope_idx                        D:\Project\21.IR_Touch\BE_FW\wmc-ctsi-0850-fe-be-app\lib/libbackend_irt650_nxp2.a(backend_fine.o)
BS_remained_sort                                  D:\Project\21.IR_Touch\BE_FW\wmc-ctsi-0850-fe-be-app\lib/libbackend_irt650_nxp2.a(backend_main.o)
                                                  D:\Project\21.IR_Touch\BE_FW\wmc-ctsi-0850-fe-be-app\lib/libbackend_irt650_nxp2.a(backend_fine.o)
BS_remained_used_x                                D:\Project\21.IR_Touch\BE_FW\wmc-ctsi-0850-fe-be-app\lib/libbackend_irt650_nxp2.a(backend_main.o)
BS_remained_used_y                                D:\Project\21.IR_Touch\BE_FW\wmc-ctsi-0850-fe-be-app\lib/libbackend_irt650_nxp2.a(backend_main.o)
BS_remained_x                                     D:\Project\21.IR_Touch\BE_FW\wmc-ctsi-0850-fe-be-app\lib/libbackend_irt650_nxp2.a(backend_main.o)
                                                  D:\Project\21.IR_Touch\BE_FW\wmc-ctsi-0850-fe-be-app\lib/libbackend_irt650_nxp2.a(backend_fine.o)
                                                  D:\Project\21.IR_Touch\BE_FW\wmc-ctsi-0850-fe-be-app\lib/libbackend_irt650_nxp2.a(backend_utils.o)
BS_remained_x_cnt                                 D:\Project\21.IR_Touch\BE_FW\wmc-ctsi-0850-fe-be-app\lib/libbackend_irt650_nxp2.a(backend_main.o)
                                                  D:\Project\21.IR_Touch\BE_FW\wmc-ctsi-0850-fe-be-app\lib/libbackend_irt650_nxp2.a(backend_fine.o)
                                                  D:\Project\21.IR_Touch\BE_FW\wmc-ctsi-0850-fe-be-app\lib/libbackend_irt650_nxp2.a(backend_utils.o)
BS_remained_y                                     D:\Project\21.IR_Touch\BE_FW\wmc-ctsi-0850-fe-be-app\lib/libbackend_irt650_nxp2.a(backend_main.o)
                                                  D:\Project\21.IR_Touch\BE_FW\wmc-ctsi-0850-fe-be-app\lib/libbackend_irt650_nxp2.a(backend_fine.o)
                                                  D:\Project\21.IR_Touch\BE_FW\wmc-ctsi-0850-fe-be-app\lib/libbackend_irt650_nxp2.a(backend_utils.o)
BS_remained_y_cnt                                 D:\Project\21.IR_Touch\BE_FW\wmc-ctsi-0850-fe-be-app\lib/libbackend_irt650_nxp2.a(backend_main.o)
                                                  D:\Project\21.IR_Touch\BE_FW\wmc-ctsi-0850-fe-be-app\lib/libbackend_irt650_nxp2.a(backend_fine.o)
                                                  D:\Project\21.IR_Touch\BE_FW\wmc-ctsi-0850-fe-be-app\lib/libbackend_irt650_nxp2.a(backend_utils.o)
BS_sensor_end_x                                   D:\Project\21.IR_Touch\BE_FW\wmc-ctsi-0850-fe-be-app\lib/libbackend_irt650_nxp2.a(IRTP_layout.o)
                                                  D:\Project\21.IR_Touch\BE_FW\wmc-ctsi-0850-fe-be-app\lib/libbackend_irt650_nxp2.a(backend_fine.o)
                                                  D:\Project\21.IR_Touch\BE_FW\wmc-ctsi-0850-fe-be-app\lib/libbackend_irt650_nxp2.a(backend_utils.o)
                                                  D:\Project\21.IR_Touch\BE_FW\wmc-ctsi-0850-fe-be-app\lib/libbackend_irt650_nxp2.a(backend_multi.o)
                                                  D:\Project\21.IR_Touch\BE_FW\wmc-ctsi-0850-fe-be-app\lib/libbackend_irt650_nxp2.a(backend_main.o)
BS_sensor_end_y                                   D:\Project\21.IR_Touch\BE_FW\wmc-ctsi-0850-fe-be-app\lib/libbackend_irt650_nxp2.a(IRTP_layout.o)
                                                  D:\Project\21.IR_Touch\BE_FW\wmc-ctsi-0850-fe-be-app\lib/libbackend_irt650_nxp2.a(backend_fine.o)
                                                  D:\Project\21.IR_Touch\BE_FW\wmc-ctsi-0850-fe-be-app\lib/libbackend_irt650_nxp2.a(backend_utils.o)
                                                  D:\Project\21.IR_Touch\BE_FW\wmc-ctsi-0850-fe-be-app\lib/libbackend_irt650_nxp2.a(backend_multi.o)
                                                  D:\Project\21.IR_Touch\BE_FW\wmc-ctsi-0850-fe-be-app\lib/libbackend_irt650_nxp2.a(backend_main.o)
BS_sensor_zero_x                                  D:\Project\21.IR_Touch\BE_FW\wmc-ctsi-0850-fe-be-app\lib/libbackend_irt650_nxp2.a(IRTP_layout.o)
                                                  D:\Project\21.IR_Touch\BE_FW\wmc-ctsi-0850-fe-be-app\lib/libbackend_irt650_nxp2.a(backend_fine.o)
                                                  D:\Project\21.IR_Touch\BE_FW\wmc-ctsi-0850-fe-be-app\lib/libbackend_irt650_nxp2.a(backend_utils.o)
                                                  D:\Project\21.IR_Touch\BE_FW\wmc-ctsi-0850-fe-be-app\lib/libbackend_irt650_nxp2.a(backend_multi.o)
                                                  D:\Project\21.IR_Touch\BE_FW\wmc-ctsi-0850-fe-be-app\lib/libbackend_irt650_nxp2.a(backend_main.o)
BS_sensor_zero_y                                  D:\Project\21.IR_Touch\BE_FW\wmc-ctsi-0850-fe-be-app\lib/libbackend_irt650_nxp2.a(IRTP_layout.o)
                                                  D:\Project\21.IR_Touch\BE_FW\wmc-ctsi-0850-fe-be-app\lib/libbackend_irt650_nxp2.a(backend_fine.o)
                                                  D:\Project\21.IR_Touch\BE_FW\wmc-ctsi-0850-fe-be-app\lib/libbackend_irt650_nxp2.a(backend_utils.o)
                                                  D:\Project\21.IR_Touch\BE_FW\wmc-ctsi-0850-fe-be-app\lib/libbackend_irt650_nxp2.a(backend_multi.o)
                                                  D:\Project\21.IR_Touch\BE_FW\wmc-ctsi-0850-fe-be-app\lib/libbackend_irt650_nxp2.a(backend_main.o)
BS_set_line_buffer                                D:\Project\21.IR_Touch\BE_FW\wmc-ctsi-0850-fe-be-app\lib/libbackend_irt650_nxp2.a(backend_main.o)
                                                  D:\Project\21.IR_Touch\BE_FW\wmc-ctsi-0850-fe-be-app\lib/libbackend_irt650_nxp2.a(backend_multi.o)
BS_set_unset2_used_led_pd                         D:\Project\21.IR_Touch\BE_FW\wmc-ctsi-0850-fe-be-app\lib/libbackend_irt650_nxp2.a(backend_main.o)
                                                  D:\Project\21.IR_Touch\BE_FW\wmc-ctsi-0850-fe-be-app\lib/libbackend_irt650_nxp2.a(backend_fine.o)
                                                  D:\Project\21.IR_Touch\BE_FW\wmc-ctsi-0850-fe-be-app\lib/libbackend_irt650_nxp2.a(backend_utils.o)
                                                  D:\Project\21.IR_Touch\BE_FW\wmc-ctsi-0850-fe-be-app\lib/libbackend_irt650_nxp2.a(backend_multi.o)
BS_slopeMinus                                     D:\Project\21.IR_Touch\BE_FW\wmc-ctsi-0850-fe-be-app\lib/libbackend_irt650_nxp2.a(backend_fine.o)
BS_slopeMinusIdx                                  D:\Project\21.IR_Touch\BE_FW\wmc-ctsi-0850-fe-be-app\lib/libbackend_irt650_nxp2.a(backend_fine.o)
BS_slopeMinusUncrossed                            D:\Project\21.IR_Touch\BE_FW\wmc-ctsi-0850-fe-be-app\lib/libbackend_irt650_nxp2.a(backend_fine.o)
BS_slopePlus                                      D:\Project\21.IR_Touch\BE_FW\wmc-ctsi-0850-fe-be-app\lib/libbackend_irt650_nxp2.a(backend_fine.o)
BS_slopePlusIdx                                   D:\Project\21.IR_Touch\BE_FW\wmc-ctsi-0850-fe-be-app\lib/libbackend_irt650_nxp2.a(backend_fine.o)
BS_slopePlusUncrossed                             D:\Project\21.IR_Touch\BE_FW\wmc-ctsi-0850-fe-be-app\lib/libbackend_irt650_nxp2.a(backend_fine.o)
BS_slopeValMaxX                                   D:\Project\21.IR_Touch\BE_FW\wmc-ctsi-0850-fe-be-app\lib/libbackend_irt650_nxp2.a(backend_main.o)
                                                  D:\Project\21.IR_Touch\BE_FW\wmc-ctsi-0850-fe-be-app\lib/libbackend_irt650_nxp2.a(backend_fine.o)
                                                  D:\Project\21.IR_Touch\BE_FW\wmc-ctsi-0850-fe-be-app\lib/libbackend_irt650_nxp2.a(backend_utils.o)
                                                  D:\Project\21.IR_Touch\BE_FW\wmc-ctsi-0850-fe-be-app\lib/libbackend_irt650_nxp2.a(backend_multi.o)
BS_slopeValMaxX2                                  D:\Project\21.IR_Touch\BE_FW\wmc-ctsi-0850-fe-be-app\lib/libbackend_irt650_nxp2.a(backend_main.o)
BS_slopeValMaxY                                   D:\Project\21.IR_Touch\BE_FW\wmc-ctsi-0850-fe-be-app\lib/libbackend_irt650_nxp2.a(backend_main.o)
                                                  D:\Project\21.IR_Touch\BE_FW\wmc-ctsi-0850-fe-be-app\lib/libbackend_irt650_nxp2.a(backend_fine.o)
                                                  D:\Project\21.IR_Touch\BE_FW\wmc-ctsi-0850-fe-be-app\lib/libbackend_irt650_nxp2.a(backend_utils.o)
                                                  D:\Project\21.IR_Touch\BE_FW\wmc-ctsi-0850-fe-be-app\lib/libbackend_irt650_nxp2.a(backend_multi.o)
BS_slopeValMaxY2                                  D:\Project\21.IR_Touch\BE_FW\wmc-ctsi-0850-fe-be-app\lib/libbackend_irt650_nxp2.a(backend_main.o)
BS_start_of_heap                                  D:\Project\21.IR_Touch\BE_FW\wmc-ctsi-0850-fe-be-app\lib/libbackend_irt650_nxp2.a(backend_utils.o)
BS_touch_info_fine                                D:\Project\21.IR_Touch\BE_FW\wmc-ctsi-0850-fe-be-app\lib/libbackend_irt650_nxp2.a(backend_fine.o)
BS_touch_info_fine_cnt                            D:\Project\21.IR_Touch\BE_FW\wmc-ctsi-0850-fe-be-app\lib/libbackend_irt650_nxp2.a(backend_fine.o)
BS_touch_info_multi                               D:\Project\21.IR_Touch\BE_FW\wmc-ctsi-0850-fe-be-app\lib/libbackend_irt650_nxp2.a(backend_multi.o)
BS_touch_info_multi_cnt                           D:\Project\21.IR_Touch\BE_FW\wmc-ctsi-0850-fe-be-app\lib/libbackend_irt650_nxp2.a(backend_multi.o)
                                                  D:\Project\21.IR_Touch\BE_FW\wmc-ctsi-0850-fe-be-app\lib/libbackend_irt650_nxp2.a(backend_main.o)
BS_touch_info_multi_cnt_sort                      D:\Project\21.IR_Touch\BE_FW\wmc-ctsi-0850-fe-be-app\lib/libbackend_irt650_nxp2.a(backend_multi.o)
BS_touch_info_multi_grp                           D:\Project\21.IR_Touch\BE_FW\wmc-ctsi-0850-fe-be-app\lib/libbackend_irt650_nxp2.a(backend_multi.o)
BS_touch_info_multi_sort                          D:\Project\21.IR_Touch\BE_FW\wmc-ctsi-0850-fe-be-app\lib/libbackend_irt650_nxp2.a(backend_multi.o)
BS_touch_sort                                     D:\Project\21.IR_Touch\BE_FW\wmc-ctsi-0850-fe-be-app\lib/libbackend_irt650_nxp2.a(backend_main.o)
BS_utils_malloc                                   D:\Project\21.IR_Touch\BE_FW\wmc-ctsi-0850-fe-be-app\lib/libbackend_irt650_nxp2.a(backend_utils.o)
                                                  D:\Project\21.IR_Touch\BE_FW\wmc-ctsi-0850-fe-be-app\lib/libbackend_irt650_nxp2.a(backend_main.o)
Brush_Process                                     ./source/backend_postp.o
Brush_Size_Status                                 ./source/backend_postp.o
BusFault_Handler                                  ./startup/startup_mimxrt1064.o
CAN1_DriverIRQHandler                             ./startup/startup_mimxrt1064.o
CAN1_IRQHandler                                   ./startup/startup_mimxrt1064.o
CAN2_DriverIRQHandler                             ./startup/startup_mimxrt1064.o
CAN2_IRQHandler                                   ./startup/startup_mimxrt1064.o
CAN3_DriverIRQHandler                             ./startup/startup_mimxrt1064.o
CAN3_IRQHandler                                   ./startup/startup_mimxrt1064.o
CCM_1_DriverIRQHandler                            ./startup/startup_mimxrt1064.o
CCM_1_IRQHandler                                  ./startup/startup_mimxrt1064.o
CCM_2_DriverIRQHandler                            ./startup/startup_mimxrt1064.o
CCM_2_IRQHandler                                  ./startup/startup_mimxrt1064.o
CLOCK_DeinitArmPll                                ./drivers/fsl_clock.o
CLOCK_DeinitAudioPll                              ./drivers/fsl_clock.o
                                                  ./board/clock_config.o
CLOCK_DeinitEnetPll                               ./drivers/fsl_clock.o
                                                  ./board/clock_config.o
CLOCK_DeinitExternalClk                           ./drivers/fsl_clock.o
CLOCK_DeinitRcOsc24M                              ./drivers/fsl_clock.o
CLOCK_DeinitSysPfd                                ./drivers/fsl_clock.o
CLOCK_DeinitSysPll                                ./drivers/fsl_clock.o
CLOCK_DeinitUsb1Pfd                               ./drivers/fsl_clock.o
CLOCK_DeinitUsb1Pll                               ./drivers/fsl_clock.o
CLOCK_DeinitUsb2Pll                               ./drivers/fsl_clock.o
                                                  ./board/clock_config.o
CLOCK_DeinitVideoPll                              ./drivers/fsl_clock.o
CLOCK_DisableUsbhs0PhyPllClock                    ./drivers/fsl_clock.o
CLOCK_DisableUsbhs1PhyPllClock                    ./drivers/fsl_clock.o
CLOCK_EnableUsbhs0Clock                           ./drivers/fsl_clock.o
                                                  ./source/composite.o
CLOCK_EnableUsbhs0PhyPllClock                     ./drivers/fsl_clock.o
                                                  ./source/composite.o
CLOCK_EnableUsbhs1Clock                           ./drivers/fsl_clock.o
CLOCK_EnableUsbhs1PhyPllClock                     ./drivers/fsl_clock.o
CLOCK_GetAhbFreq                                  ./drivers/fsl_clock.o
CLOCK_GetClockOutCLKO1Freq                        ./drivers/fsl_clock.o
CLOCK_GetClockOutClkO2Freq                        ./drivers/fsl_clock.o
CLOCK_GetClockRootFreq                            ./drivers/fsl_clock.o
CLOCK_GetFreq                                     ./drivers/fsl_clock.o
CLOCK_GetIpgFreq                                  ./drivers/fsl_clock.o
CLOCK_GetPerClkFreq                               ./drivers/fsl_clock.o
CLOCK_GetPllFreq                                  ./drivers/fsl_clock.o
                                                  ./board/board.o
CLOCK_GetSemcFreq                                 ./drivers/fsl_clock.o
CLOCK_GetSysPfdFreq                               ./drivers/fsl_clock.o
CLOCK_GetUsb1PfdFreq                              ./drivers/fsl_clock.o
CLOCK_InitArmPll                                  ./drivers/fsl_clock.o
                                                  ./board/clock_config.o
CLOCK_InitAudioPll                                ./drivers/fsl_clock.o
CLOCK_InitEnetPll                                 ./drivers/fsl_clock.o
CLOCK_InitExternalClk                             ./drivers/fsl_clock.o
                                                  ./board/clock_config.o
CLOCK_InitRcOsc24M                                ./drivers/fsl_clock.o
                                                  ./board/clock_config.o
CLOCK_InitSysPfd                                  ./drivers/fsl_clock.o
                                                  ./board/clock_config.o
CLOCK_InitSysPll                                  ./drivers/fsl_clock.o
                                                  ./board/clock_config.o
CLOCK_InitUsb1Pfd                                 ./drivers/fsl_clock.o
CLOCK_InitUsb1Pll                                 ./drivers/fsl_clock.o
CLOCK_InitUsb2Pll                                 ./drivers/fsl_clock.o
CLOCK_InitVideoPll                                ./drivers/fsl_clock.o
CLOCK_IsSysPfdEnabled                             ./drivers/fsl_clock.o
CLOCK_IsUsb1PfdEnabled                            ./drivers/fsl_clock.o
CLOCK_SetClockOutput1                             ./drivers/fsl_clock.o
CLOCK_SetClockOutput2                             ./drivers/fsl_clock.o
CLOCK_SwitchOsc                                   ./drivers/fsl_clock.o
                                                  ./board/clock_config.o
CORE_DriverIRQHandler                             ./startup/startup_mimxrt1064.o
CORE_IRQHandler                                   ./startup/startup_mimxrt1064.o
CSI_DriverIRQHandler                              ./startup/startup_mimxrt1064.o
CSI_IRQHandler                                    ./startup/startup_mimxrt1064.o
CSU_DriverIRQHandler                              ./startup/startup_mimxrt1064.o
CSU_IRQHandler                                    ./startup/startup_mimxrt1064.o
CTI0_ERROR_DriverIRQHandler                       ./startup/startup_mimxrt1064.o
CTI0_ERROR_IRQHandler                             ./startup/startup_mimxrt1064.o
CTI1_ERROR_DriverIRQHandler                       ./startup/startup_mimxrt1064.o
CTI1_ERROR_IRQHandler                             ./startup/startup_mimxrt1064.o
Calibration_Process                               ./source/Scan.o
Ctrl_Delay                                        ./source/delay.o
DCDC_DriverIRQHandler                             ./startup/startup_mimxrt1064.o
DCDC_IRQHandler                                   ./startup/startup_mimxrt1064.o
DCP_DriverIRQHandler                              ./startup/startup_mimxrt1064.o
DCP_IRQHandler                                    ./startup/startup_mimxrt1064.o
DCP_VMI_DriverIRQHandler                          ./startup/startup_mimxrt1064.o
DCP_VMI_IRQHandler                                ./startup/startup_mimxrt1064.o
DEBUG_delay                                       ./source/gpt.o
DLT_scan                                          ./source/dlt.o
DMA0_DMA16_DriverIRQHandler                       ./startup/startup_mimxrt1064.o
DMA0_DMA16_IRQHandler                             ./startup/startup_mimxrt1064.o
DMA10_DMA26_DriverIRQHandler                      ./startup/startup_mimxrt1064.o
DMA10_DMA26_IRQHandler                            ./startup/startup_mimxrt1064.o
DMA11_DMA27_DriverIRQHandler                      ./startup/startup_mimxrt1064.o
DMA11_DMA27_IRQHandler                            ./startup/startup_mimxrt1064.o
DMA12_DMA28_DriverIRQHandler                      ./startup/startup_mimxrt1064.o
DMA12_DMA28_IRQHandler                            ./startup/startup_mimxrt1064.o
DMA13_DMA29_DriverIRQHandler                      ./startup/startup_mimxrt1064.o
DMA13_DMA29_IRQHandler                            ./startup/startup_mimxrt1064.o
DMA14_DMA30_DriverIRQHandler                      ./startup/startup_mimxrt1064.o
DMA14_DMA30_IRQHandler                            ./startup/startup_mimxrt1064.o
DMA15_DMA31_DriverIRQHandler                      ./startup/startup_mimxrt1064.o
DMA15_DMA31_IRQHandler                            ./startup/startup_mimxrt1064.o
DMA1_DMA17_DriverIRQHandler                       ./startup/startup_mimxrt1064.o
DMA1_DMA17_IRQHandler                             ./startup/startup_mimxrt1064.o
DMA2_DMA18_DriverIRQHandler                       ./startup/startup_mimxrt1064.o
DMA2_DMA18_IRQHandler                             ./startup/startup_mimxrt1064.o
DMA3_DMA19_DriverIRQHandler                       ./startup/startup_mimxrt1064.o
DMA3_DMA19_IRQHandler                             ./startup/startup_mimxrt1064.o
DMA4_DMA20_DriverIRQHandler                       ./startup/startup_mimxrt1064.o
DMA4_DMA20_IRQHandler                             ./startup/startup_mimxrt1064.o
DMA5_DMA21_DriverIRQHandler                       ./startup/startup_mimxrt1064.o
DMA5_DMA21_IRQHandler                             ./startup/startup_mimxrt1064.o
DMA6_DMA22_DriverIRQHandler                       ./startup/startup_mimxrt1064.o
DMA6_DMA22_IRQHandler                             ./startup/startup_mimxrt1064.o
DMA7_DMA23_DriverIRQHandler                       ./startup/startup_mimxrt1064.o
DMA7_DMA23_IRQHandler                             ./startup/startup_mimxrt1064.o
DMA8_DMA24_DriverIRQHandler                       ./startup/startup_mimxrt1064.o
DMA8_DMA24_IRQHandler                             ./startup/startup_mimxrt1064.o
DMA9_DMA25_DriverIRQHandler                       ./startup/startup_mimxrt1064.o
DMA9_DMA25_IRQHandler                             ./startup/startup_mimxrt1064.o
DMA_ERROR_DriverIRQHandler                        ./startup/startup_mimxrt1064.o
DMA_ERROR_IRQHandler                              ./startup/startup_mimxrt1064.o
DWT_Init                                          ./source/app.o
DbgConsole_BlockingPrintf                         ./utilities/fsl_debug_console.o
DbgConsole_BlockingVprintf                        ./utilities/fsl_debug_console.o
DbgConsole_Deinit                                 ./utilities/fsl_debug_console.o
DbgConsole_EnterLowpower                          ./utilities/fsl_debug_console.o
DbgConsole_ExitLowpower                           ./utilities/fsl_debug_console.o
DbgConsole_Flush                                  ./utilities/fsl_debug_console.o
DbgConsole_Getchar                                ./utilities/fsl_debug_console.o
DbgConsole_Init                                   ./utilities/fsl_debug_console.o
                                                  ./board/board.o
DbgConsole_Printf                                 ./utilities/fsl_debug_console.o
DbgConsole_Putchar                                ./utilities/fsl_debug_console.o
DbgConsole_ReadCharacter                          ./utilities/fsl_debug_console.o
DbgConsole_ReadLine                               ./utilities/fsl_debug_console.o
DbgConsole_ReadOneCharacter                       ./utilities/fsl_debug_console.o
DbgConsole_Scanf                                  ./utilities/fsl_debug_console.o
DbgConsole_SendData                               ./utilities/fsl_debug_console.o
DbgConsole_SendDataReliable                       ./utilities/fsl_debug_console.o
DbgConsole_Vprintf                                ./utilities/fsl_debug_console.o
DebugMon_Handler                                  ./startup/startup_mimxrt1064.o
Digitizer_Send_time                               ./source/app.o
DltParam                                          ./source/app.o
DoSoftReset                                       ./source/app.o
ENC1_DriverIRQHandler                             ./startup/startup_mimxrt1064.o
ENC1_IRQHandler                                   ./startup/startup_mimxrt1064.o
ENC2_DriverIRQHandler                             ./startup/startup_mimxrt1064.o
ENC2_IRQHandler                                   ./startup/startup_mimxrt1064.o
ENC3_DriverIRQHandler                             ./startup/startup_mimxrt1064.o
ENC3_IRQHandler                                   ./startup/startup_mimxrt1064.o
ENC4_DriverIRQHandler                             ./startup/startup_mimxrt1064.o
ENC4_IRQHandler                                   ./startup/startup_mimxrt1064.o
ENET2_1588_Timer_DriverIRQHandler                 ./startup/startup_mimxrt1064.o
ENET2_1588_Timer_IRQHandler                       ./startup/startup_mimxrt1064.o
ENET2_DriverIRQHandler                            ./startup/startup_mimxrt1064.o
ENET2_IRQHandler                                  ./startup/startup_mimxrt1064.o
ENET_1588_Timer_DriverIRQHandler                  ./startup/startup_mimxrt1064.o
ENET_1588_Timer_IRQHandler                        ./startup/startup_mimxrt1064.o
ENET_DriverIRQHandler                             ./startup/startup_mimxrt1064.o
ENET_IRQHandler                                   ./startup/startup_mimxrt1064.o
EWM_DriverIRQHandler                              ./startup/startup_mimxrt1064.o
EWM_IRQHandler                                    ./startup/startup_mimxrt1064.o
Exb_Send_Buf                                      ./source/dlt.o
                                                  ./source/app.o
                                                  ./source/Scan.o
FLEXIO1_DriverIRQHandler                          ./startup/startup_mimxrt1064.o
FLEXIO1_IRQHandler                                ./startup/startup_mimxrt1064.o
FLEXIO2_DriverIRQHandler                          ./startup/startup_mimxrt1064.o
FLEXIO2_IRQHandler                                ./startup/startup_mimxrt1064.o
FLEXIO3_DriverIRQHandler                          ./startup/startup_mimxrt1064.o
FLEXIO3_IRQHandler                                ./startup/startup_mimxrt1064.o
FLEXRAM_DriverIRQHandler                          ./startup/startup_mimxrt1064.o
FLEXRAM_IRQHandler                                ./startup/startup_mimxrt1064.o
FLEXSPI2_DriverIRQHandler                         ./startup/startup_mimxrt1064.o
FLEXSPI2_IRQHandler                               ./startup/startup_mimxrt1064.o
FLEXSPI_DriverIRQHandler                          ./startup/startup_mimxrt1064.o
FLEXSPI_IRQHandler                                ./startup/startup_mimxrt1064.o
GPC_DriverIRQHandler                              ./startup/startup_mimxrt1064.o
GPC_IRQHandler                                    ./startup/startup_mimxrt1064.o
GPIO10_DriverIRQHandler                           ./startup/startup_mimxrt1064.o
GPIO10_IRQHandler                                 ./startup/startup_mimxrt1064.o
GPIO1_Combined_0_15_DriverIRQHandler              ./startup/startup_mimxrt1064.o
GPIO1_Combined_0_15_IRQHandler                    ./startup/startup_mimxrt1064.o
GPIO1_Combined_16_31_DriverIRQHandler             ./startup/startup_mimxrt1064.o
GPIO1_Combined_16_31_IRQHandler                   ./startup/startup_mimxrt1064.o
GPIO1_INT0_DriverIRQHandler                       ./startup/startup_mimxrt1064.o
GPIO1_INT0_IRQHandler                             ./startup/startup_mimxrt1064.o
GPIO1_INT1_DriverIRQHandler                       ./startup/startup_mimxrt1064.o
GPIO1_INT1_IRQHandler                             ./startup/startup_mimxrt1064.o
GPIO1_INT2_DriverIRQHandler                       ./startup/startup_mimxrt1064.o
GPIO1_INT2_IRQHandler                             ./startup/startup_mimxrt1064.o
GPIO1_INT3_DriverIRQHandler                       ./startup/startup_mimxrt1064.o
GPIO1_INT3_IRQHandler                             ./startup/startup_mimxrt1064.o
GPIO1_INT4_DriverIRQHandler                       ./startup/startup_mimxrt1064.o
GPIO1_INT4_IRQHandler                             ./startup/startup_mimxrt1064.o
GPIO1_INT5_DriverIRQHandler                       ./startup/startup_mimxrt1064.o
GPIO1_INT5_IRQHandler                             ./startup/startup_mimxrt1064.o
GPIO1_INT6_DriverIRQHandler                       ./startup/startup_mimxrt1064.o
GPIO1_INT6_IRQHandler                             ./startup/startup_mimxrt1064.o
GPIO1_INT7_DriverIRQHandler                       ./startup/startup_mimxrt1064.o
GPIO1_INT7_IRQHandler                             ./startup/startup_mimxrt1064.o
GPIO2_Combined_0_15_DriverIRQHandler              ./startup/startup_mimxrt1064.o
GPIO2_Combined_0_15_IRQHandler                    ./startup/startup_mimxrt1064.o
GPIO2_Combined_16_31_DriverIRQHandler             ./startup/startup_mimxrt1064.o
GPIO2_Combined_16_31_IRQHandler                   ./startup/startup_mimxrt1064.o
GPIO3_Combined_0_15_DriverIRQHandler              ./startup/startup_mimxrt1064.o
GPIO3_Combined_0_15_IRQHandler                    ./startup/startup_mimxrt1064.o
GPIO3_Combined_16_31_DriverIRQHandler             ./startup/startup_mimxrt1064.o
GPIO3_Combined_16_31_IRQHandler                   ./startup/startup_mimxrt1064.o
GPIO4_Combined_0_15_DriverIRQHandler              ./startup/startup_mimxrt1064.o
GPIO4_Combined_0_15_IRQHandler                    ./startup/startup_mimxrt1064.o
GPIO4_Combined_16_31_DriverIRQHandler             ./startup/startup_mimxrt1064.o
GPIO4_Combined_16_31_IRQHandler                   ./startup/startup_mimxrt1064.o
GPIO5_Combined_0_15_DriverIRQHandler              ./startup/startup_mimxrt1064.o
GPIO5_Combined_0_15_IRQHandler                    ./startup/startup_mimxrt1064.o
GPIO5_Combined_16_31_DriverIRQHandler             ./startup/startup_mimxrt1064.o
GPIO5_Combined_16_31_IRQHandler                   ./startup/startup_mimxrt1064.o
GPIO6_7_8_9_DriverIRQHandler                      ./startup/startup_mimxrt1064.o
GPIO6_7_8_9_IRQHandler                            ./startup/startup_mimxrt1064.o
GPIO_PinInit                                      ./drivers/fsl_gpio.o
                                                  ./board/pin_mux.o
GPIO_PinSetInterruptConfig                        ./drivers/fsl_gpio.o
GPIO_PinWrite                                     ./drivers/fsl_gpio.o
GPR_IRQ_DriverIRQHandler                          ./startup/startup_mimxrt1064.o
GPR_IRQ_IRQHandler                                ./startup/startup_mimxrt1064.o
GPT1_DriverIRQHandler                             ./startup/startup_mimxrt1064.o
GPT1_IRQHandler                                   ./startup/startup_mimxrt1064.o
GPT1_Time_Var_Init                                ./source/gpt.o
GPT2_DriverIRQHandler                             ./startup/startup_mimxrt1064.o
GPT2_IRQHandler                                   ./startup/startup_mimxrt1064.o
GPT_1_config                                      ./source/app.o
GPT_2_GPT_IRQHANDLER                              ./source/gpt.o
GPT_Deinit                                        ./drivers/fsl_gpt.o
GPT_GetDefaultConfig                              ./drivers/fsl_gpt.o
GPT_Init                                          ./drivers/fsl_gpt.o
                                                  ./board/peripherals.o
                                                  ./source/app.o
GetSlope                                          ./source/backend_postp.o
GetTHD                                            ./source/backend_postp.o
GetYIntercept                                     ./source/backend_postp.o
HAL_UartDeinit                                    ./component/uart/fsl_adapter_lpuart.o
                                                  ./component/serial_manager/fsl_component_serial_port_uart.o
HAL_UartEnterLowpower                             ./component/uart/fsl_adapter_lpuart.o
                                                  ./component/serial_manager/fsl_component_serial_port_uart.o
HAL_UartExitLowpower                              ./component/uart/fsl_adapter_lpuart.o
                                                  ./component/serial_manager/fsl_component_serial_port_uart.o
HAL_UartInit                                      ./component/uart/fsl_adapter_lpuart.o
                                                  ./component/serial_manager/fsl_component_serial_port_uart.o
HAL_UartReceiveBlocking                           ./component/uart/fsl_adapter_lpuart.o
                                                  ./component/serial_manager/fsl_component_serial_port_uart.o
HAL_UartSendBlocking                              ./component/uart/fsl_adapter_lpuart.o
                                                  ./component/serial_manager/fsl_component_serial_port_uart.o
HardFault_Handler                                 ./source/semihost_hardfault.o
                                                  ./startup/startup_mimxrt1064.o
IntDefaultHandler                                 ./startup/startup_mimxrt1064.o
IsEdge                                            ./source/backend_postp.o
IsSide                                            ./source/backend_postp.o
KPP_DriverIRQHandler                              ./startup/startup_mimxrt1064.o
KPP_IRQHandler                                    ./startup/startup_mimxrt1064.o
LCDIF_DriverIRQHandler                            ./startup/startup_mimxrt1064.o
LCDIF_IRQHandler                                  ./startup/startup_mimxrt1064.o
LED_Auto_Gain_ControlWithTryCnt                   ./source/Scan.o
LED_On_Delay                                      ./source/delay.o
LIST_AddHead                                      ./component/lists/fsl_component_generic_list.o
LIST_AddPrevElement                               ./component/lists/fsl_component_generic_list.o
LIST_AddTail                                      ./component/lists/fsl_component_generic_list.o
LIST_GetAvailableSize                             ./component/lists/fsl_component_generic_list.o
LIST_GetHead                                      ./component/lists/fsl_component_generic_list.o
LIST_GetList                                      ./component/lists/fsl_component_generic_list.o
LIST_GetNext                                      ./component/lists/fsl_component_generic_list.o
LIST_GetPrev                                      ./component/lists/fsl_component_generic_list.o
LIST_GetSize                                      ./component/lists/fsl_component_generic_list.o
LIST_Init                                         ./component/lists/fsl_component_generic_list.o
LIST_RemoveElement                                ./component/lists/fsl_component_generic_list.o
LIST_RemoveHead                                   ./component/lists/fsl_component_generic_list.o
LPI2C1_DriverIRQHandler                           ./startup/startup_mimxrt1064.o
LPI2C1_IRQHandler                                 ./startup/startup_mimxrt1064.o
LPI2C2_DriverIRQHandler                           ./startup/startup_mimxrt1064.o
LPI2C2_IRQHandler                                 ./startup/startup_mimxrt1064.o
LPI2C3_DriverIRQHandler                           ./startup/startup_mimxrt1064.o
LPI2C3_IRQHandler                                 ./startup/startup_mimxrt1064.o
LPI2C4_DriverIRQHandler                           ./startup/startup_mimxrt1064.o
LPI2C4_IRQHandler                                 ./startup/startup_mimxrt1064.o
LPSPI1_DriverIRQHandler                           ./startup/startup_mimxrt1064.o
LPSPI1_IRQHandler                                 ./startup/startup_mimxrt1064.o
LPSPI2_DriverIRQHandler                           ./startup/startup_mimxrt1064.o
LPSPI2_IRQHandler                                 ./startup/startup_mimxrt1064.o
LPSPI3_DriverIRQHandler                           ./startup/startup_mimxrt1064.o
LPSPI3_IRQHandler                                 ./startup/startup_mimxrt1064.o
LPSPI4_DriverIRQHandler                           ./startup/startup_mimxrt1064.o
LPSPI4_IRQHandler                                 ./startup/startup_mimxrt1064.o
LPUART1_DriverIRQHandler                          ./drivers/fsl_lpuart.o
                                                  ./startup/startup_mimxrt1064.o
LPUART1_IRQHandler                                ./startup/startup_mimxrt1064.o
LPUART2_DriverIRQHandler                          ./drivers/fsl_lpuart.o
                                                  ./startup/startup_mimxrt1064.o
LPUART2_IRQHandler                                ./startup/startup_mimxrt1064.o
LPUART3_DriverIRQHandler                          ./drivers/fsl_lpuart.o
                                                  ./startup/startup_mimxrt1064.o
LPUART3_IRQHandler                                ./startup/startup_mimxrt1064.o
LPUART4_DriverIRQHandler                          ./drivers/fsl_lpuart.o
                                                  ./startup/startup_mimxrt1064.o
LPUART4_IRQHandler                                ./startup/startup_mimxrt1064.o
LPUART5_DriverIRQHandler                          ./drivers/fsl_lpuart.o
                                                  ./startup/startup_mimxrt1064.o
LPUART5_IRQHandler                                ./startup/startup_mimxrt1064.o
LPUART6_DriverIRQHandler                          ./drivers/fsl_lpuart.o
                                                  ./startup/startup_mimxrt1064.o
LPUART6_IRQHandler                                ./startup/startup_mimxrt1064.o
LPUART7_DriverIRQHandler                          ./drivers/fsl_lpuart.o
                                                  ./startup/startup_mimxrt1064.o
LPUART7_IRQHandler                                ./startup/startup_mimxrt1064.o
LPUART8_DriverIRQHandler                          ./drivers/fsl_lpuart.o
                                                  ./startup/startup_mimxrt1064.o
LPUART8_IRQHandler                                ./startup/startup_mimxrt1064.o
LPUART_ClearStatusFlags                           ./drivers/fsl_lpuart.o
LPUART_Deinit                                     ./drivers/fsl_lpuart.o
                                                  ./component/uart/fsl_adapter_lpuart.o
LPUART_DisableInterrupts                          ./drivers/fsl_lpuart.o
LPUART_Enable9bitMode                             ./drivers/fsl_lpuart.o
LPUART_EnableInterrupts                           ./drivers/fsl_lpuart.o
LPUART_GetDefaultConfig                           ./drivers/fsl_lpuart.o
                                                  ./component/uart/fsl_adapter_lpuart.o
LPUART_GetEnabledInterrupts                       ./drivers/fsl_lpuart.o
LPUART_GetInstance                                ./drivers/fsl_lpuart.o
LPUART_GetStatusFlags                             ./drivers/fsl_lpuart.o
LPUART_Init                                       ./drivers/fsl_lpuart.o
                                                  ./board/peripherals.o
                                                  ./component/uart/fsl_adapter_lpuart.o
LPUART_ReadBlocking                               ./drivers/fsl_lpuart.o
                                                  ./component/uart/fsl_adapter_lpuart.o
LPUART_SendAddress                                ./drivers/fsl_lpuart.o
LPUART_SetBaudRate                                ./drivers/fsl_lpuart.o
LPUART_TransferAbortReceive                       ./drivers/fsl_lpuart.o
LPUART_TransferAbortSend                          ./drivers/fsl_lpuart.o
LPUART_TransferCreateHandle                       ./drivers/fsl_lpuart.o
LPUART_TransferGetReceiveCount                    ./drivers/fsl_lpuart.o
LPUART_TransferGetRxRingBufferLength              ./drivers/fsl_lpuart.o
LPUART_TransferGetSendCount                       ./drivers/fsl_lpuart.o
LPUART_TransferHandleErrorIRQ                     ./drivers/fsl_lpuart.o
LPUART_TransferHandleIRQ                          ./drivers/fsl_lpuart.o
LPUART_TransferReceiveNonBlocking                 ./drivers/fsl_lpuart.o
LPUART_TransferSendNonBlocking                    ./drivers/fsl_lpuart.o
LPUART_TransferStartRingBuffer                    ./drivers/fsl_lpuart.o
LPUART_TransferStopRingBuffer                     ./drivers/fsl_lpuart.o
LPUART_WriteBlocking                              ./drivers/fsl_lpuart.o
                                                  ./component/uart/fsl_adapter_lpuart.o
LedSinkCurrentTbl                                 ./source/scan_table.o
                                                  ./source/Scan.o
Led_CurrentTbl_Adj_DAC                            ./source/Scan.o
LineThresholdValue                                ./source/app.o
MSDK_EnableCpuCycleCounter                        ./drivers/fsl_common_arm.o
MSDK_GetCpuCycleCount                             ./drivers/fsl_common_arm.o
MY_WDOG_reset_init                                ./source/app.o
MY_WDOG_soft_reset                                ./source/app.o
MY_WDOG_system_reset_reason                       ./source/app.o
MY_delay                                          ./source/app.o
MemManage_Handler                                 ./startup/startup_mimxrt1064.o
Move_Status                                       ./source/backend_postp.o
NMI_Handler                                       ./startup/startup_mimxrt1064.o
OSA_DisableIRQGlobal                              ./component/osa/fsl_os_abstraction_bm.o
OSA_EnableIRQGlobal                               ./component/osa/fsl_os_abstraction_bm.o
OSA_EnterCritical                                 ./component/osa/fsl_os_abstraction_bm.o
                                                  ./usb/device/class/usb_device_class.o
                                                  ./usb/device/source/usb_device_dci.o
                                                  ./usb/device/source/ehci/usb_device_ehci.o
OSA_EventClear                                    ./component/osa/fsl_os_abstraction_bm.o
OSA_EventCreate                                   ./component/osa/fsl_os_abstraction_bm.o
OSA_EventDestroy                                  ./component/osa/fsl_os_abstraction_bm.o
OSA_EventGet                                      ./component/osa/fsl_os_abstraction_bm.o
OSA_EventPrecreate                                ./component/osa/fsl_os_abstraction_bm.o
OSA_EventSet                                      ./component/osa/fsl_os_abstraction_bm.o
OSA_EventWait                                     ./component/osa/fsl_os_abstraction_bm.o
OSA_ExitCritical                                  ./component/osa/fsl_os_abstraction_bm.o
                                                  ./usb/device/class/usb_device_class.o
                                                  ./usb/device/source/usb_device_dci.o
                                                  ./usb/device/source/ehci/usb_device_ehci.o
OSA_InstallIntHandler                             ./component/osa/fsl_os_abstraction_bm.o
OSA_InterruptDisable                              ./component/osa/fsl_os_abstraction_bm.o
OSA_InterruptEnable                               ./component/osa/fsl_os_abstraction_bm.o
OSA_MemoryAllocate                                ./component/osa/fsl_os_abstraction_bm.o
OSA_MemoryFree                                    ./component/osa/fsl_os_abstraction_bm.o
OSA_MsgQAvailableMsgs                             ./component/osa/fsl_os_abstraction_bm.o
OSA_MsgQCreate                                    ./component/osa/fsl_os_abstraction_bm.o
OSA_MsgQDestroy                                   ./component/osa/fsl_os_abstraction_bm.o
OSA_MsgQGet                                       ./component/osa/fsl_os_abstraction_bm.o
OSA_MsgQPut                                       ./component/osa/fsl_os_abstraction_bm.o
OSA_MutexCreate                                   ./component/osa/fsl_os_abstraction_bm.o
OSA_MutexDestroy                                  ./component/osa/fsl_os_abstraction_bm.o
OSA_MutexLock                                     ./component/osa/fsl_os_abstraction_bm.o
OSA_MutexUnlock                                   ./component/osa/fsl_os_abstraction_bm.o
OSA_SemaphoreCreate                               ./component/osa/fsl_os_abstraction_bm.o
OSA_SemaphoreCreateBinary                         ./component/osa/fsl_os_abstraction_bm.o
OSA_SemaphoreDestroy                              ./component/osa/fsl_os_abstraction_bm.o
OSA_SemaphorePost                                 ./component/osa/fsl_os_abstraction_bm.o
OSA_SemaphorePrecreate                            ./component/osa/fsl_os_abstraction_bm.o
OSA_SemaphoreWait                                 ./component/osa/fsl_os_abstraction_bm.o
OSA_TimeDelay                                     ./component/osa/fsl_os_abstraction_bm.o
OSA_TimeDiff                                      ./component/osa/fsl_os_abstraction_bm.o
OSA_TimeGetMsec                                   ./component/osa/fsl_os_abstraction_bm.o
OSA_TimeInit                                      ./component/osa/fsl_os_abstraction_bm.o
PIT_DriverIRQHandler                              ./startup/startup_mimxrt1064.o
PIT_IRQHandler                                    ./startup/startup_mimxrt1064.o
PMU_EVENT_DriverIRQHandler                        ./startup/startup_mimxrt1064.o
PMU_EVENT_IRQHandler                              ./startup/startup_mimxrt1064.o
PWM1_0_DriverIRQHandler                           ./startup/startup_mimxrt1064.o
PWM1_0_IRQHandler                                 ./startup/startup_mimxrt1064.o
PWM1_1_DriverIRQHandler                           ./startup/startup_mimxrt1064.o
PWM1_1_IRQHandler                                 ./startup/startup_mimxrt1064.o
PWM1_2_DriverIRQHandler                           ./startup/startup_mimxrt1064.o
PWM1_2_IRQHandler                                 ./startup/startup_mimxrt1064.o
PWM1_3_DriverIRQHandler                           ./startup/startup_mimxrt1064.o
PWM1_3_IRQHandler                                 ./startup/startup_mimxrt1064.o
PWM1_FAULT_DriverIRQHandler                       ./startup/startup_mimxrt1064.o
PWM1_FAULT_IRQHandler                             ./startup/startup_mimxrt1064.o
PWM2_0_DriverIRQHandler                           ./startup/startup_mimxrt1064.o
PWM2_0_IRQHandler                                 ./startup/startup_mimxrt1064.o
PWM2_1_DriverIRQHandler                           ./startup/startup_mimxrt1064.o
PWM2_1_IRQHandler                                 ./startup/startup_mimxrt1064.o
PWM2_2_DriverIRQHandler                           ./startup/startup_mimxrt1064.o
PWM2_2_IRQHandler                                 ./startup/startup_mimxrt1064.o
PWM2_3_DriverIRQHandler                           ./startup/startup_mimxrt1064.o
PWM2_3_IRQHandler                                 ./startup/startup_mimxrt1064.o
PWM2_FAULT_DriverIRQHandler                       ./startup/startup_mimxrt1064.o
PWM2_FAULT_IRQHandler                             ./startup/startup_mimxrt1064.o
PWM3_0_DriverIRQHandler                           ./startup/startup_mimxrt1064.o
PWM3_0_IRQHandler                                 ./startup/startup_mimxrt1064.o
PWM3_1_DriverIRQHandler                           ./startup/startup_mimxrt1064.o
PWM3_1_IRQHandler                                 ./startup/startup_mimxrt1064.o
PWM3_2_DriverIRQHandler                           ./startup/startup_mimxrt1064.o
PWM3_2_IRQHandler                                 ./startup/startup_mimxrt1064.o
PWM3_3_DriverIRQHandler                           ./startup/startup_mimxrt1064.o
PWM3_3_IRQHandler                                 ./startup/startup_mimxrt1064.o
PWM3_FAULT_DriverIRQHandler                       ./startup/startup_mimxrt1064.o
PWM3_FAULT_IRQHandler                             ./startup/startup_mimxrt1064.o
PWM4_0_DriverIRQHandler                           ./startup/startup_mimxrt1064.o
PWM4_0_IRQHandler                                 ./startup/startup_mimxrt1064.o
PWM4_1_DriverIRQHandler                           ./startup/startup_mimxrt1064.o
PWM4_1_IRQHandler                                 ./startup/startup_mimxrt1064.o
PWM4_2_DriverIRQHandler                           ./startup/startup_mimxrt1064.o
PWM4_2_IRQHandler                                 ./startup/startup_mimxrt1064.o
PWM4_3_DriverIRQHandler                           ./startup/startup_mimxrt1064.o
PWM4_3_IRQHandler                                 ./startup/startup_mimxrt1064.o
PWM4_FAULT_DriverIRQHandler                       ./startup/startup_mimxrt1064.o
PWM4_FAULT_IRQHandler                             ./startup/startup_mimxrt1064.o
PXP_DriverIRQHandler                              ./startup/startup_mimxrt1064.o
PXP_IRQHandler                                    ./startup/startup_mimxrt1064.o
PendSV_Handler                                    ./startup/startup_mimxrt1064.o
QTMR_ClearStatusFlags                             ./drivers/fsl_qtmr.o
QTMR_Deinit                                       ./drivers/fsl_qtmr.o
QTMR_DisableDma                                   ./drivers/fsl_qtmr.o
QTMR_DisableInterrupts                            ./drivers/fsl_qtmr.o
QTMR_EnableDma                                    ./drivers/fsl_qtmr.o
QTMR_EnableInterrupts                             ./drivers/fsl_qtmr.o
QTMR_GetDefaultConfig                             ./drivers/fsl_qtmr.o
QTMR_GetEnabledInterrupts                         ./drivers/fsl_qtmr.o
QTMR_GetPwmChannelStatus                          ./drivers/fsl_qtmr.o
QTMR_GetStatus                                    ./drivers/fsl_qtmr.o
QTMR_Init                                         ./drivers/fsl_qtmr.o
                                                  ./board/peripherals.o
QTMR_SetCompareValue                              ./drivers/fsl_qtmr.o
QTMR_SetPwmClockMode                              ./drivers/fsl_qtmr.o
QTMR_SetPwmOutputToIdle                           ./drivers/fsl_qtmr.o
QTMR_SetTimerPeriod                               ./drivers/fsl_qtmr.o
QTMR_SetupInputCapture                            ./drivers/fsl_qtmr.o
QTMR_SetupPwm                                     ./drivers/fsl_qtmr.o
                                                  ./board/peripherals.o
RTWDOG_DriverIRQHandler                           ./startup/startup_mimxrt1064.o
RTWDOG_IRQHandler                                 ./startup/startup_mimxrt1064.o
Real_Pressure                                     ./source/backend_postp.o
ReceiveCmdParser                                  ./source/app.o
Reserved115_DriverIRQHandler                      ./startup/startup_mimxrt1064.o
Reserved115_IRQHandler                            ./startup/startup_mimxrt1064.o
Reserved143_DriverIRQHandler                      ./startup/startup_mimxrt1064.o
Reserved143_IRQHandler                            ./startup/startup_mimxrt1064.o
Reserved144_DriverIRQHandler                      ./startup/startup_mimxrt1064.o
Reserved144_IRQHandler                            ./startup/startup_mimxrt1064.o
Reserved171_DriverIRQHandler                      ./startup/startup_mimxrt1064.o
Reserved171_IRQHandler                            ./startup/startup_mimxrt1064.o
Reserved68_DriverIRQHandler                       ./startup/startup_mimxrt1064.o
Reserved68_IRQHandler                             ./startup/startup_mimxrt1064.o
Reserved78_DriverIRQHandler                       ./startup/startup_mimxrt1064.o
Reserved78_IRQHandler                             ./startup/startup_mimxrt1064.o
Reserved86_DriverIRQHandler                       ./startup/startup_mimxrt1064.o
Reserved86_IRQHandler                             ./startup/startup_mimxrt1064.o
ResetISR                                          ./startup/startup_mimxrt1064.o
SAI1_DriverIRQHandler                             ./startup/startup_mimxrt1064.o
SAI1_IRQHandler                                   ./startup/startup_mimxrt1064.o
SAI2_DriverIRQHandler                             ./startup/startup_mimxrt1064.o
SAI2_IRQHandler                                   ./startup/startup_mimxrt1064.o
SAI3_RX_DriverIRQHandler                          ./startup/startup_mimxrt1064.o
SAI3_RX_IRQHandler                                ./startup/startup_mimxrt1064.o
SAI3_TX_DriverIRQHandler                          ./startup/startup_mimxrt1064.o
SAI3_TX_IRQHandler                                ./startup/startup_mimxrt1064.o
SDK_DelayAtLeastUs                                ./drivers/fsl_common_arm.o
SDK_Free                                          ./drivers/fsl_common.o
SDK_Malloc                                        ./drivers/fsl_common.o
SEMC_DriverIRQHandler                             ./startup/startup_mimxrt1064.o
SEMC_IRQHandler                                   ./startup/startup_mimxrt1064.o
SJC_DriverIRQHandler                              ./startup/startup_mimxrt1064.o
SJC_IRQHandler                                    ./startup/startup_mimxrt1064.o
SNVS_HP_WRAPPER_DriverIRQHandler                  ./startup/startup_mimxrt1064.o
SNVS_HP_WRAPPER_IRQHandler                        ./startup/startup_mimxrt1064.o
SNVS_HP_WRAPPER_TZ_DriverIRQHandler               ./startup/startup_mimxrt1064.o
SNVS_HP_WRAPPER_TZ_IRQHandler                     ./startup/startup_mimxrt1064.o
SNVS_LP_WRAPPER_DriverIRQHandler                  ./startup/startup_mimxrt1064.o
SNVS_LP_WRAPPER_IRQHandler                        ./startup/startup_mimxrt1064.o
SPDIF_DriverIRQHandler                            ./startup/startup_mimxrt1064.o
SPDIF_IRQHandler                                  ./startup/startup_mimxrt1064.o
SRC_DriverIRQHandler                              ./startup/startup_mimxrt1064.o
SRC_IRQHandler                                    ./startup/startup_mimxrt1064.o
SVC_Handler                                       ./startup/startup_mimxrt1064.o
Scan_Data_Process                                 ./source/Scan.o
                                                  ./source/app.o
Scan_GPIO_PortSet                                 ./source/gpio.o
Scan_Initialize                                   ./source/Scan.o
                                                  ./source/app.o
Scan_Process                                      ./source/Scan.o
                                                  ./source/app.o
Scan_Start_Time                                   ./source/gpt.o
Scan_Wait_Time                                    ./source/gpt.o
Send_ADC_Data_to_USBCPU                           ./source/dlt.o
Send_ExbBit_Data_to_USBCPU_Init                   ./source/dlt.o
                                                  ./source/Scan.o
Send_ExbBit_Data_to_USBCPU_size                   ./source/dlt.o
SerialManager_CloseReadHandle                     ./component/serial_manager/fsl_component_serial_manager.o
                                                  ./utilities/fsl_debug_console.o
SerialManager_CloseWriteHandle                    ./component/serial_manager/fsl_component_serial_manager.o
                                                  ./utilities/fsl_debug_console.o
SerialManager_Deinit                              ./component/serial_manager/fsl_component_serial_manager.o
                                                  ./utilities/fsl_debug_console.o
SerialManager_EnterLowpower                       ./component/serial_manager/fsl_component_serial_manager.o
                                                  ./utilities/fsl_debug_console.o
SerialManager_ExitLowpower                        ./component/serial_manager/fsl_component_serial_manager.o
                                                  ./utilities/fsl_debug_console.o
SerialManager_Init                                ./component/serial_manager/fsl_component_serial_manager.o
                                                  ./utilities/fsl_debug_console.o
SerialManager_OpenReadHandle                      ./component/serial_manager/fsl_component_serial_manager.o
                                                  ./utilities/fsl_debug_console.o
SerialManager_OpenWriteHandle                     ./component/serial_manager/fsl_component_serial_manager.o
                                                  ./utilities/fsl_debug_console.o
SerialManager_ReadBlocking                        ./component/serial_manager/fsl_component_serial_manager.o
                                                  ./utilities/fsl_debug_console.o
SerialManager_SetLowpowerCriticalCb               ./component/serial_manager/fsl_component_serial_manager.o
SerialManager_WriteBlocking                       ./component/serial_manager/fsl_component_serial_manager.o
                                                  ./utilities/fsl_debug_console.o
Serial_UartDeinit                                 ./component/serial_manager/fsl_component_serial_port_uart.o
                                                  ./component/serial_manager/fsl_component_serial_manager.o
Serial_UartEnterLowpower                          ./component/serial_manager/fsl_component_serial_port_uart.o
                                                  ./component/serial_manager/fsl_component_serial_manager.o
Serial_UartExitLowpower                           ./component/serial_manager/fsl_component_serial_port_uart.o
                                                  ./component/serial_manager/fsl_component_serial_manager.o
Serial_UartInit                                   ./component/serial_manager/fsl_component_serial_port_uart.o
                                                  ./component/serial_manager/fsl_component_serial_manager.o
Serial_UartRead                                   ./component/serial_manager/fsl_component_serial_port_uart.o
                                                  ./component/serial_manager/fsl_component_serial_manager.o
Serial_UartWrite                                  ./component/serial_manager/fsl_component_serial_port_uart.o
                                                  ./component/serial_manager/fsl_component_serial_manager.o
StartLedIndexOfBd                                 ./source/Scan.o
StartLedIndexOfGroupOffset                        ./source/Scan.o
StrFormatPrintf                                   ./utilities/fsl_str.o
                                                  ./utilities/fsl_debug_console.o
StrFormatScanf                                    ./utilities/fsl_str.o
                                                  ./utilities/fsl_debug_console.o
SysTick_Handler                                   ./startup/startup_mimxrt1064.o
SystemCoreClock                                   ./device/system_MIMXRT1064.o
                                                  ./board/clock_config.o
SystemCoreClockUpdate                             ./device/system_MIMXRT1064.o
SystemInit                                        ./device/system_MIMXRT1064.o
                                                  ./startup/startup_mimxrt1064.o
SystemInitHook                                    ./device/system_MIMXRT1064.o
TEMP_LOW_HIGH_DriverIRQHandler                    ./startup/startup_mimxrt1064.o
TEMP_LOW_HIGH_IRQHandler                          ./startup/startup_mimxrt1064.o
TEMP_PANIC_DriverIRQHandler                       ./startup/startup_mimxrt1064.o
TEMP_PANIC_IRQHandler                             ./startup/startup_mimxrt1064.o
TMR1_DriverIRQHandler                             ./startup/startup_mimxrt1064.o
TMR1_IRQHandler                                   ./startup/startup_mimxrt1064.o
TMR2_DriverIRQHandler                             ./startup/startup_mimxrt1064.o
TMR2_IRQHandler                                   ./startup/startup_mimxrt1064.o
TMR3_DriverIRQHandler                             ./startup/startup_mimxrt1064.o
TMR3_IRQHandler                                   ./startup/startup_mimxrt1064.o
TMR4_DriverIRQHandler                             ./startup/startup_mimxrt1064.o
TMR4_IRQHandler                                   ./startup/startup_mimxrt1064.o
TRNG_DriverIRQHandler                             ./startup/startup_mimxrt1064.o
TRNG_IRQHandler                                   ./startup/startup_mimxrt1064.o
TSC_DIG_DriverIRQHandler                          ./startup/startup_mimxrt1064.o
TSC_DIG_IRQHandler                                ./startup/startup_mimxrt1064.o
Timer_Delay_us                                    ./source/Scan.o
USB_CalculateCrc                                  ./source/app.o
USB_DeviceApplicationInit                         ./source/composite.o
                                                  ./source/app.o
USB_DeviceCancel                                  ./usb/device/source/usb_device_dci.o
USB_DeviceClassCallback                           ./usb/device/class/usb_device_class.o
                                                  ./usb/device/source/usb_device_ch9.o
USB_DeviceClassDeinit                             ./usb/device/class/usb_device_class.o
USB_DeviceClassEvent                              ./usb/device/class/usb_device_class.o
                                                  ./usb/device/source/usb_device_ch9.o
USB_DeviceClassGetDeviceHandle                    ./usb/device/class/usb_device_class.o
                                                  ./usb/device/class/hid/usb_device_hid.o
USB_DeviceClassGetSpeed                           ./usb/device/class/usb_device_class.o
                                                  ./source/composite.o
USB_DeviceClassInit                               ./usb/device/class/usb_device_class.o
                                                  ./source/composite.o
USB_DeviceControlPipeInit                         ./usb/device/source/usb_device_ch9.o
                                                  ./usb/device/class/usb_device_class.o
USB_DeviceDeinit                                  ./usb/device/source/usb_device_dci.o
                                                  ./usb/device/class/usb_device_class.o
USB_DeviceDeinitEndpoint                          ./usb/device/source/usb_device_dci.o
                                                  ./usb/device/class/hid/usb_device_hid.o
                                                  ./usb/device/source/usb_device_ch9.o
USB_DeviceEhciCancel                              ./usb/device/source/ehci/usb_device_ehci.o
                                                  ./usb/device/source/usb_device_dci.o
USB_DeviceEhciControl                             ./usb/device/source/ehci/usb_device_ehci.o
                                                  ./usb/device/source/usb_device_dci.o
USB_DeviceEhciDeinit                              ./usb/device/source/ehci/usb_device_ehci.o
                                                  ./usb/device/source/usb_device_dci.o
USB_DeviceEhciFullSpeed                           ./usb/device/source/ehci/usb_device_ehci.o
                                                  ./source/composite.o
USB_DeviceEhciInit                                ./usb/device/source/ehci/usb_device_ehci.o
                                                  ./usb/device/source/usb_device_dci.o
USB_DeviceEhciIsrFunction                         ./usb/device/source/ehci/usb_device_ehci.o
                                                  ./source/app.o
USB_DeviceEhciRecv                                ./usb/device/source/ehci/usb_device_ehci.o
                                                  ./usb/device/source/usb_device_dci.o
USB_DeviceEhciSend                                ./usb/device/source/ehci/usb_device_ehci.o
                                                  ./usb/device/source/usb_device_dci.o
USB_DeviceGetConfigurationDescriptor              ./source/usb_device_descriptor.o
                                                  ./source/composite.o
USB_DeviceGetDeviceDescriptor                     ./source/usb_device_descriptor.o
                                                  ./source/composite.o
USB_DeviceGetHidDescriptor                        ./source/usb_device_descriptor.o
                                                  ./source/composite.o
USB_DeviceGetHidPhysicalDescriptor                ./source/usb_device_descriptor.o
                                                  ./source/composite.o
USB_DeviceGetHidReportDescriptor                  ./source/usb_device_descriptor.o
                                                  ./source/composite.o
USB_DeviceGetStatus                               ./usb/device/source/usb_device_dci.o
                                                  ./usb/device/class/usb_device_class.o
                                                  ./usb/device/source/usb_device_ch9.o
USB_DeviceGetStringDescriptor                     ./source/usb_device_descriptor.o
                                                  ./source/composite.o
USB_DeviceGetVersion                              ./usb/device/source/usb_device_dci.o
USB_DeviceHidDeinit                               ./usb/device/class/hid/usb_device_hid.o
                                                  ./usb/device/class/usb_device_class.o
USB_DeviceHidEvent                                ./usb/device/class/hid/usb_device_hid.o
                                                  ./usb/device/class/usb_device_class.o
USB_DeviceHidGenericCallback                      ./source/hid_generic.o
                                                  ./source/composite.o
USB_DeviceHidGenericInit                          ./source/hid_generic.o
                                                  ./source/composite.o
USB_DeviceHidGenericSetConfigure                  ./source/hid_generic.o
                                                  ./source/composite.o
USB_DeviceHidGenericSetInterface                  ./source/hid_generic.o
                                                  ./source/composite.o
USB_DeviceHidInit                                 ./usb/device/class/hid/usb_device_hid.o
                                                  ./usb/device/class/usb_device_class.o
USB_DeviceHidMouseCallback                        ./source/hid_mouse.o
                                                  ./source/composite.o
USB_DeviceHidMouseInit                            ./source/hid_mouse.o
                                                  ./source/composite.o
USB_DeviceHidMouseSetConfigure                    ./source/hid_mouse.o
                                                  ./source/composite.o
USB_DeviceHidMouseSetInterface                    ./source/hid_mouse.o
                                                  ./source/composite.o
USB_DeviceHidRecv                                 ./usb/device/class/hid/usb_device_hid.o
                                                  ./source/hid_generic.o
USB_DeviceHidSend                                 ./usb/device/class/hid/usb_device_hid.o
                                                  ./source/hid_mouse.o
                                                  ./source/hid_generic.o
USB_DeviceInit                                    ./usb/device/source/usb_device_dci.o
                                                  ./usb/device/class/usb_device_class.o
USB_DeviceInitEndpoint                            ./usb/device/source/usb_device_dci.o
                                                  ./usb/device/class/hid/usb_device_hid.o
                                                  ./usb/device/source/usb_device_ch9.o
USB_DeviceIsrDisable                              ./source/composite.o
USB_DeviceIsrEnable                               ./source/composite.o
USB_DeviceNotificationTrigger                     ./usb/device/source/usb_device_dci.o
                                                  ./usb/device/source/ehci/usb_device_ehci.o
USB_DeviceRecvRequest                             ./usb/device/source/usb_device_dci.o
                                                  ./usb/device/class/hid/usb_device_hid.o
                                                  ./usb/device/source/usb_device_ch9.o
USB_DeviceRun                                     ./usb/device/source/usb_device_dci.o
                                                  ./source/composite.o
USB_DeviceSendRequest                             ./usb/device/source/usb_device_dci.o
                                                  ./usb/device/class/hid/usb_device_hid.o
                                                  ./usb/device/source/usb_device_ch9.o
USB_DeviceSetSpeed                                ./source/usb_device_descriptor.o
                                                  ./source/composite.o
USB_DeviceSetStatus                               ./usb/device/source/usb_device_dci.o
                                                  ./usb/device/source/usb_device_ch9.o
USB_DeviceStallEndpoint                           ./usb/device/source/usb_device_dci.o
                                                  ./usb/device/class/hid/usb_device_hid.o
                                                  ./usb/device/source/usb_device_ch9.o
USB_DeviceStop                                    ./usb/device/source/usb_device_dci.o
USB_DeviceUnstallEndpoint                         ./usb/device/source/usb_device_dci.o
                                                  ./usb/device/class/hid/usb_device_hid.o
                                                  ./usb/device/source/usb_device_ch9.o
USB_Device_ready                                  ./source/composite.o
                                                  ./source/app.o
USB_EhciLowPowerPhyInit                           ./usb/phy/usb_phy.o
USB_EhciPhyDeinit                                 ./usb/phy/usb_phy.o
USB_EhciPhyGetBase                                ./usb/phy/usb_phy.o
USB_EhciPhyInit                                   ./usb/phy/usb_phy.o
                                                  ./source/composite.o
USB_EhcihostPhyDisconnectDetectCmd                ./usb/phy/usb_phy.o
USB_GetMouseBuffer                                ./source/hid_mouse.o
                                                  ./source/app.o
USB_Get_Device_Handle                             ./source/composite.o
                                                  ./source/app.o
USB_OTG1_DriverIRQHandler                         ./startup/startup_mimxrt1064.o
USB_OTG1_IRQHandler                               ./source/app.o
                                                  ./startup/startup_mimxrt1064.o
USB_OTG2_DriverIRQHandler                         ./startup/startup_mimxrt1064.o
USB_OTG2_IRQHandler                               ./source/app.o
                                                  ./startup/startup_mimxrt1064.o
USB_PHY1_DriverIRQHandler                         ./startup/startup_mimxrt1064.o
USB_PHY1_IRQHandler                               ./startup/startup_mimxrt1064.o
USB_PHY2_DriverIRQHandler                         ./startup/startup_mimxrt1064.o
USB_PHY2_IRQHandler                               ./startup/startup_mimxrt1064.o
USB_SendDigitizerReport                           ./source/hid_generic.o
                                                  ./source/app.o
USB_SendMouseReport                               ./source/hid_mouse.o
                                                  ./source/app.o
USB_delay                                         ./source/composite.o
USDHC1_DriverIRQHandler                           ./startup/startup_mimxrt1064.o
USDHC1_IRQHandler                                 ./startup/startup_mimxrt1064.o
USDHC2_DriverIRQHandler                           ./startup/startup_mimxrt1064.o
USDHC2_IRQHandler                                 ./startup/startup_mimxrt1064.o
UsageFault_Handler                                ./startup/startup_mimxrt1064.o
WDOG1_DriverIRQHandler                            ./startup/startup_mimxrt1064.o
WDOG1_IRQHandler                                  ./source/app.o
                                                  ./startup/startup_mimxrt1064.o
WDOG2_DriverIRQHandler                            ./startup/startup_mimxrt1064.o
WDOG2_IRQHandler                                  ./startup/startup_mimxrt1064.o
WDOG_ClearInterruptStatus                         ./drivers/fsl_wdog.o
                                                  ./source/app.o
WDOG_Deinit                                       ./drivers/fsl_wdog.o
WDOG_GetDefaultConfig                             ./drivers/fsl_wdog.o
                                                  ./source/app.o
WDOG_GetStatusFlags                               ./drivers/fsl_wdog.o
                                                  ./source/app.o
WDOG_Init                                         ./drivers/fsl_wdog.o
                                                  ./board/peripherals.o
                                                  ./source/app.o
WDOG_Refresh                                      ./drivers/fsl_wdog.o
                                                  ./source/app.o
XBAR1_IRQ_0_1_DriverIRQHandler                    ./startup/startup_mimxrt1064.o
XBAR1_IRQ_0_1_IRQHandler                          ./startup/startup_mimxrt1064.o
XBAR1_IRQ_2_3_DriverIRQHandler                    ./startup/startup_mimxrt1064.o
XBAR1_IRQ_2_3_IRQHandler                          ./startup/startup_mimxrt1064.o
XBARA_ClearStatusFlags                            ./drivers/fsl_xbara.o
XBARA_Deinit                                      ./drivers/fsl_xbara.o
XBARA_GetStatusFlags                              ./drivers/fsl_xbara.o
XBARA_Init                                        ./drivers/fsl_xbara.o
XBARA_SetOutputSignalConfig                       ./drivers/fsl_xbara.o
XBARA_SetSignalsConnection                        ./drivers/fsl_xbara.o
                                                  ./board/pin_mux.o
X_LedNumOfBd                                      ./source/Scan.o
X_StartLedIndexOfBd                               ./source/Scan.o
Y_LedNumOfBd                                      ./source/Scan.o
Y_StartLedIndexOfBd                               ./source/Scan.o
_Csys_alloc                                       c:/nxp/mcuxpressoide_11.7.0_9198/ide/plugins/com.nxp.mcuxpresso.tools.win32_11.7.0.202209140929/tools/bin/../lib/gcc/arm-none-eabi/10.3.1/../../../../arm-none-eabi/lib/thumb/v7e-m+fp/hard\libcr_c.a(alloc.o)
                                                  c:/nxp/mcuxpressoide_11.7.0_9198/ide/plugins/com.nxp.mcuxpresso.tools.win32_11.7.0.202209140929/tools/bin/../lib/gcc/arm-none-eabi/10.3.1/../../../../arm-none-eabi/lib/thumb/v7e-m+fp/hard\libcr_c.a(_deferredlazyseek.o)
                                                  c:/nxp/mcuxpressoide_11.7.0_9198/ide/plugins/com.nxp.mcuxpresso.tools.win32_11.7.0.202209140929/tools/bin/../lib/gcc/arm-none-eabi/10.3.1/../../../../arm-none-eabi/lib/thumb/v7e-m+fp/hard\libcr_c.a(__fillbuf.o)
_Csys_read_                                       c:/nxp/mcuxpressoide_11.7.0_9198/ide/plugins/com.nxp.mcuxpresso.tools.win32_11.7.0.202209140929/tools/bin/../lib/gcc/arm-none-eabi/10.3.1/../../../../arm-none-eabi/lib/thumb/v7e-m+fp/hard\libcr_c.a(__fillbuf.o)
_Cwritebuf                                        c:/nxp/mcuxpressoide_11.7.0_9198/ide/plugins/com.nxp.mcuxpresso.tools.win32_11.7.0.202209140929/tools/bin/../lib/gcc/arm-none-eabi/10.3.1/../../../../arm-none-eabi/lib/thumb/v7e-m+fp/hard\libcr_c.a(_writebuf.o)
                                                  c:/nxp/mcuxpressoide_11.7.0_9198/ide/plugins/com.nxp.mcuxpresso.tools.win32_11.7.0.202209140929/tools/bin/../lib/gcc/arm-none-eabi/10.3.1/../../../../arm-none-eabi/lib/thumb/v7e-m+fp/hard\libcr_c.a(_fflush.o)
                                                  c:/nxp/mcuxpressoide_11.7.0_9198/ide/plugins/com.nxp.mcuxpresso.tools.win32_11.7.0.202209140929/tools/bin/../lib/gcc/arm-none-eabi/10.3.1/../../../../arm-none-eabi/lib/thumb/v7e-m+fp/hard\libcr_c.a(_deferredlazyseek.o)
__Ciob                                            c:/nxp/mcuxpressoide_11.7.0_9198/ide/plugins/com.nxp.mcuxpresso.tools.win32_11.7.0.202209140929/tools/bin/../lib/gcc/arm-none-eabi/10.3.1/../../../../arm-none-eabi/lib/thumb/v7e-m+fp/hard\libcr_nohost_nf.a(__ciob.o)
                                                  c:/nxp/mcuxpressoide_11.7.0_9198/ide/plugins/com.nxp.mcuxpresso.tools.win32_11.7.0.202209140929/tools/bin/../lib/gcc/arm-none-eabi/10.3.1/../../../../arm-none-eabi/lib/thumb/v7e-m+fp/hard\libcr_c.a(fflush.o)
                                                  c:/nxp/mcuxpressoide_11.7.0_9198/ide/plugins/com.nxp.mcuxpresso.tools.win32_11.7.0.202209140929/tools/bin/../lib/gcc/arm-none-eabi/10.3.1/../../../../arm-none-eabi/lib/thumb/v7e-m+fp/hard\libcr_c.a(scanf.o)
                                                  c:/nxp/mcuxpressoide_11.7.0_9198/ide/plugins/com.nxp.mcuxpresso.tools.win32_11.7.0.202209140929/tools/bin/../lib/gcc/arm-none-eabi/10.3.1/../../../../arm-none-eabi/lib/thumb/v7e-m+fp/hard\libcr_c.a(printf.o)
                                                  c:/nxp/mcuxpressoide_11.7.0_9198/ide/plugins/com.nxp.mcuxpresso.tools.win32_11.7.0.202209140929/tools/bin/../lib/gcc/arm-none-eabi/10.3.1/../../../../arm-none-eabi/lib/thumb/v7e-m+fp/hard\libcr_c.a(initio.o)
__Vectors                                         ./startup/startup_mimxrt1064.o
                                                  ./xip/fsl_flexspi_nor_boot.o
__aeabi_cdcmpeq                                   c:/nxp/mcuxpressoide_11.7.0_9198/ide/plugins/com.nxp.mcuxpresso.tools.win32_11.7.0.202209140929/tools/bin/../lib/gcc/arm-none-eabi/10.3.1/thumb/v7e-m+fp/hard\libcr_eabihelpers.a(double.o)
__aeabi_cdcmple                                   c:/nxp/mcuxpressoide_11.7.0_9198/ide/plugins/com.nxp.mcuxpresso.tools.win32_11.7.0.202209140929/tools/bin/../lib/gcc/arm-none-eabi/10.3.1/thumb/v7e-m+fp/hard\libcr_eabihelpers.a(double.o)
__aeabi_cdrcmple                                  c:/nxp/mcuxpressoide_11.7.0_9198/ide/plugins/com.nxp.mcuxpresso.tools.win32_11.7.0.202209140929/tools/bin/../lib/gcc/arm-none-eabi/10.3.1/thumb/v7e-m+fp/hard\libcr_eabihelpers.a(double.o)
__aeabi_d2f                                       c:/nxp/mcuxpressoide_11.7.0_9198/ide/plugins/com.nxp.mcuxpresso.tools.win32_11.7.0.202209140929/tools/bin/../lib/gcc/arm-none-eabi/10.3.1/thumb/v7e-m+fp/hard\libcr_eabihelpers.a(double.o)
                                                  c:/nxp/mcuxpressoide_11.7.0_9198/ide/plugins/com.nxp.mcuxpresso.tools.win32_11.7.0.202209140929/tools/bin/../lib/gcc/arm-none-eabi/10.3.1/../../../../arm-none-eabi/lib/thumb/v7e-m+fp/hard\libcr_c.a(scanf.o)
                                                  ./source/backend_postp.o
__aeabi_d2iz                                      c:/nxp/mcuxpressoide_11.7.0_9198/ide/plugins/com.nxp.mcuxpresso.tools.win32_11.7.0.202209140929/tools/bin/../lib/gcc/arm-none-eabi/10.3.1/thumb/v7e-m+fp/hard\libcr_eabihelpers.a(double.o)
__aeabi_d2lz                                      c:/nxp/mcuxpressoide_11.7.0_9198/ide/plugins/com.nxp.mcuxpresso.tools.win32_11.7.0.202209140929/tools/bin/../lib/gcc/arm-none-eabi/10.3.1/thumb/v7e-m+fp/hard\libcr_eabihelpers.a(double.o)
__aeabi_d2uiz                                     c:/nxp/mcuxpressoide_11.7.0_9198/ide/plugins/com.nxp.mcuxpresso.tools.win32_11.7.0.202209140929/tools/bin/../lib/gcc/arm-none-eabi/10.3.1/thumb/v7e-m+fp/hard\libcr_eabihelpers.a(double.o)
__aeabi_d2ulz                                     c:/nxp/mcuxpressoide_11.7.0_9198/ide/plugins/com.nxp.mcuxpresso.tools.win32_11.7.0.202209140929/tools/bin/../lib/gcc/arm-none-eabi/10.3.1/thumb/v7e-m+fp/hard\libcr_eabihelpers.a(double.o)
__aeabi_dadd                                      c:/nxp/mcuxpressoide_11.7.0_9198/ide/plugins/com.nxp.mcuxpresso.tools.win32_11.7.0.202209140929/tools/bin/../lib/gcc/arm-none-eabi/10.3.1/thumb/v7e-m+fp/hard\libcr_eabihelpers.a(double.o)
                                                  c:/nxp/mcuxpressoide_11.7.0_9198/ide/plugins/com.nxp.mcuxpresso.tools.win32_11.7.0.202209140929/tools/bin/../lib/gcc/arm-none-eabi/10.3.1/../../../../arm-none-eabi/lib/thumb/v7e-m+fp/hard\libcr_c.a(scanf.o)
__aeabi_dcmpeq                                    c:/nxp/mcuxpressoide_11.7.0_9198/ide/plugins/com.nxp.mcuxpresso.tools.win32_11.7.0.202209140929/tools/bin/../lib/gcc/arm-none-eabi/10.3.1/thumb/v7e-m+fp/hard\libcr_eabihelpers.a(double.o)
                                                  c:/nxp/mcuxpressoide_11.7.0_9198/ide/plugins/com.nxp.mcuxpresso.tools.win32_11.7.0.202209140929/tools/bin/../lib/gcc/arm-none-eabi/10.3.1/../../../../arm-none-eabi/lib/thumb/v7e-m+fp/hard\libcr_c.a(_ldexpl.o)
                                                  c:/nxp/mcuxpressoide_11.7.0_9198/ide/plugins/com.nxp.mcuxpresso.tools.win32_11.7.0.202209140929/tools/bin/../lib/gcc/arm-none-eabi/10.3.1/../../../../arm-none-eabi/lib/thumb/v7e-m+fp/hard\libcr_c.a(_frexpl.o)
                                                  c:/nxp/mcuxpressoide_11.7.0_9198/ide/plugins/com.nxp.mcuxpresso.tools.win32_11.7.0.202209140929/tools/bin/../lib/gcc/arm-none-eabi/10.3.1/../../../../arm-none-eabi/lib/thumb/v7e-m+fp/hard\libcr_c.a(scanf.o)
__aeabi_dcmpge                                    c:/nxp/mcuxpressoide_11.7.0_9198/ide/plugins/com.nxp.mcuxpresso.tools.win32_11.7.0.202209140929/tools/bin/../lib/gcc/arm-none-eabi/10.3.1/thumb/v7e-m+fp/hard\libcr_eabihelpers.a(double.o)
                                                  c:/nxp/mcuxpressoide_11.7.0_9198/ide/plugins/com.nxp.mcuxpresso.tools.win32_11.7.0.202209140929/tools/bin/../lib/gcc/arm-none-eabi/10.3.1/../../../../arm-none-eabi/lib/thumb/v7e-m+fp/hard\libcr_c.a(scanf.o)
__aeabi_dcmpgt                                    c:/nxp/mcuxpressoide_11.7.0_9198/ide/plugins/com.nxp.mcuxpresso.tools.win32_11.7.0.202209140929/tools/bin/../lib/gcc/arm-none-eabi/10.3.1/thumb/v7e-m+fp/hard\libcr_eabihelpers.a(double.o)
__aeabi_dcmple                                    c:/nxp/mcuxpressoide_11.7.0_9198/ide/plugins/com.nxp.mcuxpresso.tools.win32_11.7.0.202209140929/tools/bin/../lib/gcc/arm-none-eabi/10.3.1/thumb/v7e-m+fp/hard\libcr_eabihelpers.a(double.o)
__aeabi_dcmplt                                    c:/nxp/mcuxpressoide_11.7.0_9198/ide/plugins/com.nxp.mcuxpresso.tools.win32_11.7.0.202209140929/tools/bin/../lib/gcc/arm-none-eabi/10.3.1/thumb/v7e-m+fp/hard\libcr_eabihelpers.a(double.o)
__aeabi_dcmpun                                    c:/nxp/mcuxpressoide_11.7.0_9198/ide/plugins/com.nxp.mcuxpresso.tools.win32_11.7.0.202209140929/tools/bin/../lib/gcc/arm-none-eabi/10.3.1/thumb/v7e-m+fp/hard\libcr_eabihelpers.a(double.o)
__aeabi_ddiv                                      c:/nxp/mcuxpressoide_11.7.0_9198/ide/plugins/com.nxp.mcuxpresso.tools.win32_11.7.0.202209140929/tools/bin/../lib/gcc/arm-none-eabi/10.3.1/thumb/v7e-m+fp/hard\libcr_eabihelpers.a(double.o)
                                                  c:/nxp/mcuxpressoide_11.7.0_9198/ide/plugins/com.nxp.mcuxpresso.tools.win32_11.7.0.202209140929/tools/bin/../lib/gcc/arm-none-eabi/10.3.1/../../../../arm-none-eabi/lib/thumb/v7e-m+fp/hard\libcr_c.a(scanf.o)
__aeabi_dmul                                      c:/nxp/mcuxpressoide_11.7.0_9198/ide/plugins/com.nxp.mcuxpresso.tools.win32_11.7.0.202209140929/tools/bin/../lib/gcc/arm-none-eabi/10.3.1/thumb/v7e-m+fp/hard\libcr_eabihelpers.a(double.o)
                                                  c:/nxp/mcuxpressoide_11.7.0_9198/ide/plugins/com.nxp.mcuxpresso.tools.win32_11.7.0.202209140929/tools/bin/../lib/gcc/arm-none-eabi/10.3.1/../../../../arm-none-eabi/lib/thumb/v7e-m+fp/hard\libcr_c.a(scanf.o)
                                                  ./source/backend_postp.o
__aeabi_dneg                                      c:/nxp/mcuxpressoide_11.7.0_9198/ide/plugins/com.nxp.mcuxpresso.tools.win32_11.7.0.202209140929/tools/bin/../lib/gcc/arm-none-eabi/10.3.1/thumb/v7e-m+fp/hard\libcr_eabihelpers.a(double.o)
__aeabi_drsub                                     c:/nxp/mcuxpressoide_11.7.0_9198/ide/plugins/com.nxp.mcuxpresso.tools.win32_11.7.0.202209140929/tools/bin/../lib/gcc/arm-none-eabi/10.3.1/thumb/v7e-m+fp/hard\libcr_eabihelpers.a(double.o)
__aeabi_dsub                                      c:/nxp/mcuxpressoide_11.7.0_9198/ide/plugins/com.nxp.mcuxpresso.tools.win32_11.7.0.202209140929/tools/bin/../lib/gcc/arm-none-eabi/10.3.1/thumb/v7e-m+fp/hard\libcr_eabihelpers.a(double.o)
                                                  c:/nxp/mcuxpressoide_11.7.0_9198/ide/plugins/com.nxp.mcuxpresso.tools.win32_11.7.0.202209140929/tools/bin/../lib/gcc/arm-none-eabi/10.3.1/../../../../arm-none-eabi/lib/thumb/v7e-m+fp/hard\libcr_c.a(scanf.o)
__aeabi_i2d                                       c:/nxp/mcuxpressoide_11.7.0_9198/ide/plugins/com.nxp.mcuxpresso.tools.win32_11.7.0.202209140929/tools/bin/../lib/gcc/arm-none-eabi/10.3.1/thumb/v7e-m+fp/hard\libcr_eabihelpers.a(double.o)
                                                  c:/nxp/mcuxpressoide_11.7.0_9198/ide/plugins/com.nxp.mcuxpresso.tools.win32_11.7.0.202209140929/tools/bin/../lib/gcc/arm-none-eabi/10.3.1/../../../../arm-none-eabi/lib/thumb/v7e-m+fp/hard\libcr_c.a(scanf.o)
                                                  ./source/backend_postp.o
__aeabi_idiv0                                     c:/nxp/mcuxpressoide_11.7.0_9198/ide/plugins/com.nxp.mcuxpresso.tools.win32_11.7.0.202209140929/tools/bin/../lib/gcc/arm-none-eabi/10.3.1/thumb/v7e-m+fp/hard\libcr_eabihelpers.a(division_idiv0.o)
                                                  c:/nxp/mcuxpressoide_11.7.0_9198/ide/plugins/com.nxp.mcuxpresso.tools.win32_11.7.0.202209140929/tools/bin/../lib/gcc/arm-none-eabi/10.3.1/thumb/v7e-m+fp/hard\libcr_eabihelpers.a(division_64.o)
__aeabi_l2d                                       c:/nxp/mcuxpressoide_11.7.0_9198/ide/plugins/com.nxp.mcuxpresso.tools.win32_11.7.0.202209140929/tools/bin/../lib/gcc/arm-none-eabi/10.3.1/thumb/v7e-m+fp/hard\libcr_eabihelpers.a(double.o)
__aeabi_ldivmod                                   c:/nxp/mcuxpressoide_11.7.0_9198/ide/plugins/com.nxp.mcuxpresso.tools.win32_11.7.0.202209140929/tools/bin/../lib/gcc/arm-none-eabi/10.3.1/thumb/v7e-m+fp/hard\libcr_eabihelpers.a(division_64.o)
                                                  ./device/system_MIMXRT1064.o
__aeabi_lowlevel_memset                           c:/nxp/mcuxpressoide_11.7.0_9198/ide/plugins/com.nxp.mcuxpresso.tools.win32_11.7.0.202209140929/tools/bin/../lib/gcc/arm-none-eabi/10.3.1/thumb/v7e-m+fp/hard\libcr_eabihelpers.a(memcpy.o)
                                                  c:/nxp/mcuxpressoide_11.7.0_9198/ide/plugins/com.nxp.mcuxpresso.tools.win32_11.7.0.202209140929/tools/bin/../lib/gcc/arm-none-eabi/10.3.1/../../../../arm-none-eabi/lib/thumb/v7e-m+fp/hard\libcr_c.a(memset.o)
__aeabi_memclr                                    c:/nxp/mcuxpressoide_11.7.0_9198/ide/plugins/com.nxp.mcuxpresso.tools.win32_11.7.0.202209140929/tools/bin/../lib/gcc/arm-none-eabi/10.3.1/thumb/v7e-m+fp/hard\libcr_eabihelpers.a(memcpy.o)
__aeabi_memclr4                                   c:/nxp/mcuxpressoide_11.7.0_9198/ide/plugins/com.nxp.mcuxpresso.tools.win32_11.7.0.202209140929/tools/bin/../lib/gcc/arm-none-eabi/10.3.1/thumb/v7e-m+fp/hard\libcr_eabihelpers.a(memcpy.o)
__aeabi_memclr8                                   c:/nxp/mcuxpressoide_11.7.0_9198/ide/plugins/com.nxp.mcuxpresso.tools.win32_11.7.0.202209140929/tools/bin/../lib/gcc/arm-none-eabi/10.3.1/thumb/v7e-m+fp/hard\libcr_eabihelpers.a(memcpy.o)
__aeabi_memcpy                                    c:/nxp/mcuxpressoide_11.7.0_9198/ide/plugins/com.nxp.mcuxpresso.tools.win32_11.7.0.202209140929/tools/bin/../lib/gcc/arm-none-eabi/10.3.1/thumb/v7e-m+fp/hard\libcr_eabihelpers.a(memcpy.o)
                                                  c:/nxp/mcuxpressoide_11.7.0_9198/ide/plugins/com.nxp.mcuxpresso.tools.win32_11.7.0.202209140929/tools/bin/../lib/gcc/arm-none-eabi/10.3.1/../../../../arm-none-eabi/lib/thumb/v7e-m+fp/hard\libcr_c.a(memcpy.o)
__aeabi_memcpy4                                   c:/nxp/mcuxpressoide_11.7.0_9198/ide/plugins/com.nxp.mcuxpresso.tools.win32_11.7.0.202209140929/tools/bin/../lib/gcc/arm-none-eabi/10.3.1/thumb/v7e-m+fp/hard\libcr_eabihelpers.a(memcpy.o)
__aeabi_memcpy8                                   c:/nxp/mcuxpressoide_11.7.0_9198/ide/plugins/com.nxp.mcuxpresso.tools.win32_11.7.0.202209140929/tools/bin/../lib/gcc/arm-none-eabi/10.3.1/thumb/v7e-m+fp/hard\libcr_eabihelpers.a(memcpy.o)
__aeabi_memmove                                   c:/nxp/mcuxpressoide_11.7.0_9198/ide/plugins/com.nxp.mcuxpresso.tools.win32_11.7.0.202209140929/tools/bin/../lib/gcc/arm-none-eabi/10.3.1/thumb/v7e-m+fp/hard\libcr_eabihelpers.a(memcpy.o)
__aeabi_memmove4                                  c:/nxp/mcuxpressoide_11.7.0_9198/ide/plugins/com.nxp.mcuxpresso.tools.win32_11.7.0.202209140929/tools/bin/../lib/gcc/arm-none-eabi/10.3.1/thumb/v7e-m+fp/hard\libcr_eabihelpers.a(memcpy.o)
__aeabi_memmove8                                  c:/nxp/mcuxpressoide_11.7.0_9198/ide/plugins/com.nxp.mcuxpresso.tools.win32_11.7.0.202209140929/tools/bin/../lib/gcc/arm-none-eabi/10.3.1/thumb/v7e-m+fp/hard\libcr_eabihelpers.a(memcpy.o)
__aeabi_memset                                    c:/nxp/mcuxpressoide_11.7.0_9198/ide/plugins/com.nxp.mcuxpresso.tools.win32_11.7.0.202209140929/tools/bin/../lib/gcc/arm-none-eabi/10.3.1/thumb/v7e-m+fp/hard\libcr_eabihelpers.a(memcpy.o)
__aeabi_memset4                                   c:/nxp/mcuxpressoide_11.7.0_9198/ide/plugins/com.nxp.mcuxpresso.tools.win32_11.7.0.202209140929/tools/bin/../lib/gcc/arm-none-eabi/10.3.1/thumb/v7e-m+fp/hard\libcr_eabihelpers.a(memcpy.o)
__aeabi_memset8                                   c:/nxp/mcuxpressoide_11.7.0_9198/ide/plugins/com.nxp.mcuxpresso.tools.win32_11.7.0.202209140929/tools/bin/../lib/gcc/arm-none-eabi/10.3.1/thumb/v7e-m+fp/hard\libcr_eabihelpers.a(memcpy.o)
__aeabi_ui2d                                      c:/nxp/mcuxpressoide_11.7.0_9198/ide/plugins/com.nxp.mcuxpresso.tools.win32_11.7.0.202209140929/tools/bin/../lib/gcc/arm-none-eabi/10.3.1/thumb/v7e-m+fp/hard\libcr_eabihelpers.a(double.o)
__aeabi_ul2d                                      c:/nxp/mcuxpressoide_11.7.0_9198/ide/plugins/com.nxp.mcuxpresso.tools.win32_11.7.0.202209140929/tools/bin/../lib/gcc/arm-none-eabi/10.3.1/thumb/v7e-m+fp/hard\libcr_eabihelpers.a(double.o)
__aeabi_uldivmod                                  c:/nxp/mcuxpressoide_11.7.0_9198/ide/plugins/com.nxp.mcuxpresso.tools.win32_11.7.0.202209140929/tools/bin/../lib/gcc/arm-none-eabi/10.3.1/thumb/v7e-m+fp/hard\libcr_eabihelpers.a(division_64.o)
                                                  ./device/system_MIMXRT1064.o
                                                  ./drivers/fsl_common_arm.o
                                                  ./drivers/fsl_clock.o
__bhs_ldivmod1                                    c:/nxp/mcuxpressoide_11.7.0_9198/ide/plugins/com.nxp.mcuxpresso.tools.win32_11.7.0.202209140929/tools/bin/../lib/gcc/arm-none-eabi/10.3.1/thumb/v7e-m+fp/hard\libcr_eabihelpers.a(division_64.o)
__bhs_ui2d                                        c:/nxp/mcuxpressoide_11.7.0_9198/ide/plugins/com.nxp.mcuxpresso.tools.win32_11.7.0.202209140929/tools/bin/../lib/gcc/arm-none-eabi/10.3.1/thumb/v7e-m+fp/hard\libcr_eabihelpers.a(double.o)
__bhs_ul2d                                        c:/nxp/mcuxpressoide_11.7.0_9198/ide/plugins/com.nxp.mcuxpresso.tools.win32_11.7.0.202209140929/tools/bin/../lib/gcc/arm-none-eabi/10.3.1/thumb/v7e-m+fp/hard\libcr_eabihelpers.a(double.o)
__bss_section_table_end                           ./startup/startup_mimxrt1064.o
__check_heap_overflow                             c:/nxp/mcuxpressoide_11.7.0_9198/ide/plugins/com.nxp.mcuxpresso.tools.win32_11.7.0.202209140929/tools/bin/../lib/gcc/arm-none-eabi/10.3.1/../../../../arm-none-eabi/lib/thumb/v7e-m+fp/hard\libcr_c.a(_cr_check_heap.o)
                                                  c:/nxp/mcuxpressoide_11.7.0_9198/ide/plugins/com.nxp.mcuxpresso.tools.win32_11.7.0.202209140929/tools/bin/../lib/gcc/arm-none-eabi/10.3.1/../../../../arm-none-eabi/lib/thumb/v7e-m+fp/hard\libcr_c.a(_cr_sbrk.o)
__ctype                                           c:/nxp/mcuxpressoide_11.7.0_9198/ide/plugins/com.nxp.mcuxpresso.tools.win32_11.7.0.202209140929/tools/bin/../lib/gcc/arm-none-eabi/10.3.1/../../../../arm-none-eabi/lib/thumb/v7e-m+fp/hard\libcr_c.a(ctype.o)
                                                  c:/nxp/mcuxpressoide_11.7.0_9198/ide/plugins/com.nxp.mcuxpresso.tools.win32_11.7.0.202209140929/tools/bin/../lib/gcc/arm-none-eabi/10.3.1/../../../../arm-none-eabi/lib/thumb/v7e-m+fp/hard\libcr_c.a(scanf.o)
__data_section_table                              ./startup/startup_mimxrt1064.o
__data_section_table_end                          ./startup/startup_mimxrt1064.o
__end_of_heap                                     c:/nxp/mcuxpressoide_11.7.0_9198/ide/plugins/com.nxp.mcuxpresso.tools.win32_11.7.0.202209140929/tools/bin/../lib/gcc/arm-none-eabi/10.3.1/../../../../arm-none-eabi/lib/thumb/v7e-m+fp/hard\libcr_c.a(__init_alloc.o)
                                                  c:/nxp/mcuxpressoide_11.7.0_9198/ide/plugins/com.nxp.mcuxpresso.tools.win32_11.7.0.202209140929/tools/bin/../lib/gcc/arm-none-eabi/10.3.1/../../../../arm-none-eabi/lib/thumb/v7e-m+fp/hard\libcr_c.a(_cr_sbrk.o)
__exit                                            c:/nxp/mcuxpressoide_11.7.0_9198/ide/plugins/com.nxp.mcuxpresso.tools.win32_11.7.0.202209140929/tools/bin/../lib/gcc/arm-none-eabi/10.3.1/../../../../arm-none-eabi/lib/thumb/v7e-m+fp/hard\libcr_nohost_nf.a(__sys_appexit.o)
__filbuf                                          c:/nxp/mcuxpressoide_11.7.0_9198/ide/plugins/com.nxp.mcuxpresso.tools.win32_11.7.0.202209140929/tools/bin/../lib/gcc/arm-none-eabi/10.3.1/../../../../arm-none-eabi/lib/thumb/v7e-m+fp/hard\libcr_c.a(__fillbuf.o)
                                                  c:/nxp/mcuxpressoide_11.7.0_9198/ide/plugins/com.nxp.mcuxpresso.tools.win32_11.7.0.202209140929/tools/bin/../lib/gcc/arm-none-eabi/10.3.1/../../../../arm-none-eabi/lib/thumb/v7e-m+fp/hard\libcr_c.a(scanf.o)
__flsbuf                                          c:/nxp/mcuxpressoide_11.7.0_9198/ide/plugins/com.nxp.mcuxpresso.tools.win32_11.7.0.202209140929/tools/bin/../lib/gcc/arm-none-eabi/10.3.1/../../../../arm-none-eabi/lib/thumb/v7e-m+fp/hard\libcr_c.a(_deferredlazyseek.o)
                                                  c:/nxp/mcuxpressoide_11.7.0_9198/ide/plugins/com.nxp.mcuxpresso.tools.win32_11.7.0.202209140929/tools/bin/../lib/gcc/arm-none-eabi/10.3.1/../../../../arm-none-eabi/lib/thumb/v7e-m+fp/hard\libcr_c.a(printf.o)
__heaps                                           c:/nxp/mcuxpressoide_11.7.0_9198/ide/plugins/com.nxp.mcuxpresso.tools.win32_11.7.0.202209140929/tools/bin/../lib/gcc/arm-none-eabi/10.3.1/../../../../arm-none-eabi/lib/thumb/v7e-m+fp/hard\libcr_c.a(__init_alloc.o)
                                                  c:/nxp/mcuxpressoide_11.7.0_9198/ide/plugins/com.nxp.mcuxpresso.tools.win32_11.7.0.202209140929/tools/bin/../lib/gcc/arm-none-eabi/10.3.1/../../../../arm-none-eabi/lib/thumb/v7e-m+fp/hard\libcr_c.a(alloc.o)
__main                                            c:/nxp/mcuxpressoide_11.7.0_9198/ide/plugins/com.nxp.mcuxpresso.tools.win32_11.7.0.202209140929/tools/bin/../lib/gcc/arm-none-eabi/10.3.1/../../../../arm-none-eabi/lib/thumb/v7e-m+fp/hard\libcr_nohost_nf.a(_cr__main.o)
                                                  ./startup/startup_mimxrt1064.o
__num_Ciob_streams                                c:/nxp/mcuxpressoide_11.7.0_9198/ide/plugins/com.nxp.mcuxpresso.tools.win32_11.7.0.202209140929/tools/bin/../lib/gcc/arm-none-eabi/10.3.1/../../../../arm-none-eabi/lib/thumb/v7e-m+fp/hard\libcr_nohost_nf.a(__ciob.o)
                                                  c:/nxp/mcuxpressoide_11.7.0_9198/ide/plugins/com.nxp.mcuxpresso.tools.win32_11.7.0.202209140929/tools/bin/../lib/gcc/arm-none-eabi/10.3.1/../../../../arm-none-eabi/lib/thumb/v7e-m+fp/hard\libcr_c.a(fflush.o)
                                                  c:/nxp/mcuxpressoide_11.7.0_9198/ide/plugins/com.nxp.mcuxpresso.tools.win32_11.7.0.202209140929/tools/bin/../lib/gcc/arm-none-eabi/10.3.1/../../../../arm-none-eabi/lib/thumb/v7e-m+fp/hard\libcr_c.a(initio.o)
__readc                                           c:/nxp/mcuxpressoide_11.7.0_9198/ide/plugins/com.nxp.mcuxpresso.tools.win32_11.7.0.202209140929/tools/bin/../lib/gcc/arm-none-eabi/10.3.1/../../../../arm-none-eabi/lib/thumb/v7e-m+fp/hard\libcr_nohost_nf.a(__sys_readc.o)
__sys_appexit                                     c:/nxp/mcuxpressoide_11.7.0_9198/ide/plugins/com.nxp.mcuxpresso.tools.win32_11.7.0.202209140929/tools/bin/../lib/gcc/arm-none-eabi/10.3.1/../../../../arm-none-eabi/lib/thumb/v7e-m+fp/hard\libcr_nohost_nf.a(__sys_appexit.o)
                                                  c:/nxp/mcuxpressoide_11.7.0_9198/ide/plugins/com.nxp.mcuxpresso.tools.win32_11.7.0.202209140929/tools/bin/../lib/gcc/arm-none-eabi/10.3.1/../../../../arm-none-eabi/lib/thumb/v7e-m+fp/hard\libcr_c.a(alloc.o)
__sys_close                                       c:/nxp/mcuxpressoide_11.7.0_9198/ide/plugins/com.nxp.mcuxpresso.tools.win32_11.7.0.202209140929/tools/bin/../lib/gcc/arm-none-eabi/10.3.1/../../../../arm-none-eabi/lib/thumb/v7e-m+fp/hard\libcr_nohost_nf.a(__sys_close.o)
                                                  c:/nxp/mcuxpressoide_11.7.0_9198/ide/plugins/com.nxp.mcuxpresso.tools.win32_11.7.0.202209140929/tools/bin/../lib/gcc/arm-none-eabi/10.3.1/../../../../arm-none-eabi/lib/thumb/v7e-m+fp/hard\libcr_c.a(fclose.o)
__sys_flen                                        c:/nxp/mcuxpressoide_11.7.0_9198/ide/plugins/com.nxp.mcuxpresso.tools.win32_11.7.0.202209140929/tools/bin/../lib/gcc/arm-none-eabi/10.3.1/../../../../arm-none-eabi/lib/thumb/v7e-m+fp/hard\libcr_nohost_nf.a(__sys_flen.o)
                                                  c:/nxp/mcuxpressoide_11.7.0_9198/ide/plugins/com.nxp.mcuxpresso.tools.win32_11.7.0.202209140929/tools/bin/../lib/gcc/arm-none-eabi/10.3.1/../../../../arm-none-eabi/lib/thumb/v7e-m+fp/hard\libcr_c.a(fseek.o)
                                                  c:/nxp/mcuxpressoide_11.7.0_9198/ide/plugins/com.nxp.mcuxpresso.tools.win32_11.7.0.202209140929/tools/bin/../lib/gcc/arm-none-eabi/10.3.1/../../../../arm-none-eabi/lib/thumb/v7e-m+fp/hard\libcr_c.a(_writebuf.o)
__sys_istty                                       c:/nxp/mcuxpressoide_11.7.0_9198/ide/plugins/com.nxp.mcuxpresso.tools.win32_11.7.0.202209140929/tools/bin/../lib/gcc/arm-none-eabi/10.3.1/../../../../arm-none-eabi/lib/thumb/v7e-m+fp/hard\libcr_nohost_nf.a(__sys_istty.o)
                                                  c:/nxp/mcuxpressoide_11.7.0_9198/ide/plugins/com.nxp.mcuxpresso.tools.win32_11.7.0.202209140929/tools/bin/../lib/gcc/arm-none-eabi/10.3.1/../../../../arm-none-eabi/lib/thumb/v7e-m+fp/hard\libcr_c.a(fseek.o)
                                                  c:/nxp/mcuxpressoide_11.7.0_9198/ide/plugins/com.nxp.mcuxpresso.tools.win32_11.7.0.202209140929/tools/bin/../lib/gcc/arm-none-eabi/10.3.1/../../../../arm-none-eabi/lib/thumb/v7e-m+fp/hard\libcr_c.a(_deferredlazyseek.o)
__sys_read                                        c:/nxp/mcuxpressoide_11.7.0_9198/ide/plugins/com.nxp.mcuxpresso.tools.win32_11.7.0.202209140929/tools/bin/../lib/gcc/arm-none-eabi/10.3.1/../../../../arm-none-eabi/lib/thumb/v7e-m+fp/hard\libcr_nohost_nf.a(__sys_read.o)
                                                  c:/nxp/mcuxpressoide_11.7.0_9198/ide/plugins/com.nxp.mcuxpresso.tools.win32_11.7.0.202209140929/tools/bin/../lib/gcc/arm-none-eabi/10.3.1/../../../../arm-none-eabi/lib/thumb/v7e-m+fp/hard\libcr_c.a(__fillbuf.o)
__sys_readc                                       c:/nxp/mcuxpressoide_11.7.0_9198/ide/plugins/com.nxp.mcuxpresso.tools.win32_11.7.0.202209140929/tools/bin/../lib/gcc/arm-none-eabi/10.3.1/../../../../arm-none-eabi/lib/thumb/v7e-m+fp/hard\libcr_nohost_nf.a(__sys_readc.o)
                                                  c:/nxp/mcuxpressoide_11.7.0_9198/ide/plugins/com.nxp.mcuxpresso.tools.win32_11.7.0.202209140929/tools/bin/../lib/gcc/arm-none-eabi/10.3.1/../../../../arm-none-eabi/lib/thumb/v7e-m+fp/hard\libcr_c.a(__fillbuf.o)
__sys_remove                                      c:/nxp/mcuxpressoide_11.7.0_9198/ide/plugins/com.nxp.mcuxpresso.tools.win32_11.7.0.202209140929/tools/bin/../lib/gcc/arm-none-eabi/10.3.1/../../../../arm-none-eabi/lib/thumb/v7e-m+fp/hard\libcr_nohost_nf.a(__sys_remove.o)
                                                  c:/nxp/mcuxpressoide_11.7.0_9198/ide/plugins/com.nxp.mcuxpresso.tools.win32_11.7.0.202209140929/tools/bin/../lib/gcc/arm-none-eabi/10.3.1/../../../../arm-none-eabi/lib/thumb/v7e-m+fp/hard\libcr_c.a(remove.o)
__sys_rename                                      c:/nxp/mcuxpressoide_11.7.0_9198/ide/plugins/com.nxp.mcuxpresso.tools.win32_11.7.0.202209140929/tools/bin/../lib/gcc/arm-none-eabi/10.3.1/../../../../arm-none-eabi/lib/thumb/v7e-m+fp/hard\libcr_nohost_nf.a(__sys_rename.o)
                                                  c:/nxp/mcuxpressoide_11.7.0_9198/ide/plugins/com.nxp.mcuxpresso.tools.win32_11.7.0.202209140929/tools/bin/../lib/gcc/arm-none-eabi/10.3.1/../../../../arm-none-eabi/lib/thumb/v7e-m+fp/hard\libcr_c.a(remove.o)
__sys_seek                                        c:/nxp/mcuxpressoide_11.7.0_9198/ide/plugins/com.nxp.mcuxpresso.tools.win32_11.7.0.202209140929/tools/bin/../lib/gcc/arm-none-eabi/10.3.1/../../../../arm-none-eabi/lib/thumb/v7e-m+fp/hard\libcr_nohost_nf.a(__sys_seek.o)
                                                  c:/nxp/mcuxpressoide_11.7.0_9198/ide/plugins/com.nxp.mcuxpresso.tools.win32_11.7.0.202209140929/tools/bin/../lib/gcc/arm-none-eabi/10.3.1/../../../../arm-none-eabi/lib/thumb/v7e-m+fp/hard\libcr_c.a(_writebuf.o)
                                                  c:/nxp/mcuxpressoide_11.7.0_9198/ide/plugins/com.nxp.mcuxpresso.tools.win32_11.7.0.202209140929/tools/bin/../lib/gcc/arm-none-eabi/10.3.1/../../../../arm-none-eabi/lib/thumb/v7e-m+fp/hard\libcr_c.a(__fillbuf.o)
__sys_tmpnam                                      c:/nxp/mcuxpressoide_11.7.0_9198/ide/plugins/com.nxp.mcuxpresso.tools.win32_11.7.0.202209140929/tools/bin/../lib/gcc/arm-none-eabi/10.3.1/../../../../arm-none-eabi/lib/thumb/v7e-m+fp/hard\libcr_nohost_nf.a(__sys_tmpnam.o)
                                                  c:/nxp/mcuxpressoide_11.7.0_9198/ide/plugins/com.nxp.mcuxpresso.tools.win32_11.7.0.202209140929/tools/bin/../lib/gcc/arm-none-eabi/10.3.1/../../../../arm-none-eabi/lib/thumb/v7e-m+fp/hard\libcr_c.a(fclose.o)
__sys_write                                       c:/nxp/mcuxpressoide_11.7.0_9198/ide/plugins/com.nxp.mcuxpresso.tools.win32_11.7.0.202209140929/tools/bin/../lib/gcc/arm-none-eabi/10.3.1/../../../../arm-none-eabi/lib/thumb/v7e-m+fp/hard\libcr_nohost_nf.a(__sys_write.o)
                                                  c:/nxp/mcuxpressoide_11.7.0_9198/ide/plugins/com.nxp.mcuxpresso.tools.win32_11.7.0.202209140929/tools/bin/../lib/gcc/arm-none-eabi/10.3.1/../../../../arm-none-eabi/lib/thumb/v7e-m+fp/hard\libcr_c.a(_writebuf.o)
                                                  c:/nxp/mcuxpressoide_11.7.0_9198/ide/plugins/com.nxp.mcuxpresso.tools.win32_11.7.0.202209140929/tools/bin/../lib/gcc/arm-none-eabi/10.3.1/../../../../arm-none-eabi/lib/thumb/v7e-m+fp/hard\libcr_c.a(printf.o)
                                                  c:/nxp/mcuxpressoide_11.7.0_9198/ide/plugins/com.nxp.mcuxpresso.tools.win32_11.7.0.202209140929/tools/bin/../lib/gcc/arm-none-eabi/10.3.1/../../../../arm-none-eabi/lib/thumb/v7e-m+fp/hard\libcr_c.a(alloc.o)
__vfprintf                                        c:/nxp/mcuxpressoide_11.7.0_9198/ide/plugins/com.nxp.mcuxpresso.tools.win32_11.7.0.202209140929/tools/bin/../lib/gcc/arm-none-eabi/10.3.1/../../../../arm-none-eabi/lib/thumb/v7e-m+fp/hard\libcr_c.a(printf.o)
_deferredlazyseek                                 c:/nxp/mcuxpressoide_11.7.0_9198/ide/plugins/com.nxp.mcuxpresso.tools.win32_11.7.0.202209140929/tools/bin/../lib/gcc/arm-none-eabi/10.3.1/../../../../arm-none-eabi/lib/thumb/v7e-m+fp/hard\libcr_c.a(_deferredlazyseek.o)
                                                  c:/nxp/mcuxpressoide_11.7.0_9198/ide/plugins/com.nxp.mcuxpresso.tools.win32_11.7.0.202209140929/tools/bin/../lib/gcc/arm-none-eabi/10.3.1/../../../../arm-none-eabi/lib/thumb/v7e-m+fp/hard\libcr_c.a(_do_fflush.o)
                                                  c:/nxp/mcuxpressoide_11.7.0_9198/ide/plugins/com.nxp.mcuxpresso.tools.win32_11.7.0.202209140929/tools/bin/../lib/gcc/arm-none-eabi/10.3.1/../../../../arm-none-eabi/lib/thumb/v7e-m+fp/hard\libcr_c.a(__fillbuf.o)
_do_fflush                                        c:/nxp/mcuxpressoide_11.7.0_9198/ide/plugins/com.nxp.mcuxpresso.tools.win32_11.7.0.202209140929/tools/bin/../lib/gcc/arm-none-eabi/10.3.1/../../../../arm-none-eabi/lib/thumb/v7e-m+fp/hard\libcr_c.a(_do_fflush.o)
                                                  c:/nxp/mcuxpressoide_11.7.0_9198/ide/plugins/com.nxp.mcuxpresso.tools.win32_11.7.0.202209140929/tools/bin/../lib/gcc/arm-none-eabi/10.3.1/../../../../arm-none-eabi/lib/thumb/v7e-m+fp/hard\libcr_c.a(fflush.o)
_fdopen                                           c:/nxp/mcuxpressoide_11.7.0_9198/ide/plugins/com.nxp.mcuxpresso.tools.win32_11.7.0.202209140929/tools/bin/../lib/gcc/arm-none-eabi/10.3.1/../../../../arm-none-eabi/lib/thumb/v7e-m+fp/hard\libcr_c.a(_fdopen.o)
                                                  c:/nxp/mcuxpressoide_11.7.0_9198/ide/plugins/com.nxp.mcuxpresso.tools.win32_11.7.0.202209140929/tools/bin/../lib/gcc/arm-none-eabi/10.3.1/../../../../arm-none-eabi/lib/thumb/v7e-m+fp/hard\libcr_c.a(initio.o)
_fflush                                           c:/nxp/mcuxpressoide_11.7.0_9198/ide/plugins/com.nxp.mcuxpresso.tools.win32_11.7.0.202209140929/tools/bin/../lib/gcc/arm-none-eabi/10.3.1/../../../../arm-none-eabi/lib/thumb/v7e-m+fp/hard\libcr_c.a(_fflush.o)
                                                  c:/nxp/mcuxpressoide_11.7.0_9198/ide/plugins/com.nxp.mcuxpresso.tools.win32_11.7.0.202209140929/tools/bin/../lib/gcc/arm-none-eabi/10.3.1/../../../../arm-none-eabi/lib/thumb/v7e-m+fp/hard\libcr_c.a(_do_fflush.o)
                                                  c:/nxp/mcuxpressoide_11.7.0_9198/ide/plugins/com.nxp.mcuxpresso.tools.win32_11.7.0.202209140929/tools/bin/../lib/gcc/arm-none-eabi/10.3.1/../../../../arm-none-eabi/lib/thumb/v7e-m+fp/hard\libcr_c.a(_deferredlazyseek.o)
                                                  c:/nxp/mcuxpressoide_11.7.0_9198/ide/plugins/com.nxp.mcuxpresso.tools.win32_11.7.0.202209140929/tools/bin/../lib/gcc/arm-none-eabi/10.3.1/../../../../arm-none-eabi/lib/thumb/v7e-m+fp/hard\libcr_c.a(__fillbuf.o)
_fillb2                                           c:/nxp/mcuxpressoide_11.7.0_9198/ide/plugins/com.nxp.mcuxpresso.tools.win32_11.7.0.202209140929/tools/bin/../lib/gcc/arm-none-eabi/10.3.1/../../../../arm-none-eabi/lib/thumb/v7e-m+fp/hard\libcr_c.a(__fillbuf.o)
_fprintf                                          c:/nxp/mcuxpressoide_11.7.0_9198/ide/plugins/com.nxp.mcuxpresso.tools.win32_11.7.0.202209140929/tools/bin/../lib/gcc/arm-none-eabi/10.3.1/../../../../arm-none-eabi/lib/thumb/v7e-m+fp/hard\libcr_c.a(printf.o)
_frexpl                                           c:/nxp/mcuxpressoide_11.7.0_9198/ide/plugins/com.nxp.mcuxpresso.tools.win32_11.7.0.202209140929/tools/bin/../lib/gcc/arm-none-eabi/10.3.1/../../../../arm-none-eabi/lib/thumb/v7e-m+fp/hard\libcr_c.a(_frexpl.o)
                                                  c:/nxp/mcuxpressoide_11.7.0_9198/ide/plugins/com.nxp.mcuxpresso.tools.win32_11.7.0.202209140929/tools/bin/../lib/gcc/arm-none-eabi/10.3.1/../../../../arm-none-eabi/lib/thumb/v7e-m+fp/hard\libcr_c.a(scanf.o)
_init_alloc                                       c:/nxp/mcuxpressoide_11.7.0_9198/ide/plugins/com.nxp.mcuxpresso.tools.win32_11.7.0.202209140929/tools/bin/../lib/gcc/arm-none-eabi/10.3.1/../../../../arm-none-eabi/lib/thumb/v7e-m+fp/hard\libcr_c.a(__init_alloc.o)
_initio                                           c:/nxp/mcuxpressoide_11.7.0_9198/ide/plugins/com.nxp.mcuxpresso.tools.win32_11.7.0.202209140929/tools/bin/../lib/gcc/arm-none-eabi/10.3.1/../../../../arm-none-eabi/lib/thumb/v7e-m+fp/hard\libcr_c.a(initio.o)
                                                  c:/nxp/mcuxpressoide_11.7.0_9198/ide/plugins/com.nxp.mcuxpresso.tools.win32_11.7.0.202209140929/tools/bin/../lib/gcc/arm-none-eabi/10.3.1/../../../../arm-none-eabi/lib/thumb/v7e-m+fp/hard\libcr_nohost_nf.a(_cr__main.o)
_ldexpl                                           c:/nxp/mcuxpressoide_11.7.0_9198/ide/plugins/com.nxp.mcuxpresso.tools.win32_11.7.0.202209140929/tools/bin/../lib/gcc/arm-none-eabi/10.3.1/../../../../arm-none-eabi/lib/thumb/v7e-m+fp/hard\libcr_c.a(_ldexpl.o)
                                                  c:/nxp/mcuxpressoide_11.7.0_9198/ide/plugins/com.nxp.mcuxpresso.tools.win32_11.7.0.202209140929/tools/bin/../lib/gcc/arm-none-eabi/10.3.1/../../../../arm-none-eabi/lib/thumb/v7e-m+fp/hard\libcr_c.a(scanf.o)
_ncc_vfscanf                                      c:/nxp/mcuxpressoide_11.7.0_9198/ide/plugins/com.nxp.mcuxpresso.tools.win32_11.7.0.202209140929/tools/bin/../lib/gcc/arm-none-eabi/10.3.1/../../../../arm-none-eabi/lib/thumb/v7e-m+fp/hard\libcr_c.a(scanf.o)
_printf                                           c:/nxp/mcuxpressoide_11.7.0_9198/ide/plugins/com.nxp.mcuxpresso.tools.win32_11.7.0.202209140929/tools/bin/../lib/gcc/arm-none-eabi/10.3.1/../../../../arm-none-eabi/lib/thumb/v7e-m+fp/hard\libcr_c.a(printf.o)
                                                  ./source/dlt.o
                                                  ./source/Scan.o
_printf_char                                      c:/nxp/mcuxpressoide_11.7.0_9198/ide/plugins/com.nxp.mcuxpresso.tools.win32_11.7.0.202209140929/tools/bin/../lib/gcc/arm-none-eabi/10.3.1/../../../../arm-none-eabi/lib/thumb/v7e-m+fp/hard\libcr_c.a(printf.o)
_pvHeapLimit                                      c:/nxp/mcuxpressoide_11.7.0_9198/ide/plugins/com.nxp.mcuxpresso.tools.win32_11.7.0.202209140929/tools/bin/../lib/gcc/arm-none-eabi/10.3.1/../../../../arm-none-eabi/lib/thumb/v7e-m+fp/hard\libcr_c.a(_cr_check_heap.o)
_pvHeapStart                                      c:/nxp/mcuxpressoide_11.7.0_9198/ide/plugins/com.nxp.mcuxpresso.tools.win32_11.7.0.202209140929/tools/bin/../lib/gcc/arm-none-eabi/10.3.1/../../../../arm-none-eabi/lib/thumb/v7e-m+fp/hard\libcr_c.a(_cr_sbrk.o)
_sbrk                                             c:/nxp/mcuxpressoide_11.7.0_9198/ide/plugins/com.nxp.mcuxpresso.tools.win32_11.7.0.202209140929/tools/bin/../lib/gcc/arm-none-eabi/10.3.1/../../../../arm-none-eabi/lib/thumb/v7e-m+fp/hard\libcr_c.a(_cr_sbrk.o)
                                                  c:/nxp/mcuxpressoide_11.7.0_9198/ide/plugins/com.nxp.mcuxpresso.tools.win32_11.7.0.202209140929/tools/bin/../lib/gcc/arm-none-eabi/10.3.1/../../../../arm-none-eabi/lib/thumb/v7e-m+fp/hard\libcr_c.a(alloc.o)
_snprintf                                         c:/nxp/mcuxpressoide_11.7.0_9198/ide/plugins/com.nxp.mcuxpresso.tools.win32_11.7.0.202209140929/tools/bin/../lib/gcc/arm-none-eabi/10.3.1/../../../../arm-none-eabi/lib/thumb/v7e-m+fp/hard\libcr_c.a(printf.o)
_sprintf                                          c:/nxp/mcuxpressoide_11.7.0_9198/ide/plugins/com.nxp.mcuxpresso.tools.win32_11.7.0.202209140929/tools/bin/../lib/gcc/arm-none-eabi/10.3.1/../../../../arm-none-eabi/lib/thumb/v7e-m+fp/hard\libcr_c.a(printf.o)
_terminateio                                      c:/nxp/mcuxpressoide_11.7.0_9198/ide/plugins/com.nxp.mcuxpresso.tools.win32_11.7.0.202209140929/tools/bin/../lib/gcc/arm-none-eabi/10.3.1/../../../../arm-none-eabi/lib/thumb/v7e-m+fp/hard\libcr_c.a(initio.o)
_vStackTop                                        ./startup/startup_mimxrt1064.o
_vfprintf                                         c:/nxp/mcuxpressoide_11.7.0_9198/ide/plugins/com.nxp.mcuxpresso.tools.win32_11.7.0.202209140929/tools/bin/../lib/gcc/arm-none-eabi/10.3.1/../../../../arm-none-eabi/lib/thumb/v7e-m+fp/hard\libcr_c.a(printf.o)
_vprintf                                          c:/nxp/mcuxpressoide_11.7.0_9198/ide/plugins/com.nxp.mcuxpresso.tools.win32_11.7.0.202209140929/tools/bin/../lib/gcc/arm-none-eabi/10.3.1/../../../../arm-none-eabi/lib/thumb/v7e-m+fp/hard\libcr_c.a(printf.o)
_vsnprintf                                        c:/nxp/mcuxpressoide_11.7.0_9198/ide/plugins/com.nxp.mcuxpresso.tools.win32_11.7.0.202209140929/tools/bin/../lib/gcc/arm-none-eabi/10.3.1/../../../../arm-none-eabi/lib/thumb/v7e-m+fp/hard\libcr_c.a(printf.o)
_vsprintf                                         c:/nxp/mcuxpressoide_11.7.0_9198/ide/plugins/com.nxp.mcuxpresso.tools.win32_11.7.0.202209140929/tools/bin/../lib/gcc/arm-none-eabi/10.3.1/../../../../arm-none-eabi/lib/thumb/v7e-m+fp/hard\libcr_c.a(printf.o)
aarea_end_x__                                     ./source/pitch_table.o
                                                  ./source/dlt.o
                                                  ./source/app.o
aarea_end_y__                                     ./source/pitch_table.o
                                                  ./source/dlt.o
                                                  ./source/app.o
aarea_zero_x__                                    ./source/pitch_table.o
                                                  ./source/dlt.o
                                                  ./source/app.o
aarea_zero_y__                                    ./source/pitch_table.o
                                                  ./source/dlt.o
                                                  ./source/app.o
adc_value                                         ./source/Scan.o
addEdgePatternHalfPad                             D:\Project\21.IR_Touch\BE_FW\wmc-ctsi-0850-fe-be-app\lib/libbackend_irt650_nxp2.a(backend_multi.o)
add_pos_info                                      ./source/backend_postp.o
anOutAdcResult                                    ./source/Scan.o
appRunState                                       ./source/app.o
armPllConfig_BOARD_BootClockRUN                   ./board/clock_config.o
armPllConfig_BOARD_BootClockRUN_528M              ./board/clock_config.o
atof                                              c:/nxp/mcuxpressoide_11.7.0_9198/ide/plugins/com.nxp.mcuxpresso.tools.win32_11.7.0.202209140929/tools/bin/../lib/gcc/arm-none-eabi/10.3.1/../../../../arm-none-eabi/lib/thumb/v7e-m+fp/hard\libcr_c.a(scanf.o)
atoi                                              c:/nxp/mcuxpressoide_11.7.0_9198/ide/plugins/com.nxp.mcuxpresso.tools.win32_11.7.0.202209140929/tools/bin/../lib/gcc/arm-none-eabi/10.3.1/../../../../arm-none-eabi/lib/thumb/v7e-m+fp/hard\libcr_c.a(scanf.o)
atol                                              c:/nxp/mcuxpressoide_11.7.0_9198/ide/plugins/com.nxp.mcuxpresso.tools.win32_11.7.0.202209140929/tools/bin/../lib/gcc/arm-none-eabi/10.3.1/../../../../arm-none-eabi/lib/thumb/v7e-m+fp/hard\libcr_c.a(scanf.o)
atoll                                             c:/nxp/mcuxpressoide_11.7.0_9198/ide/plugins/com.nxp.mcuxpresso.tools.win32_11.7.0.202209140929/tools/bin/../lib/gcc/arm-none-eabi/10.3.1/../../../../arm-none-eabi/lib/thumb/v7e-m+fp/hard\libcr_c.a(scanf.o)
averageNonBlockLevel                              ./source/Scan.o
backendInit                                       ./source/app.o
backendProcess                                    ./source/app.o
backendRunState                                   ./source/app.o
backend_process_line_data                         ./source/app.o
backend_process_ofst_data_debug_print             ./source/app.o
beizerCurvedFilterAnalysis                        ./source/bezier.o
beizerFilterAnalysis                              ./source/bezier.o
                                                  ./source/backend_postp.o
blocked_info                                      ./source/app.o
brushLastSend                                     ./source/app.o
                                                  ./source/backend_postp.o
bss_init                                          ./startup/startup_mimxrt1064.o
calloc                                            c:/nxp/mcuxpressoide_11.7.0_9198/ide/plugins/com.nxp.mcuxpresso.tools.win32_11.7.0.202209140929/tools/bin/../lib/gcc/arm-none-eabi/10.3.1/../../../../arm-none-eabi/lib/thumb/v7e-m+fp/hard\libcr_c.a(alloc.o)
checkExtLightNoise                                ./source/Scan.o
clearAgcControlTimer                              ./source/Scan.o
clearDelayScanTimer                               ./source/Scan.o
clearPDDelayTimer                                 ./source/Scan.o
clearProcessExtLightTimer                         ./source/Scan.o
compensateExtLightNoise                           ./source/Scan.o
contError                                         ./source/app.o
contTouch                                         ./source/app.o
contTouch2                                        ./source/app.o
controlLEDLightIntensityWithTryCnt                ./source/Scan.o
copySequenceTbl                                   ./source/Scan.o
copy_ofst_to_exb                                  ./source/dlt.o
coreTimer_diff                                    ./source/Scan.o
coreTimer_start_cnt                               ./source/Scan.o
coreTimer_timeout                                 ./source/Scan.o
curBrushId                                        ./source/backend_postp.o
data_init                                         ./startup/startup_mimxrt1064.o
dcd_data                                          ./board/dcd.o
deadCellHorLed                                    ./source/app.o
deadCellHorPd                                     ./source/app.o
deadCellVerLed                                    ./source/app.o
deadCellVerPd                                     ./source/app.o
deadcell_info                                     ./source/app.o
debug_count                                       ./source/app.o
decideDeadCell                                    ./source/Scan.o
decrypt_ecb                                       ./source/aes.o
delay_test                                        ./source/app.o
diff                                              ./source/app.o
diff_2                                            ./source/app.o
dltInit                                           ./source/dlt.o
dltParmInit                                       ./source/dlt.o
                                                  ./source/app.o
dltProcess                                        ./source/dlt.o
                                                  ./source/app.o
dltRxProcess                                      ./source/dlt.o
dltThresholdEnbale                                ./source/Scan.o
encrypt_ecb                                       ./source/aes.o
encrypt_key_copy                                  ./source/aes.o
endAgcCtrlTimer                                   ./source/Scan.o
endDelayscanTimer                                 ./source/Scan.o
endPdDelayTimer                                   ./source/Scan.o
endProcessExtLightTimer                           ./source/Scan.o
errno                                             c:/nxp/mcuxpressoide_11.7.0_9198/ide/plugins/com.nxp.mcuxpresso.tools.win32_11.7.0.202209140929/tools/bin/../lib/gcc/arm-none-eabi/10.3.1/../../../../arm-none-eabi/lib/thumb/v7e-m+fp/hard\libcr_c.a(errno.o)
                                                  c:/nxp/mcuxpressoide_11.7.0_9198/ide/plugins/com.nxp.mcuxpresso.tools.win32_11.7.0.202209140929/tools/bin/../lib/gcc/arm-none-eabi/10.3.1/../../../../arm-none-eabi/lib/thumb/v7e-m+fp/hard\libcr_c.a(ftell.o)
                                                  c:/nxp/mcuxpressoide_11.7.0_9198/ide/plugins/com.nxp.mcuxpresso.tools.win32_11.7.0.202209140929/tools/bin/../lib/gcc/arm-none-eabi/10.3.1/../../../../arm-none-eabi/lib/thumb/v7e-m+fp/hard\libcr_c.a(_ldexpl.o)
                                                  c:/nxp/mcuxpressoide_11.7.0_9198/ide/plugins/com.nxp.mcuxpresso.tools.win32_11.7.0.202209140929/tools/bin/../lib/gcc/arm-none-eabi/10.3.1/../../../../arm-none-eabi/lib/thumb/v7e-m+fp/hard\libcr_c.a(_cr_sbrk.o)
                                                  c:/nxp/mcuxpressoide_11.7.0_9198/ide/plugins/com.nxp.mcuxpresso.tools.win32_11.7.0.202209140929/tools/bin/../lib/gcc/arm-none-eabi/10.3.1/../../../../arm-none-eabi/lib/thumb/v7e-m+fp/hard\libcr_c.a(scanf.o)
                                                  ./utilities/fsl_str.o
fclose                                            c:/nxp/mcuxpressoide_11.7.0_9198/ide/plugins/com.nxp.mcuxpresso.tools.win32_11.7.0.202209140929/tools/bin/../lib/gcc/arm-none-eabi/10.3.1/../../../../arm-none-eabi/lib/thumb/v7e-m+fp/hard\libcr_c.a(fclose.o)
                                                  c:/nxp/mcuxpressoide_11.7.0_9198/ide/plugins/com.nxp.mcuxpresso.tools.win32_11.7.0.202209140929/tools/bin/../lib/gcc/arm-none-eabi/10.3.1/../../../../arm-none-eabi/lib/thumb/v7e-m+fp/hard\libcr_c.a(_fdopen.o)
                                                  c:/nxp/mcuxpressoide_11.7.0_9198/ide/plugins/com.nxp.mcuxpresso.tools.win32_11.7.0.202209140929/tools/bin/../lib/gcc/arm-none-eabi/10.3.1/../../../../arm-none-eabi/lib/thumb/v7e-m+fp/hard\libcr_c.a(initio.o)
fflush                                            c:/nxp/mcuxpressoide_11.7.0_9198/ide/plugins/com.nxp.mcuxpresso.tools.win32_11.7.0.202209140929/tools/bin/../lib/gcc/arm-none-eabi/10.3.1/../../../../arm-none-eabi/lib/thumb/v7e-m+fp/hard\libcr_c.a(fflush.o)
                                                  c:/nxp/mcuxpressoide_11.7.0_9198/ide/plugins/com.nxp.mcuxpresso.tools.win32_11.7.0.202209140929/tools/bin/../lib/gcc/arm-none-eabi/10.3.1/../../../../arm-none-eabi/lib/thumb/v7e-m+fp/hard\libcr_c.a(fclose.o)
findStartScanSequenceIdx                          ./source/Scan.o
                                                  ./source/dlt.o
fixedCurrentEnable                                ./source/Scan.o
free                                              c:/nxp/mcuxpressoide_11.7.0_9198/ide/plugins/com.nxp.mcuxpresso.tools.win32_11.7.0.202209140929/tools/bin/../lib/gcc/arm-none-eabi/10.3.1/../../../../arm-none-eabi/lib/thumb/v7e-m+fp/hard\libcr_c.a(alloc.o)
                                                  c:/nxp/mcuxpressoide_11.7.0_9198/ide/plugins/com.nxp.mcuxpresso.tools.win32_11.7.0.202209140929/tools/bin/../lib/gcc/arm-none-eabi/10.3.1/../../../../arm-none-eabi/lib/thumb/v7e-m+fp/hard\libcr_c.a(fclose.o)
                                                  c:/nxp/mcuxpressoide_11.7.0_9198/ide/plugins/com.nxp.mcuxpresso.tools.win32_11.7.0.202209140929/tools/bin/../lib/gcc/arm-none-eabi/10.3.1/../../../../arm-none-eabi/lib/thumb/v7e-m+fp/hard\libcr_c.a(printf.o)
                                                  ./component/osa/fsl_os_abstraction_bm.o
                                                  ./drivers/fsl_common.o
frontend_fwVersion                                ./source/dlt.o
fscanf                                            c:/nxp/mcuxpressoide_11.7.0_9198/ide/plugins/com.nxp.mcuxpresso.tools.win32_11.7.0.202209140929/tools/bin/../lib/gcc/arm-none-eabi/10.3.1/../../../../arm-none-eabi/lib/thumb/v7e-m+fp/hard\libcr_c.a(scanf.o)
fseek                                             c:/nxp/mcuxpressoide_11.7.0_9198/ide/plugins/com.nxp.mcuxpresso.tools.win32_11.7.0.202209140929/tools/bin/../lib/gcc/arm-none-eabi/10.3.1/../../../../arm-none-eabi/lib/thumb/v7e-m+fp/hard\libcr_c.a(fseek.o)
                                                  c:/nxp/mcuxpressoide_11.7.0_9198/ide/plugins/com.nxp.mcuxpresso.tools.win32_11.7.0.202209140929/tools/bin/../lib/gcc/arm-none-eabi/10.3.1/../../../../arm-none-eabi/lib/thumb/v7e-m+fp/hard\libcr_c.a(_do_fflush.o)
                                                  c:/nxp/mcuxpressoide_11.7.0_9198/ide/plugins/com.nxp.mcuxpresso.tools.win32_11.7.0.202209140929/tools/bin/../lib/gcc/arm-none-eabi/10.3.1/../../../../arm-none-eabi/lib/thumb/v7e-m+fp/hard\libcr_c.a(_fdopen.o)
                                                  c:/nxp/mcuxpressoide_11.7.0_9198/ide/plugins/com.nxp.mcuxpresso.tools.win32_11.7.0.202209140929/tools/bin/../lib/gcc/arm-none-eabi/10.3.1/../../../../arm-none-eabi/lib/thumb/v7e-m+fp/hard\libcr_c.a(_deferredlazyseek.o)
ftell                                             c:/nxp/mcuxpressoide_11.7.0_9198/ide/plugins/com.nxp.mcuxpresso.tools.win32_11.7.0.202209140929/tools/bin/../lib/gcc/arm-none-eabi/10.3.1/../../../../arm-none-eabi/lib/thumb/v7e-m+fp/hard\libcr_c.a(ftell.o)
                                                  c:/nxp/mcuxpressoide_11.7.0_9198/ide/plugins/com.nxp.mcuxpresso.tools.win32_11.7.0.202209140929/tools/bin/../lib/gcc/arm-none-eabi/10.3.1/../../../../arm-none-eabi/lib/thumb/v7e-m+fp/hard\libcr_c.a(fseek.o)
gCurrentLedBoardIndex                             ./source/Scan.o
gCurrentLedGroupIndex                             ./source/Scan.o
gCurrentStartTotalPdIdx                           ./source/Scan.o
gCurrentTotalLedIdx                               ./source/Scan.o
gLedShift1stTime                                  ./source/Scan.o
gLedShiftOption                                   ./source/Scan.o
gScanProcessCnt                                   ./source/Scan.o
gUseRtos_c                                        ./component/osa/fsl_os_abstraction_bm.o
g_CompositeClassConfig                            ./source/composite.o
g_UsbDeviceCompositeConfigList                    ./source/composite.o
g_UsbDeviceConfigurationDescriptor                ./source/usb_device_descriptor.o
g_UsbDeviceDescriptor                             ./source/usb_device_descriptor.o
g_UsbDeviceHidGeneric                             ./source/hid_generic.o
                                                  ./source/app.o
g_UsbDeviceHidGenericConfig                       ./source/usb_device_descriptor.o
                                                  ./source/composite.o
g_UsbDeviceHidGenericEndpoints                    ./source/usb_device_descriptor.o
g_UsbDeviceHidGenericInterface                    ./source/usb_device_descriptor.o
g_UsbDeviceHidGenericInterfaceList                ./source/usb_device_descriptor.o
g_UsbDeviceHidGenericInterfaces                   ./source/usb_device_descriptor.o
g_UsbDeviceHidGenericReportDescriptor             ./source/usb_device_descriptor.o
g_UsbDeviceHidMouseConfig                         ./source/usb_device_descriptor.o
                                                  ./source/composite.o
g_UsbDeviceHidMouseEndpoints                      ./source/usb_device_descriptor.o
g_UsbDeviceHidMouseInterface                      ./source/usb_device_descriptor.o
g_UsbDeviceHidMouseInterfaceList                  ./source/usb_device_descriptor.o
g_UsbDeviceHidMouseInterfaces                     ./source/usb_device_descriptor.o
g_UsbDeviceHidMouseReportDescriptor               ./source/usb_device_descriptor.o
g_UsbDeviceLanguage                               ./source/usb_device_descriptor.o
g_UsbDeviceLanguageList                           ./source/usb_device_descriptor.o
g_UsbDeviceString0                                ./source/usb_device_descriptor.o
g_UsbDeviceString1                                ./source/usb_device_descriptor.o
g_UsbDeviceString2                                ./source/usb_device_descriptor.o
g_UsbDeviceString3                                ./source/usb_device_descriptor.o
g_UsbDeviceString4                                ./source/usb_device_descriptor.o
g_UsbDeviceString5                                ./source/usb_device_descriptor.o
g_UsbDeviceString6                                ./source/usb_device_descriptor.o
g_UsbDeviceStringDescriptorArray                  ./source/usb_device_descriptor.o
g_UsbDeviceStringDescriptorLength                 ./source/usb_device_descriptor.o
g_back_conf                                       ./source/app.o
g_boot_data                                       ./xip/fsl_flexspi_nor_boot.o
g_forcedagc                                       ./source/app.o
                                                  ./source/Scan.o
g_pfnVectors                                      ./startup/startup_mimxrt1064.o
                                                  ./device/system_MIMXRT1064.o
g_rtcXtalFreq                                     ./drivers/fsl_clock.o
                                                  ./board/clock_config.o
g_serialHandle                                    ./utilities/fsl_debug_console.o
g_usb_in_buff                                     ./source/app.o
                                                  ./source/dlt.o
g_xtalFreq                                        ./drivers/fsl_clock.o
                                                  ./board/clock_config.o
                                                  ./board/board.o
getADCResultByDeviceIdx                           ./source/Scan.o
                                                  ./source/dlt.o
getADCResultByLedIdxAndOffset                     ./source/Scan.o
                                                  ./source/dlt.o
getADCResultByPdIdxAndOffset                      ./source/Scan.o
                                                  ./source/dlt.o
getLedCurrentIdx                                  ./source/dlt.o
getLedOnTime                                      ./source/dlt.o
get_fw_version                                    ./source/dlt.o
get_slope_size                                    ./source/dlt.o
get_ver_string                                    ./source/dlt.o
                                                  ./source/app.o
gptIsrFlag                                        ./source/gpt.o
gpt_config                                        ./source/app.o
image_vector_table                                ./xip/fsl_flexspi_nor_boot.o
init_pos_info                                     ./source/backend_postp.o
initializeScanHW                                  ./source/Scan.o
isAgcControlTimerExpired                          ./source/Scan.o
isDelayScanTimerExpired                           ./source/Scan.o
isDelayTimerExpired                               ./source/Scan.o
isInSideArea                                      ./source/Scan.o
isPDDelayTimerExpired                             ./source/Scan.o
isProcessExtLightTimerExpired                     ./source/Scan.o
isalnum                                           c:/nxp/mcuxpressoide_11.7.0_9198/ide/plugins/com.nxp.mcuxpresso.tools.win32_11.7.0.202209140929/tools/bin/../lib/gcc/arm-none-eabi/10.3.1/../../../../arm-none-eabi/lib/thumb/v7e-m+fp/hard\libcr_c.a(ctype.o)
isalpha                                           c:/nxp/mcuxpressoide_11.7.0_9198/ide/plugins/com.nxp.mcuxpresso.tools.win32_11.7.0.202209140929/tools/bin/../lib/gcc/arm-none-eabi/10.3.1/../../../../arm-none-eabi/lib/thumb/v7e-m+fp/hard\libcr_c.a(ctype.o)
iscntrl                                           c:/nxp/mcuxpressoide_11.7.0_9198/ide/plugins/com.nxp.mcuxpresso.tools.win32_11.7.0.202209140929/tools/bin/../lib/gcc/arm-none-eabi/10.3.1/../../../../arm-none-eabi/lib/thumb/v7e-m+fp/hard\libcr_c.a(ctype.o)
isdigit                                           c:/nxp/mcuxpressoide_11.7.0_9198/ide/plugins/com.nxp.mcuxpresso.tools.win32_11.7.0.202209140929/tools/bin/../lib/gcc/arm-none-eabi/10.3.1/../../../../arm-none-eabi/lib/thumb/v7e-m+fp/hard\libcr_c.a(ctype.o)
isgraph                                           c:/nxp/mcuxpressoide_11.7.0_9198/ide/plugins/com.nxp.mcuxpresso.tools.win32_11.7.0.202209140929/tools/bin/../lib/gcc/arm-none-eabi/10.3.1/../../../../arm-none-eabi/lib/thumb/v7e-m+fp/hard\libcr_c.a(ctype.o)
islower                                           c:/nxp/mcuxpressoide_11.7.0_9198/ide/plugins/com.nxp.mcuxpresso.tools.win32_11.7.0.202209140929/tools/bin/../lib/gcc/arm-none-eabi/10.3.1/../../../../arm-none-eabi/lib/thumb/v7e-m+fp/hard\libcr_c.a(ctype.o)
isprint                                           c:/nxp/mcuxpressoide_11.7.0_9198/ide/plugins/com.nxp.mcuxpresso.tools.win32_11.7.0.202209140929/tools/bin/../lib/gcc/arm-none-eabi/10.3.1/../../../../arm-none-eabi/lib/thumb/v7e-m+fp/hard\libcr_c.a(ctype.o)
ispunct                                           c:/nxp/mcuxpressoide_11.7.0_9198/ide/plugins/com.nxp.mcuxpresso.tools.win32_11.7.0.202209140929/tools/bin/../lib/gcc/arm-none-eabi/10.3.1/../../../../arm-none-eabi/lib/thumb/v7e-m+fp/hard\libcr_c.a(ctype.o)
isspace                                           c:/nxp/mcuxpressoide_11.7.0_9198/ide/plugins/com.nxp.mcuxpresso.tools.win32_11.7.0.202209140929/tools/bin/../lib/gcc/arm-none-eabi/10.3.1/../../../../arm-none-eabi/lib/thumb/v7e-m+fp/hard\libcr_c.a(ctype.o)
isupper                                           c:/nxp/mcuxpressoide_11.7.0_9198/ide/plugins/com.nxp.mcuxpresso.tools.win32_11.7.0.202209140929/tools/bin/../lib/gcc/arm-none-eabi/10.3.1/../../../../arm-none-eabi/lib/thumb/v7e-m+fp/hard\libcr_c.a(ctype.o)
isxdigit                                          c:/nxp/mcuxpressoide_11.7.0_9198/ide/plugins/com.nxp.mcuxpresso.tools.win32_11.7.0.202209140929/tools/bin/../lib/gcc/arm-none-eabi/10.3.1/../../../../arm-none-eabi/lib/thumb/v7e-m+fp/hard\libcr_c.a(ctype.o)
line_sect                                         D:\Project\21.IR_Touch\BE_FW\wmc-ctsi-0850-fe-be-app\lib/libbackend_irt650_nxp2.a(backend_utils.o)
mBzStatus                                         ./source/backend_postp.o
m_touchPosBrushOut                                ./source/backend_postp.o
main                                              ./source/app.o
                                                  c:/nxp/mcuxpressoide_11.7.0_9198/ide/plugins/com.nxp.mcuxpresso.tools.win32_11.7.0.202209140929/tools/bin/../lib/gcc/arm-none-eabi/10.3.1/../../../../arm-none-eabi/lib/thumb/v7e-m+fp/hard\libcr_nohost_nf.a(_cr__main.o)
main_task                                         ./component/osa/fsl_os_abstraction_bm.o
malloc                                            c:/nxp/mcuxpressoide_11.7.0_9198/ide/plugins/com.nxp.mcuxpresso.tools.win32_11.7.0.202209140929/tools/bin/../lib/gcc/arm-none-eabi/10.3.1/../../../../arm-none-eabi/lib/thumb/v7e-m+fp/hard\libcr_c.a(alloc.o)
                                                  c:/nxp/mcuxpressoide_11.7.0_9198/ide/plugins/com.nxp.mcuxpresso.tools.win32_11.7.0.202209140929/tools/bin/../lib/gcc/arm-none-eabi/10.3.1/../../../../arm-none-eabi/lib/thumb/v7e-m+fp/hard\libcr_c.a(printf.o)
                                                  ./component/osa/fsl_os_abstraction_bm.o
                                                  ./drivers/fsl_common.o
maxClipIdx                                        D:\Project\21.IR_Touch\BE_FW\wmc-ctsi-0850-fe-be-app\lib/libbackend_irt650_nxp2.a(backend_debug.o)
                                                  D:\Project\21.IR_Touch\BE_FW\wmc-ctsi-0850-fe-be-app\lib/libbackend_irt650_nxp2.a(backend_multi.o)
                                                  D:\Project\21.IR_Touch\BE_FW\wmc-ctsi-0850-fe-be-app\lib/libbackend_irt650_nxp2.a(backend_main.o)
maxProcessCnt                                     D:\Project\21.IR_Touch\BE_FW\wmc-ctsi-0850-fe-be-app\lib/libbackend_irt650_nxp2.a(backend_debug.o)
                                                  D:\Project\21.IR_Touch\BE_FW\wmc-ctsi-0850-fe-be-app\lib/libbackend_irt650_nxp2.a(backend_main.o)
maxSubjCnt                                        D:\Project\21.IR_Touch\BE_FW\wmc-ctsi-0850-fe-be-app\lib/libbackend_irt650_nxp2.a(backend_debug.o)
                                                  D:\Project\21.IR_Touch\BE_FW\wmc-ctsi-0850-fe-be-app\lib/libbackend_irt650_nxp2.a(backend_main.o)
maxVertex                                         D:\Project\21.IR_Touch\BE_FW\wmc-ctsi-0850-fe-be-app\lib/libbackend_irt650_nxp2.a(backend_debug.o)
                                                  D:\Project\21.IR_Touch\BE_FW\wmc-ctsi-0850-fe-be-app\lib/libbackend_irt650_nxp2.a(backend_main.o)
memcpy                                            c:/nxp/mcuxpressoide_11.7.0_9198/ide/plugins/com.nxp.mcuxpresso.tools.win32_11.7.0.202209140929/tools/bin/../lib/gcc/arm-none-eabi/10.3.1/../../../../arm-none-eabi/lib/thumb/v7e-m+fp/hard\libcr_c.a(memcpy.o)
                                                  c:/nxp/mcuxpressoide_11.7.0_9198/ide/plugins/com.nxp.mcuxpresso.tools.win32_11.7.0.202209140929/tools/bin/../lib/gcc/arm-none-eabi/10.3.1/../../../../arm-none-eabi/lib/thumb/v7e-m+fp/hard\libcr_c.a(alloc.o)
                                                  ./source/dlt.o
                                                  ./source/backend_postp.o
                                                  ./source/app.o
                                                  ./source/aes.o
                                                  ./utilities/fsl_str.o
memset                                            c:/nxp/mcuxpressoide_11.7.0_9198/ide/plugins/com.nxp.mcuxpresso.tools.win32_11.7.0.202209140929/tools/bin/../lib/gcc/arm-none-eabi/10.3.1/../../../../arm-none-eabi/lib/thumb/v7e-m+fp/hard\libcr_c.a(memset.o)
                                                  c:/nxp/mcuxpressoide_11.7.0_9198/ide/plugins/com.nxp.mcuxpresso.tools.win32_11.7.0.202209140929/tools/bin/../lib/gcc/arm-none-eabi/10.3.1/../../../../arm-none-eabi/lib/thumb/v7e-m+fp/hard\libcr_c.a(fclose.o)
                                                  c:/nxp/mcuxpressoide_11.7.0_9198/ide/plugins/com.nxp.mcuxpresso.tools.win32_11.7.0.202209140929/tools/bin/../lib/gcc/arm-none-eabi/10.3.1/../../../../arm-none-eabi/lib/thumb/v7e-m+fp/hard\libcr_c.a(scanf.o)
                                                  c:/nxp/mcuxpressoide_11.7.0_9198/ide/plugins/com.nxp.mcuxpresso.tools.win32_11.7.0.202209140929/tools/bin/../lib/gcc/arm-none-eabi/10.3.1/../../../../arm-none-eabi/lib/thumb/v7e-m+fp/hard\libcr_c.a(printf.o)
                                                  c:/nxp/mcuxpressoide_11.7.0_9198/ide/plugins/com.nxp.mcuxpresso.tools.win32_11.7.0.202209140929/tools/bin/../lib/gcc/arm-none-eabi/10.3.1/../../../../arm-none-eabi/lib/thumb/v7e-m+fp/hard\libcr_c.a(alloc.o)
                                                  D:\Project\21.IR_Touch\BE_FW\wmc-ctsi-0850-fe-be-app\lib/libbackend_irt650_nxp2.a(backend_main.o)
                                                  ./component/osa/fsl_os_abstraction_bm.o
                                                  ./component/serial_manager/fsl_component_serial_manager.o
                                                  ./drivers/fsl_wdog.o
                                                  ./drivers/fsl_qtmr.o
                                                  ./drivers/fsl_lpuart.o
                                                  ./drivers/fsl_gpt.o
                                                  ./drivers/fsl_adc.o
                                                  ./source/hid_mouse.o
                                                  ./source/dlt.o
                                                  ./source/backend_postp.o
                                                  ./source/app.o
                                                  ./source/aes.o
                                                  ./source/Scan.o
                                                  ./utilities/fsl_debug_console.o
noTouchObjectCnt                                  ./source/Scan.o
normalCmdProcess                                  ./source/app.o
normal_dlt_send_data                              ./source/app.o
                                                  ./source/dlt.o
partialScanEntryCnt                               ./source/Scan.o
partialScanExecCnt                                ./source/Scan.o
pdGrpIdx                                          ./source/Scan.o
pdGrpIdxPrev                                      ./source/Scan.o
preBrush_Size_Status                              ./source/backend_postp.o
preMove_Status                                    ./source/backend_postp.o
prevXLedCurrentCtrlDir                            ./source/Scan.o
prevYLedCurrentCtrlDir                            ./source/Scan.o
procExtLightNoiseCnt                              ./source/Scan.o
processExtLightNoise                              ./source/Scan.o
qspiflash_config                                  ./xip/evkmimxrt1064_flexspi_nor_config.o
realloc                                           c:/nxp/mcuxpressoide_11.7.0_9198/ide/plugins/com.nxp.mcuxpresso.tools.win32_11.7.0.202209140929/tools/bin/../lib/gcc/arm-none-eabi/10.3.1/../../../../arm-none-eabi/lib/thumb/v7e-m+fp/hard\libcr_c.a(alloc.o)
receivedCmdCnt                                    ./source/Scan.o
remove                                            c:/nxp/mcuxpressoide_11.7.0_9198/ide/plugins/com.nxp.mcuxpresso.tools.win32_11.7.0.202209140929/tools/bin/../lib/gcc/arm-none-eabi/10.3.1/../../../../arm-none-eabi/lib/thumb/v7e-m+fp/hard\libcr_c.a(remove.o)
                                                  c:/nxp/mcuxpressoide_11.7.0_9198/ide/plugins/com.nxp.mcuxpresso.tools.win32_11.7.0.202209140929/tools/bin/../lib/gcc/arm-none-eabi/10.3.1/../../../../arm-none-eabi/lib/thumb/v7e-m+fp/hard\libcr_c.a(fclose.o)
rename                                            c:/nxp/mcuxpressoide_11.7.0_9198/ide/plugins/com.nxp.mcuxpresso.tools.win32_11.7.0.202209140929/tools/bin/../lib/gcc/arm-none-eabi/10.3.1/../../../../arm-none-eabi/lib/thumb/v7e-m+fp/hard\libcr_c.a(remove.o)
rrrr                                              ./source/gpt.o
s_Send_get_time_diff                              ./source/app.o
s_aarea_end_x                                     ./source/app.o
                                                  ./source/backend_postp.o
s_aarea_end_y                                     ./source/app.o
                                                  ./source/backend_postp.o
s_aarea_zero_x                                    ./source/app.o
                                                  ./source/backend_postp.o
s_aarea_zero_y                                    ./source/app.o
                                                  ./source/backend_postp.o
s_allocIDTbl_idx                                  ./source/backend_postp.o
s_belib_time_diff                                 ./source/app.o
s_cal_hor_scroll                                  ./source/backend_postp.o
                                                  ./source/app.o
s_coordinates_conversion                          ./source/backend_postp.o
                                                  ./source/app.o
s_coordinates_conversion_brush                    ./source/backend_postp.o
s_coordinates_conversion_brush_report_delay       ./source/backend_postp.o
                                                  ./source/app.o
s_eraserFlag                                      ./source/backend_postp.o
s_get_frame_span                                  ./source/app.o
                                                  ./source/backend_postp.o
s_get_time_diff                                   ./source/app.o
s_hor_line_threshold                              ./source/app.o
s_hor_touch_pd                                    ./source/app.o
s_init_post_processing                            ./source/backend_postp.o
                                                  ./source/app.o
s_input_buffer                                    ./source/app.o
s_is_expired_fagc_time                            ./source/app.o
s_led_pos_x                                       ./source/app.o
s_led_pos_y                                       ./source/app.o
s_logical_max_x                                   ./source/app.o
                                                  ./source/backend_postp.o
s_logical_max_y                                   ./source/app.o
                                                  ./source/backend_postp.o
s_lpuartHandle                                    ./drivers/fsl_lpuart.o
s_lpuartIRQ                                       ./drivers/fsl_lpuart.o
s_lpuartIsr                                       ./drivers/fsl_lpuart.o
s_movSqFlag                                       ./source/backend_postp.o
s_multi_fine                                      ./source/backend_postp.o
                                                  ./source/app.o
s_non_Scroll_Flag                                 ./source/backend_postp.o
s_non_Scroll_cnt                                  ./source/backend_postp.o
s_output_buffer                                   ./source/app.o
s_output_buffer2                                  ./source/app.o
s_pd_pos_x                                        ./source/app.o
s_pd_pos_y                                        ./source/app.o
s_prevTime                                        ./source/gpt.o
s_prevTime2                                       ./source/gpt.o
s_prevTouchCnt                                    ./source/backend_postp.o
s_prevTouchCntPen                                 ./source/backend_postp.o
s_ratioXforP2L                                    ./source/backend_postp.o
s_ratioYforP2L                                    ./source/backend_postp.o
s_scroll_Flag                                     ./source/backend_postp.o
s_scroll_State                                    ./source/backend_postp.o
s_scroll_report_start                             ./source/backend_postp.o
s_scroll_stats_on_delay                           ./source/backend_postp.o
s_scroll_ver_cnt                                  ./source/backend_postp.o
s_sensor_end_x                                    ./source/app.o
                                                  ./source/backend_postp.o
s_sensor_end_y                                    ./source/app.o
                                                  ./source/backend_postp.o
s_sensor_zero_x                                   ./source/app.o
s_sensor_zero_y                                   ./source/app.o
s_set_fagc_time                                   ./source/app.o
s_smooth_filter                                   ./source/backend_postp.o
                                                  ./source/app.o
s_smooth_filter_brush                             ./source/backend_postp.o
s_smooth_filter_brush_2nd                         ./source/backend_postp.o
s_smooth_filter_brush_report_delay                ./source/backend_postp.o
                                                  ./source/app.o
s_touchPosDataIn                                  ./source/backend_postp.o
s_touchReportCnt                                  ./source/backend_postp.o
s_touch_count                                     ./source/backend_postp.o
                                                  ./source/app.o
s_touch_data                                      ./source/backend_postp.o
                                                  ./source/app.o
s_touch_data_hor_edge_save                        ./source/backend_postp.o
s_touch_data_hor_edge_save_bot                    ./source/backend_postp.o
s_touch_data_out                                  ./source/backend_postp.o
s_touch_lineCnt                                   ./source/backend_postp.o
                                                  ./source/app.o
s_touch_point_tracking                            ./source/backend_postp.o
                                                  ./source/app.o
s_touch_scroll_info                               ./source/backend_postp.o
s_touch_size                                      ./source/backend_postp.o
                                                  ./source/app.o
s_ver_line_threshold                              ./source/app.o
s_ver_touch_pd                                    ./source/app.o
s_wheel_delta                                     ./source/backend_postp.o
                                                  ./source/app.o
s_wheel_get_time_diff                             ./source/app.o
scanAxis                                          ./source/Scan.o
scanAxisFull                                      ./source/Scan.o
                                                  ./source/app.o
scanStatus                                        ./source/Scan.o
                                                  ./source/dlt.o
scanTaskData                                      ./source/Scan.o
scanTaskPowerOnInitCnt                            ./source/Scan.o
scanXAxisAuto                                     ./source/Scan.o
scanYAxisAuto                                     ./source/Scan.o
scan_ctrl_time                                    ./source/gpt.o
scan_status                                       ./source/app.o
scanf                                             c:/nxp/mcuxpressoide_11.7.0_9198/ide/plugins/com.nxp.mcuxpresso.tools.win32_11.7.0.202209140929/tools/bin/../lib/gcc/arm-none-eabi/10.3.1/../../../../arm-none-eabi/lib/thumb/v7e-m+fp/hard\libcr_c.a(scanf.o)
scroll_area                                       ./source/backend_postp.o
selectPDGroupExt                                  ./source/Scan.o
sensor_XLED_Pos__                                 ./source/pitch_table.o
                                                  ./source/dlt.o
                                                  ./source/app.o
sensor_XPD_Pos__                                  ./source/pitch_table.o
                                                  ./source/dlt.o
                                                  ./source/app.o
sensor_YLED_Pos__                                 ./source/pitch_table.o
                                                  ./source/dlt.o
                                                  ./source/app.o
sensor_YPD_Pos__                                  ./source/pitch_table.o
                                                  ./source/dlt.o
                                                  ./source/app.o
sensor_end_x__                                    ./source/pitch_table.o
                                                  ./source/dlt.o
                                                  ./source/app.o
sensor_end_y__                                    ./source/pitch_table.o
                                                  ./source/dlt.o
                                                  ./source/app.o
sensor_zero_x__                                   ./source/pitch_table.o
                                                  ./source/dlt.o
                                                  ./source/app.o
sensor_zero_y__                                   ./source/pitch_table.o
                                                  ./source/dlt.o
                                                  ./source/app.o
setAgcControlTimerMsec                            ./source/Scan.o
setDelayScanTimer10Msec                           ./source/Scan.o
setPDDelayTimerUsec                               ./source/Scan.o
setProcessExtLightTimerMsec                       ./source/Scan.o
setThresholdDataAxis                              ./source/Scan.o
setThresholdDataByAvgNonBlockLevel                ./source/Scan.o
                                                  ./source/dlt.o
set_DelayTimerUsec                                ./source/Scan.o
setvbuf                                           c:/nxp/mcuxpressoide_11.7.0_9198/ide/plugins/com.nxp.mcuxpresso.tools.win32_11.7.0.202209140929/tools/bin/../lib/gcc/arm-none-eabi/10.3.1/../../../../arm-none-eabi/lib/thumb/v7e-m+fp/hard\libcr_c.a(setvbuf.o)
                                                  c:/nxp/mcuxpressoide_11.7.0_9198/ide/plugins/com.nxp.mcuxpresso.tools.win32_11.7.0.202209140929/tools/bin/../lib/gcc/arm-none-eabi/10.3.1/../../../../arm-none-eabi/lib/thumb/v7e-m+fp/hard\libcr_c.a(initio.o)
shiftClkCnt                                       ./source/Scan.o
show_frontend_fwinfo                              ./source/dlt.o
slope_byte_x                                      ./source/dlt.o
slope_byte_y                                      ./source/dlt.o
software_reset                                    ./source/Scan.o
sscanf                                            c:/nxp/mcuxpressoide_11.7.0_9198/ide/plugins/com.nxp.mcuxpresso.tools.win32_11.7.0.202209140929/tools/bin/../lib/gcc/arm-none-eabi/10.3.1/../../../../arm-none-eabi/lib/thumb/v7e-m+fp/hard\libcr_c.a(scanf.o)
startAgcCtrlTimer                                 ./source/Scan.o
startDelayscanTimer                               ./source/Scan.o
startPdDelayTimer                                 ./source/Scan.o
startProcessExtLightTimer                         ./source/Scan.o
start_scan_ctrl_time                              ./source/gpt.o
storeAnOutAdcResult                               ./source/Scan.o
strchr                                            c:/nxp/mcuxpressoide_11.7.0_9198/ide/plugins/com.nxp.mcuxpresso.tools.win32_11.7.0.202209140929/tools/bin/../lib/gcc/arm-none-eabi/10.3.1/../../../../arm-none-eabi/lib/thumb/v7e-m+fp/hard\libcr_c.a(strchr.o)
                                                  ./source/dlt.o
strlen                                            c:/nxp/mcuxpressoide_11.7.0_9198/ide/plugins/com.nxp.mcuxpresso.tools.win32_11.7.0.202209140929/tools/bin/../lib/gcc/arm-none-eabi/10.3.1/../../../../arm-none-eabi/lib/thumb/v7e-m+fp/hard\libcr_c.a(strlen.o)
                                                  c:/nxp/mcuxpressoide_11.7.0_9198/ide/plugins/com.nxp.mcuxpresso.tools.win32_11.7.0.202209140929/tools/bin/../lib/gcc/arm-none-eabi/10.3.1/../../../../arm-none-eabi/lib/thumb/v7e-m+fp/hard\libcr_c.a(remove.o)
                                                  c:/nxp/mcuxpressoide_11.7.0_9198/ide/plugins/com.nxp.mcuxpresso.tools.win32_11.7.0.202209140929/tools/bin/../lib/gcc/arm-none-eabi/10.3.1/../../../../arm-none-eabi/lib/thumb/v7e-m+fp/hard\libcr_c.a(scanf.o)
                                                  c:/nxp/mcuxpressoide_11.7.0_9198/ide/plugins/com.nxp.mcuxpresso.tools.win32_11.7.0.202209140929/tools/bin/../lib/gcc/arm-none-eabi/10.3.1/../../../../arm-none-eabi/lib/thumb/v7e-m+fp/hard\libcr_c.a(printf.o)
                                                  ./source/dlt.o
                                                  ./source/app.o
                                                  ./utilities/fsl_str.o
strtod                                            c:/nxp/mcuxpressoide_11.7.0_9198/ide/plugins/com.nxp.mcuxpresso.tools.win32_11.7.0.202209140929/tools/bin/../lib/gcc/arm-none-eabi/10.3.1/../../../../arm-none-eabi/lib/thumb/v7e-m+fp/hard\libcr_c.a(scanf.o)
strtof                                            c:/nxp/mcuxpressoide_11.7.0_9198/ide/plugins/com.nxp.mcuxpresso.tools.win32_11.7.0.202209140929/tools/bin/../lib/gcc/arm-none-eabi/10.3.1/../../../../arm-none-eabi/lib/thumb/v7e-m+fp/hard\libcr_c.a(scanf.o)
strtol                                            c:/nxp/mcuxpressoide_11.7.0_9198/ide/plugins/com.nxp.mcuxpresso.tools.win32_11.7.0.202209140929/tools/bin/../lib/gcc/arm-none-eabi/10.3.1/../../../../arm-none-eabi/lib/thumb/v7e-m+fp/hard\libcr_c.a(scanf.o)
                                                  ./source/dlt.o
strtoll                                           c:/nxp/mcuxpressoide_11.7.0_9198/ide/plugins/com.nxp.mcuxpresso.tools.win32_11.7.0.202209140929/tools/bin/../lib/gcc/arm-none-eabi/10.3.1/../../../../arm-none-eabi/lib/thumb/v7e-m+fp/hard\libcr_c.a(scanf.o)
strtoul                                           c:/nxp/mcuxpressoide_11.7.0_9198/ide/plugins/com.nxp.mcuxpresso.tools.win32_11.7.0.202209140929/tools/bin/../lib/gcc/arm-none-eabi/10.3.1/../../../../arm-none-eabi/lib/thumb/v7e-m+fp/hard\libcr_c.a(scanf.o)
                                                  ./utilities/fsl_str.o
strtoull                                          c:/nxp/mcuxpressoide_11.7.0_9198/ide/plugins/com.nxp.mcuxpresso.tools.win32_11.7.0.202209140929/tools/bin/../lib/gcc/arm-none-eabi/10.3.1/../../../../arm-none-eabi/lib/thumb/v7e-m+fp/hard\libcr_c.a(scanf.o)
subThresholdDropPercent                           ./source/Scan.o
                                                  ./source/dlt.o
sysPllConfig_BOARD_BootClockRUN                   ./board/clock_config.o
sysPllConfig_BOARD_BootClockRUN_528M              ./board/clock_config.o
tBz                                               ./source/backend_postp.o
test_mode_func                                    ./source/app.o
tolower                                           c:/nxp/mcuxpressoide_11.7.0_9198/ide/plugins/com.nxp.mcuxpresso.tools.win32_11.7.0.202209140929/tools/bin/../lib/gcc/arm-none-eabi/10.3.1/../../../../arm-none-eabi/lib/thumb/v7e-m+fp/hard\libcr_c.a(ctype.o)
totalBlockedLineCnt                               ./source/Scan.o
total_send_cnt                                    ./source/dlt.o
touchMode                                         ./source/app.o
                                                  ./source/backend_postp.o
touchModePrev                                     ./source/app.o
                                                  ./source/backend_postp.o
toupper                                           c:/nxp/mcuxpressoide_11.7.0_9198/ide/plugins/com.nxp.mcuxpresso.tools.win32_11.7.0.202209140929/tools/bin/../lib/gcc/arm-none-eabi/10.3.1/../../../../arm-none-eabi/lib/thumb/v7e-m+fp/hard\libcr_c.a(ctype.o)
tp_delay                                          ./source/backend_postp.o
tp_init_post_processing                           ./source/backend_postp.o
                                                  ./source/app.o
tracking_getDistanceSquare                        ./source/backend_postp.o
tttt                                              ./source/gpt.o
ungetc                                            c:/nxp/mcuxpressoide_11.7.0_9198/ide/plugins/com.nxp.mcuxpresso.tools.win32_11.7.0.202209140929/tools/bin/../lib/gcc/arm-none-eabi/10.3.1/../../../../arm-none-eabi/lib/thumb/v7e-m+fp/hard\libcr_c.a(ungetc.o)
                                                  c:/nxp/mcuxpressoide_11.7.0_9198/ide/plugins/com.nxp.mcuxpresso.tools.win32_11.7.0.202209140929/tools/bin/../lib/gcc/arm-none-eabi/10.3.1/../../../../arm-none-eabi/lib/thumb/v7e-m+fp/hard\libcr_c.a(scanf.o)
usb1PllConfig_BOARD_BootClockRUN                  ./board/clock_config.o
usb1PllConfig_BOARD_BootClockRUN_528M             ./board/clock_config.o
usbCmdBuf                                         ./source/app.o
verReadFlag                                       ./source/app.o
verStrBe                                          ./source/app.o
verStrFe                                          ./source/app.o
vfscanf                                           c:/nxp/mcuxpressoide_11.7.0_9198/ide/plugins/com.nxp.mcuxpresso.tools.win32_11.7.0.202209140929/tools/bin/../lib/gcc/arm-none-eabi/10.3.1/../../../../arm-none-eabi/lib/thumb/v7e-m+fp/hard\libcr_c.a(scanf.o)
videoPllConfig_BOARD_BootClockRUN                 ./board/clock_config.o
videoPllConfig_BOARD_BootClockRUN_528M            ./board/clock_config.o
wheel_Send_time                                   ./source/app.o
wheel_cordX                                       ./source/backend_postp.o
wheel_cordY                                       ./source/backend_postp.o
xAxisDacIdx                                       ./source/Scan.o
                                                  ./source/dlt.o
xAxisExtLightDelayUsec                            ./source/Scan.o
xAxisLedCurrentTblIdx                             ./source/Scan.o
                                                  ./source/dlt.o
xAxisPdShiftDelayUsec                             ./source/Scan.o
xAxisSequenceTbl                                  ./source/Scan.o
xAxisSequenceTbl_flash                            ./source/scan_table.o
                                                  ./source/Scan.o
xAxisSequenceTbl_ram                              ./source/Scan.o
xBlockedLineCnt                                   ./source/Scan.o
xCellStatus                                       ./source/Scan.o
                                                  ./source/dlt.o
xLedDeadCellCnt                                   ./source/Scan.o
                                                  ./source/dlt.o
xPartialScanData                                  ./source/Scan.o
xPdDeadCellCnt                                    ./source/Scan.o
                                                  ./source/dlt.o
xPdIdxAtANOutTbl                                  ./source/Scan.o
xPdIdxAtANOutTbl_flash                            ./source/scan_table.o
                                                  ./source/Scan.o
xPdIdxAtANOutTbl_ram                              ./source/Scan.o
xScanNonBlockLevel                                ./source/Scan.o
xScanResultData                                   ./source/Scan.o
xScanSubThresholdData                             ./source/Scan.o
xScanThresholdData                                ./source/Scan.o
xSubBlockedLineCnt                                ./source/Scan.o
xUOffsetAtANOutTbl                                ./source/Scan.o
xUOffsetAtANOutTbl_flash                          ./source/scan_table.o
                                                  ./source/Scan.o
xUOffsetAtANOutTbl_ram                            ./source/Scan.o
yAxisDacIdx                                       ./source/Scan.o
                                                  ./source/dlt.o
yAxisExtLightDelayUsec                            ./source/Scan.o
yAxisLedCurrentTblIdx                             ./source/Scan.o
                                                  ./source/dlt.o
yAxisPdShiftDelayUsec                             ./source/Scan.o
yAxisSequenceTbl                                  ./source/Scan.o
yAxisSequenceTbl_flash                            ./source/scan_table.o
                                                  ./source/Scan.o
yAxisSequenceTbl_ram                              ./source/Scan.o
yBlockedLineCnt                                   ./source/Scan.o
yCellStatus                                       ./source/Scan.o
                                                  ./source/dlt.o
yLedDeadCellCnt                                   ./source/Scan.o
                                                  ./source/dlt.o
yPartialScanData                                  ./source/Scan.o
yPdDeadCellCnt                                    ./source/Scan.o
                                                  ./source/dlt.o
yPdIdxAtANOutTbl                                  ./source/Scan.o
yPdIdxAtANOutTbl_flash                            ./source/scan_table.o
                                                  ./source/Scan.o
yPdIdxAtANOutTbl_ram                              ./source/Scan.o
yScanNonBlockLevel                                ./source/Scan.o
yScanResultData                                   ./source/Scan.o
yScanSubThresholdData                             ./source/Scan.o
yScanThresholdData                                ./source/Scan.o
ySubBlockedLineCnt                                ./source/Scan.o
yUOffsetAtANOutTbl                                ./source/Scan.o
yUOffsetAtANOutTbl_flash                          ./source/scan_table.o
                                                  ./source/Scan.o
yUOffsetAtANOutTbl_ram                            ./source/Scan.o
